---
triple:          'arm64-apple-darwin'
binary-path:     '/Users/spoofch/Documents/Lab_C++/Lab7/2'
relocations:
  - { offsetInCU: 0x33B0, offset: 0x33B0, size: 0x8, addend: 0x0, symName: __ZNSt3__124__put_character_sequenceB7v160006IcNS_11char_traitsIcEEEERNS_13basic_ostreamIT_T0_EES7_PKS4_m, symObjAddr: 0xEF8, symBinAddr: 0x100003144, symSize: 0x1F4 }
  - { offsetInCU: 0x50E6, offset: 0x50E6, size: 0x8, addend: 0x0, symName: __ZNSt3__1lsB7v160006INS_11char_traitsIcEEEERNS_13basic_ostreamIcT_EES6_PKc, symObjAddr: 0x3D4, symBinAddr: 0x100002620, symSize: 0x48 }
  - { offsetInCU: 0x512C, offset: 0x512C, size: 0x8, addend: 0x0, symName: __ZNSt3__14endlB7v160006IcNS_11char_traitsIcEEEERNS_13basic_ostreamIT_T0_EES7_, symObjAddr: 0x448, symBinAddr: 0x100002694, symSize: 0x58 }
  - { offsetInCU: 0x516C, offset: 0x516C, size: 0x8, addend: 0x0, symName: __ZNSt3__113__countl_zeroB7v160006IjEEiT_, symObjAddr: 0x75C, symBinAddr: 0x1000029A8, symSize: 0x54 }
  - { offsetInCU: 0x51C5, offset: 0x51C5, size: 0x8, addend: 0x0, symName: __ZNSt3__112__libcpp_clzB7v160006Ej, symObjAddr: 0xBF4, symBinAddr: 0x100002E40, symSize: 0x18 }
  - { offsetInCU: 0x51F1, offset: 0x51F1, size: 0x8, addend: 0x0, symName: __ZNSt3__119__debug_db_insert_cB7v160006INS_12basic_stringIcNS_11char_traitsIcEENS_9allocatorIcEEEEEEvPT_, symObjAddr: 0xCF8, symBinAddr: 0x100002F44, symSize: 0x10 }
  - { offsetInCU: 0x5222, offset: 0x5222, size: 0x8, addend: 0x0, symName: __ZNSt3__118__constexpr_strlenB7v160006EPKc, symObjAddr: 0xDC4, symBinAddr: 0x100003010, symSize: 0x24 }
  - { offsetInCU: 0x524E, offset: 0x524E, size: 0x8, addend: 0x0, symName: __ZNSt3__116__pad_and_outputB7v160006IcNS_11char_traitsIcEEEENS_19ostreambuf_iteratorIT_T0_EES6_PKS4_S8_S8_RNS_8ios_baseES4_, symObjAddr: 0x1108, symBinAddr: 0x100003354, symSize: 0x248 }
  - { offsetInCU: 0x531D, offset: 0x531D, size: 0x8, addend: 0x0, symName: __ZNSt3__112__to_addressB7v160006IKcEEPT_S3_, symObjAddr: 0x1588, symBinAddr: 0x1000037D4, symSize: 0x14 }
  - { offsetInCU: 0x5352, offset: 0x5352, size: 0x8, addend: 0x0, symName: __ZNSt3__130__libcpp_is_constant_evaluatedB7v160006Ev, symObjAddr: 0x16B4, symBinAddr: 0x100003900, symSize: 0xC }
  - { offsetInCU: 0x53A2, offset: 0x53A2, size: 0x8, addend: 0x0, symName: __ZNSt3__19use_facetB7v160006INS_5ctypeIcEEEERKT_RKNS_6localeE, symObjAddr: 0x186C, symBinAddr: 0x100003AB8, symSize: 0x2C }
  - { offsetInCU: 0x5C48, offset: 0x5C48, size: 0x8, addend: 0x0, symName: __ZNSt3__124uniform_int_distributionIiEclINS_23mersenne_twister_engineIjLm32ELm624ELm397ELm31ELj2567483615ELm11ELj4294967295ELm7ELj2636928640ELm15ELj4022730752ELm18ELj1812433253EEEEEiRT_RKNS1_10param_typeE, symObjAddr: 0x544, symBinAddr: 0x100002790, symSize: 0x188 }
  - { offsetInCU: 0x7EB5, offset: 0x7EB5, size: 0x8, addend: 0x0, symName: __Z20generateRandomNumberRNSt3__123mersenne_twister_engineIjLm32ELm624ELm397ELm31ELj2567483615ELm11ELj4294967295ELm7ELj2636928640ELm15ELj4022730752ELm18ELj1812433253EEE, symObjAddr: 0x0, symBinAddr: 0x10000224C, symSize: 0x3C }
  - { offsetInCU: 0x7EEF, offset: 0x7EEF, size: 0x8, addend: 0x0, symName: __ZNSt3__124uniform_int_distributionIiEC1Eii, symObjAddr: 0x3C, symBinAddr: 0x100002288, symSize: 0x3C }
  - { offsetInCU: 0x7F33, offset: 0x7F33, size: 0x8, addend: 0x0, symName: __ZNSt3__124uniform_int_distributionIiEclINS_23mersenne_twister_engineIjLm32ELm624ELm397ELm31ELj2567483615ELm11ELj4294967295ELm7ELj2636928640ELm15ELj4022730752ELm18ELj1812433253EEEEEiRT_, symObjAddr: 0x78, symBinAddr: 0x1000022C4, symSize: 0x30 }
  - { offsetInCU: 0x7F6E, offset: 0x7F6E, size: 0x8, addend: 0x0, symName: __Z16findMaxRecursivePiii, symObjAddr: 0xA8, symBinAddr: 0x1000022F4, symSize: 0xA0 }
  - { offsetInCU: 0x7FB7, offset: 0x7FB7, size: 0x8, addend: 0x0, symName: _main, symObjAddr: 0x148, symBinAddr: 0x100002394, symSize: 0x218 }
  - { offsetInCU: 0x803D, offset: 0x803D, size: 0x8, addend: 0x0, symName: __ZNSt3__112basic_stringIcNS_11char_traitsIcEENS_9allocatorIcEEEC1B7v160006IDnEEPKc, symObjAddr: 0x360, symBinAddr: 0x1000025AC, symSize: 0x34 }
  - { offsetInCU: 0x8079, offset: 0x8079, size: 0x8, addend: 0x0, symName: __ZNSt3__123mersenne_twister_engineIjLm32ELm624ELm397ELm31ELj2567483615ELm11ELj4294967295ELm7ELj2636928640ELm15ELj4022730752ELm18ELj1812433253EEC1B7v160006Ej, symObjAddr: 0x3A0, symBinAddr: 0x1000025EC, symSize: 0x34 }
  - { offsetInCU: 0x80AF, offset: 0x80AF, size: 0x8, addend: 0x0, symName: __ZNSt3__113basic_ostreamIcNS_11char_traitsIcEEElsB7v160006EPFRS3_S4_E, symObjAddr: 0x41C, symBinAddr: 0x100002668, symSize: 0x2C }
  - { offsetInCU: 0x80E1, offset: 0x80E1, size: 0x8, addend: 0x0, symName: __ZNSt3__124uniform_int_distributionIiEC2Eii, symObjAddr: 0x4A0, symBinAddr: 0x1000026EC, symSize: 0x3C }
  - { offsetInCU: 0x8125, offset: 0x8125, size: 0x8, addend: 0x0, symName: __ZNSt3__124uniform_int_distributionIiE10param_typeC1Eii, symObjAddr: 0x4DC, symBinAddr: 0x100002728, symSize: 0x3C }
  - { offsetInCU: 0x816A, offset: 0x816A, size: 0x8, addend: 0x0, symName: __ZNSt3__124uniform_int_distributionIiE10param_typeC2Eii, symObjAddr: 0x518, symBinAddr: 0x100002764, symSize: 0x2C }
  - { offsetInCU: 0x81AF, offset: 0x81AF, size: 0x8, addend: 0x0, symName: __ZNKSt3__124uniform_int_distributionIiE10param_type1bEv, symObjAddr: 0x6CC, symBinAddr: 0x100002918, symSize: 0x18 }
  - { offsetInCU: 0x81D4, offset: 0x81D4, size: 0x8, addend: 0x0, symName: __ZNKSt3__124uniform_int_distributionIiE10param_type1aEv, symObjAddr: 0x6E4, symBinAddr: 0x100002930, symSize: 0x18 }
  - { offsetInCU: 0x81F9, offset: 0x81F9, size: 0x8, addend: 0x0, symName: __ZNSt3__125__independent_bits_engineINS_23mersenne_twister_engineIjLm32ELm624ELm397ELm31ELj2567483615ELm11ELj4294967295ELm7ELj2636928640ELm15ELj4022730752ELm18ELj1812433253EEEjEC1ERS2_m, symObjAddr: 0x6FC, symBinAddr: 0x100002948, symSize: 0x3C }
  - { offsetInCU: 0x823E, offset: 0x823E, size: 0x8, addend: 0x0, symName: __ZNSt3__125__independent_bits_engineINS_23mersenne_twister_engineIjLm32ELm624ELm397ELm31ELj2567483615ELm11ELj4294967295ELm7ELj2636928640ELm15ELj4022730752ELm18ELj1812433253EEEjEclEv, symObjAddr: 0x738, symBinAddr: 0x100002984, symSize: 0x24 }
  - { offsetInCU: 0x8263, offset: 0x8263, size: 0x8, addend: 0x0, symName: __ZNSt3__114numeric_limitsIjE3maxB7v160006Ev, symObjAddr: 0x7B0, symBinAddr: 0x1000029FC, symSize: 0x14 }
  - { offsetInCU: 0x8277, offset: 0x8277, size: 0x8, addend: 0x0, symName: __ZNSt3__125__independent_bits_engineINS_23mersenne_twister_engineIjLm32ELm624ELm397ELm31ELj2567483615ELm11ELj4294967295ELm7ELj2636928640ELm15ELj4022730752ELm18ELj1812433253EEEjEC2ERS2_m, symObjAddr: 0x7C4, symBinAddr: 0x100002A10, symSize: 0x22C }
  - { offsetInCU: 0x82BC, offset: 0x82BC, size: 0x8, addend: 0x0, symName: __ZNSt3__125__independent_bits_engineINS_23mersenne_twister_engineIjLm32ELm624ELm397ELm31ELj2567483615ELm11ELj4294967295ELm7ELj2636928640ELm15ELj4022730752ELm18ELj1812433253EEEjE6__evalENS_17integral_constantIbLb0EEE, symObjAddr: 0x9F0, symBinAddr: 0x100002C3C, symSize: 0x38 }
  - { offsetInCU: 0x82ED, offset: 0x82ED, size: 0x8, addend: 0x0, symName: __ZNSt3__123mersenne_twister_engineIjLm32ELm624ELm397ELm31ELj2567483615ELm11ELj4294967295ELm7ELj2636928640ELm15ELj4022730752ELm18ELj1812433253EEclEv, symObjAddr: 0xA28, symBinAddr: 0x100002C74, symSize: 0x14C }
  - { offsetInCU: 0x835F, offset: 0x835F, size: 0x8, addend: 0x0, symName: __ZNSt3__123mersenne_twister_engineIjLm32ELm624ELm397ELm31ELj2567483615ELm11ELj4294967295ELm7ELj2636928640ELm15ELj4022730752ELm18ELj1812433253EE8__rshiftB7v160006ILm1EEENS_9enable_ifIXltT_L_ZNS1_3_DtEEEjE4typeEj, symObjAddr: 0xB74, symBinAddr: 0x100002DC0, symSize: 0x18 }
  - { offsetInCU: 0x838C, offset: 0x838C, size: 0x8, addend: 0x0, symName: __ZNSt3__123mersenne_twister_engineIjLm32ELm624ELm397ELm31ELj2567483615ELm11ELj4294967295ELm7ELj2636928640ELm15ELj4022730752ELm18ELj1812433253EE8__rshiftB7v160006ILm11EEENS_9enable_ifIXltT_L_ZNS1_3_DtEEEjE4typeEj, symObjAddr: 0xB8C, symBinAddr: 0x100002DD8, symSize: 0x18 }
  - { offsetInCU: 0x83B9, offset: 0x83B9, size: 0x8, addend: 0x0, symName: __ZNSt3__123mersenne_twister_engineIjLm32ELm624ELm397ELm31ELj2567483615ELm11ELj4294967295ELm7ELj2636928640ELm15ELj4022730752ELm18ELj1812433253EE8__lshiftB7v160006ILm7EEENS_9enable_ifIXltT_Lm32EEjE4typeEj, symObjAddr: 0xBA4, symBinAddr: 0x100002DF0, symSize: 0x1C }
  - { offsetInCU: 0x83E6, offset: 0x83E6, size: 0x8, addend: 0x0, symName: __ZNSt3__123mersenne_twister_engineIjLm32ELm624ELm397ELm31ELj2567483615ELm11ELj4294967295ELm7ELj2636928640ELm15ELj4022730752ELm18ELj1812433253EE8__lshiftB7v160006ILm15EEENS_9enable_ifIXltT_Lm32EEjE4typeEj, symObjAddr: 0xBC0, symBinAddr: 0x100002E0C, symSize: 0x1C }
  - { offsetInCU: 0x8413, offset: 0x8413, size: 0x8, addend: 0x0, symName: __ZNSt3__123mersenne_twister_engineIjLm32ELm624ELm397ELm31ELj2567483615ELm11ELj4294967295ELm7ELj2636928640ELm15ELj4022730752ELm18ELj1812433253EE8__rshiftB7v160006ILm18EEENS_9enable_ifIXltT_L_ZNS1_3_DtEEEjE4typeEj, symObjAddr: 0xBDC, symBinAddr: 0x100002E28, symSize: 0x18 }
  - { offsetInCU: 0x8440, offset: 0x8440, size: 0x8, addend: 0x0, symName: __ZNSt3__123__libcpp_numeric_limitsIjLb1EE3maxB7v160006Ev, symObjAddr: 0xC0C, symBinAddr: 0x100002E58, symSize: 0x8 }
  - { offsetInCU: 0x8453, offset: 0x8453, size: 0x8, addend: 0x0, symName: __ZNSt3__112basic_stringIcNS_11char_traitsIcEENS_9allocatorIcEEEC2B7v160006IDnEEPKc, symObjAddr: 0xC14, symBinAddr: 0x100002E60, symSize: 0x60 }
  - { offsetInCU: 0x8494, offset: 0x8494, size: 0x8, addend: 0x0, symName: __ZNSt3__117__compressed_pairINS_12basic_stringIcNS_11char_traitsIcEENS_9allocatorIcEEE5__repES5_EC1B7v160006INS_18__default_init_tagESA_EEOT_OT0_, symObjAddr: 0xC74, symBinAddr: 0x100002EC0, symSize: 0x3C }
  - { offsetInCU: 0x84EB, offset: 0x84EB, size: 0x8, addend: 0x0, symName: __ZNSt3__111char_traitsIcE6lengthEPKc, symObjAddr: 0xCB0, symBinAddr: 0x100002EFC, symSize: 0x48 }
  - { offsetInCU: 0x850D, offset: 0x850D, size: 0x8, addend: 0x0, symName: __ZNSt3__117__compressed_pairINS_12basic_stringIcNS_11char_traitsIcEENS_9allocatorIcEEE5__repES5_EC2B7v160006INS_18__default_init_tagESA_EEOT_OT0_, symObjAddr: 0xD08, symBinAddr: 0x100002F54, symSize: 0x3C }
  - { offsetInCU: 0x8564, offset: 0x8564, size: 0x8, addend: 0x0, symName: __ZNSt3__122__compressed_pair_elemINS_12basic_stringIcNS_11char_traitsIcEENS_9allocatorIcEEE5__repELi0ELb0EEC2B7v160006ENS_18__default_init_tagE, symObjAddr: 0xD44, symBinAddr: 0x100002F90, symSize: 0x14 }
  - { offsetInCU: 0x8597, offset: 0x8597, size: 0x8, addend: 0x0, symName: __ZNSt3__122__compressed_pair_elemINS_9allocatorIcEELi1ELb1EEC2B7v160006ENS_18__default_init_tagE, symObjAddr: 0xD58, symBinAddr: 0x100002FA4, symSize: 0x2C }
  - { offsetInCU: 0x85CA, offset: 0x85CA, size: 0x8, addend: 0x0, symName: __ZNSt3__19allocatorIcEC2B7v160006Ev, symObjAddr: 0xD84, symBinAddr: 0x100002FD0, symSize: 0x2C }
  - { offsetInCU: 0x85F3, offset: 0x85F3, size: 0x8, addend: 0x0, symName: __ZNSt3__116__non_trivial_ifILb1ENS_9allocatorIcEEEC2B7v160006Ev, symObjAddr: 0xDB0, symBinAddr: 0x100002FFC, symSize: 0x14 }
  - { offsetInCU: 0x861B, offset: 0x861B, size: 0x8, addend: 0x0, symName: __ZNSt3__123mersenne_twister_engineIjLm32ELm624ELm397ELm31ELj2567483615ELm11ELj4294967295ELm7ELj2636928640ELm15ELj4022730752ELm18ELj1812433253EEC2B7v160006Ej, symObjAddr: 0xDE8, symBinAddr: 0x100003034, symSize: 0x34 }
  - { offsetInCU: 0x8652, offset: 0x8652, size: 0x8, addend: 0x0, symName: __ZNSt3__123mersenne_twister_engineIjLm32ELm624ELm397ELm31ELj2567483615ELm11ELj4294967295ELm7ELj2636928640ELm15ELj4022730752ELm18ELj1812433253EE4seedEj, symObjAddr: 0xE1C, symBinAddr: 0x100003068, symSize: 0xC4 }
  - { offsetInCU: 0x86A5, offset: 0x86A5, size: 0x8, addend: 0x0, symName: __ZNSt3__123mersenne_twister_engineIjLm32ELm624ELm397ELm31ELj2567483615ELm11ELj4294967295ELm7ELj2636928640ELm15ELj4022730752ELm18ELj1812433253EE8__rshiftB7v160006ILm30EEENS_9enable_ifIXltT_L_ZNS1_3_DtEEEjE4typeEj, symObjAddr: 0xEE0, symBinAddr: 0x10000312C, symSize: 0x18 }
  - { offsetInCU: 0x86F0, offset: 0x86F0, size: 0x8, addend: 0x0, symName: __ZNKSt3__113basic_ostreamIcNS_11char_traitsIcEEE6sentrycvbB7v160006Ev, symObjAddr: 0x10EC, symBinAddr: 0x100003338, symSize: 0x1C }
  - { offsetInCU: 0x8714, offset: 0x8714, size: 0x8, addend: 0x0, symName: __ZNSt3__119ostreambuf_iteratorIcNS_11char_traitsIcEEEC1B7v160006ERNS_13basic_ostreamIcS2_EE, symObjAddr: 0x1350, symBinAddr: 0x10000359C, symSize: 0x34 }
  - { offsetInCU: 0x874B, offset: 0x874B, size: 0x8, addend: 0x0, symName: __ZNKSt3__18ios_base5flagsB7v160006Ev, symObjAddr: 0x1384, symBinAddr: 0x1000035D0, symSize: 0x18 }
  - { offsetInCU: 0x8772, offset: 0x8772, size: 0x8, addend: 0x0, symName: __ZNKSt3__19basic_iosIcNS_11char_traitsIcEEE4fillB7v160006Ev, symObjAddr: 0x139C, symBinAddr: 0x1000035E8, symSize: 0x64 }
  - { offsetInCU: 0x8799, offset: 0x8799, size: 0x8, addend: 0x0, symName: __ZNKSt3__119ostreambuf_iteratorIcNS_11char_traitsIcEEE6failedB7v160006Ev, symObjAddr: 0x1400, symBinAddr: 0x10000364C, symSize: 0x24 }
  - { offsetInCU: 0x87BD, offset: 0x87BD, size: 0x8, addend: 0x0, symName: __ZNSt3__19basic_iosIcNS_11char_traitsIcEEE8setstateB7v160006Ej, symObjAddr: 0x1424, symBinAddr: 0x100003670, symSize: 0x2C }
  - { offsetInCU: 0x87F1, offset: 0x87F1, size: 0x8, addend: 0x0, symName: __ZNKSt3__18ios_base5widthB7v160006Ev, symObjAddr: 0x1450, symBinAddr: 0x10000369C, symSize: 0x18 }
  - { offsetInCU: 0x8817, offset: 0x8817, size: 0x8, addend: 0x0, symName: __ZNSt3__115basic_streambufIcNS_11char_traitsIcEEE5sputnB7v160006EPKcl, symObjAddr: 0x1468, symBinAddr: 0x1000036B4, symSize: 0x3C }
  - { offsetInCU: 0x8857, offset: 0x8857, size: 0x8, addend: 0x0, symName: __ZNSt3__112basic_stringIcNS_11char_traitsIcEENS_9allocatorIcEEEC1B7v160006Emc, symObjAddr: 0x14A4, symBinAddr: 0x1000036F0, symSize: 0x3C }
  - { offsetInCU: 0x889D, offset: 0x889D, size: 0x8, addend: 0x0, symName: __ZNKSt3__112basic_stringIcNS_11char_traitsIcEENS_9allocatorIcEEE4dataB7v160006Ev, symObjAddr: 0x14E0, symBinAddr: 0x10000372C, symSize: 0x28 }
  - { offsetInCU: 0x88C2, offset: 0x88C2, size: 0x8, addend: 0x0, symName: __ZNSt3__18ios_base5widthB7v160006El, symObjAddr: 0x1508, symBinAddr: 0x100003754, symSize: 0x2C }
  - { offsetInCU: 0x8906, offset: 0x8906, size: 0x8, addend: 0x0, symName: __ZNSt3__112basic_stringIcNS_11char_traitsIcEENS_9allocatorIcEEEC2B7v160006Emc, symObjAddr: 0x1534, symBinAddr: 0x100003780, symSize: 0x54 }
  - { offsetInCU: 0x894C, offset: 0x894C, size: 0x8, addend: 0x0, symName: __ZNKSt3__112basic_stringIcNS_11char_traitsIcEENS_9allocatorIcEEE13__get_pointerB7v160006Ev, symObjAddr: 0x159C, symBinAddr: 0x1000037E8, symSize: 0x54 }
  - { offsetInCU: 0x8970, offset: 0x8970, size: 0x8, addend: 0x0, symName: __ZNKSt3__112basic_stringIcNS_11char_traitsIcEENS_9allocatorIcEEE9__is_longB7v160006Ev, symObjAddr: 0x15F0, symBinAddr: 0x10000383C, symSize: 0x74 }
  - { offsetInCU: 0x8994, offset: 0x8994, size: 0x8, addend: 0x0, symName: __ZNKSt3__112basic_stringIcNS_11char_traitsIcEENS_9allocatorIcEEE18__get_long_pointerB7v160006Ev, symObjAddr: 0x1664, symBinAddr: 0x1000038B0, symSize: 0x28 }
  - { offsetInCU: 0x89B8, offset: 0x89B8, size: 0x8, addend: 0x0, symName: __ZNKSt3__112basic_stringIcNS_11char_traitsIcEENS_9allocatorIcEEE19__get_short_pointerB7v160006Ev, symObjAddr: 0x168C, symBinAddr: 0x1000038D8, symSize: 0x28 }
  - { offsetInCU: 0x89DC, offset: 0x89DC, size: 0x8, addend: 0x0, symName: __ZNKSt3__117__compressed_pairINS_12basic_stringIcNS_11char_traitsIcEENS_9allocatorIcEEE5__repES5_E5firstB7v160006Ev, symObjAddr: 0x16C0, symBinAddr: 0x10000390C, symSize: 0x24 }
  - { offsetInCU: 0x8A01, offset: 0x8A01, size: 0x8, addend: 0x0, symName: __ZNKSt3__122__compressed_pair_elemINS_12basic_stringIcNS_11char_traitsIcEENS_9allocatorIcEEE5__repELi0ELb0EE5__getB7v160006Ev, symObjAddr: 0x16E4, symBinAddr: 0x100003930, symSize: 0x14 }
  - { offsetInCU: 0x8A26, offset: 0x8A26, size: 0x8, addend: 0x0, symName: __ZNSt3__114pointer_traitsIPKcE10pointer_toB7v160006ERS1_, symObjAddr: 0x16F8, symBinAddr: 0x100003944, symSize: 0x14 }
  - { offsetInCU: 0x8A48, offset: 0x8A48, size: 0x8, addend: 0x0, symName: __ZNSt3__119ostreambuf_iteratorIcNS_11char_traitsIcEEEC2B7v160006ERNS_13basic_ostreamIcS2_EE, symObjAddr: 0x170C, symBinAddr: 0x100003958, symSize: 0x68 }
  - { offsetInCU: 0x8A7F, offset: 0x8A7F, size: 0x8, addend: 0x0, symName: __ZNKSt3__19basic_iosIcNS_11char_traitsIcEEE5rdbufB7v160006Ev, symObjAddr: 0x1774, symBinAddr: 0x1000039C0, symSize: 0x24 }
  - { offsetInCU: 0x8AA6, offset: 0x8AA6, size: 0x8, addend: 0x0, symName: __ZNKSt3__18ios_base5rdbufB7v160006Ev, symObjAddr: 0x1798, symBinAddr: 0x1000039E4, symSize: 0x18 }
  - { offsetInCU: 0x8ACB, offset: 0x8ACB, size: 0x8, addend: 0x0, symName: __ZNSt3__111char_traitsIcE11eq_int_typeEii, symObjAddr: 0x17B0, symBinAddr: 0x1000039FC, symSize: 0x28 }
  - { offsetInCU: 0x8AFC, offset: 0x8AFC, size: 0x8, addend: 0x0, symName: __ZNSt3__111char_traitsIcE3eofEv, symObjAddr: 0x17D8, symBinAddr: 0x100003A24, symSize: 0x8 }
  - { offsetInCU: 0x8B10, offset: 0x8B10, size: 0x8, addend: 0x0, symName: __ZNKSt3__19basic_iosIcNS_11char_traitsIcEEE5widenB7v160006Ec, symObjAddr: 0x17E0, symBinAddr: 0x100003A2C, symSize: 0x8C }
  - { offsetInCU: 0x8B77, offset: 0x8B77, size: 0x8, addend: 0x0, symName: __ZNKSt3__15ctypeIcE5widenB7v160006Ec, symObjAddr: 0x1898, symBinAddr: 0x100003AE4, symSize: 0x38 }
  - { offsetInCU: 0x8BAB, offset: 0x8BAB, size: 0x8, addend: 0x0, symName: __ZNSt3__18ios_base8setstateB7v160006Ej, symObjAddr: 0x18D0, symBinAddr: 0x100003B1C, symSize: 0x34 }
...
