---
triple:          'arm64-apple-darwin'
binary-path:     '/Users/spoofch/Documents/Lab_C++/Lab5/1'
relocations:
  - { offsetInCU: 0x2E21, offset: 0x2E21, size: 0x8, addend: 0x0, symName: __ZNSt3__124__put_character_sequenceB7v160006IcNS_11char_traitsIcEEEERNS_13basic_ostreamIT_T0_EES7_PKS4_m, symObjAddr: 0xB5C, symBinAddr: 0x10000220C, symSize: 0x1F4 }
  - { offsetInCU: 0x4C57, offset: 0x4C57, size: 0x8, addend: 0x0, symName: __ZNSt3__1lsB7v160006INS_11char_traitsIcEEEERNS_13basic_ostreamIcT_EES6_PKc, symObjAddr: 0x264, symBinAddr: 0x100001914, symSize: 0x48 }
  - { offsetInCU: 0x4C9D, offset: 0x4C9D, size: 0x8, addend: 0x0, symName: __ZNSt3__1rsB7v160006IcNS_11char_traitsIcEENS_9allocatorIcEEEERNS_13basic_istreamIT_T0_EES9_RNS_12basic_stringIS6_S7_T1_EE, symObjAddr: 0x2AC, symBinAddr: 0x10000195C, symSize: 0x314 }
  - { offsetInCU: 0x4D6A, offset: 0x4D6A, size: 0x8, addend: 0x0, symName: __ZNSt3__14endlB7v160006IcNS_11char_traitsIcEEEERNS_13basic_ostreamIT_T0_EES7_, symObjAddr: 0x5EC, symBinAddr: 0x100001C9C, symSize: 0x58 }
  - { offsetInCU: 0x4DAA, offset: 0x4DAA, size: 0x8, addend: 0x0, symName: __ZNSt3__1lsB7v160006IcNS_11char_traitsIcEENS_9allocatorIcEEEERNS_13basic_ostreamIT_T0_EES9_RKNS_12basic_stringIS6_S7_T1_EE, symObjAddr: 0x954, symBinAddr: 0x100002004, symSize: 0x4C }
  - { offsetInCU: 0x4E02, offset: 0x4E02, size: 0x8, addend: 0x0, symName: __ZNSt3__116__pad_and_outputB7v160006IcNS_11char_traitsIcEEEENS_19ostreambuf_iteratorIT_T0_EES6_PKS4_S8_S8_RNS_8ios_baseES4_, symObjAddr: 0xDE8, symBinAddr: 0x100002498, symSize: 0x248 }
  - { offsetInCU: 0x4ED1, offset: 0x4ED1, size: 0x8, addend: 0x0, symName: __ZNSt3__119__debug_db_insert_cB7v160006INS_12basic_stringIcNS_11char_traitsIcEENS_9allocatorIcEEEEEEvPT_, symObjAddr: 0x127C, symBinAddr: 0x10000292C, symSize: 0x10 }
  - { offsetInCU: 0x4F02, offset: 0x4F02, size: 0x8, addend: 0x0, symName: __ZNSt3__19use_facetB7v160006INS_5ctypeIcEEEERKT_RKNS_6localeE, symObjAddr: 0x14A8, symBinAddr: 0x100002B58, symSize: 0x2C }
  - { offsetInCU: 0x52E2, offset: 0x52E2, size: 0x8, addend: 0x0, symName: __ZNSt3__112__to_addressB7v160006IKcEEPT_S3_, symObjAddr: 0x1540, symBinAddr: 0x100002BF0, symSize: 0x14 }
  - { offsetInCU: 0x5317, offset: 0x5317, size: 0x8, addend: 0x0, symName: __ZNSt3__130__libcpp_is_constant_evaluatedB7v160006Ev, symObjAddr: 0x166C, symBinAddr: 0x100002D1C, symSize: 0xC }
  - { offsetInCU: 0x5367, offset: 0x5367, size: 0x8, addend: 0x0, symName: __ZNSt3__117__libcpp_allocateB7v160006Emm, symObjAddr: 0x1BF8, symBinAddr: 0x1000032A8, symSize: 0x28 }
  - { offsetInCU: 0x53A4, offset: 0x53A4, size: 0x8, addend: 0x0, symName: __ZNSt3__121__libcpp_operator_newB7v160006IJmEEEPvDpT_, symObjAddr: 0x1C34, symBinAddr: 0x1000032E4, symSize: 0x24 }
  - { offsetInCU: 0x53DD, offset: 0x53DD, size: 0x8, addend: 0x0, symName: __ZNSt3__118__constexpr_strlenB7v160006EPKc, symObjAddr: 0x1CD8, symBinAddr: 0x100003388, symSize: 0x24 }
  - { offsetInCU: 0x5B94, offset: 0x5B94, size: 0x8, addend: 0x0, symName: __ZNSt3__125__debug_db_invalidate_allB7v160006INS_12basic_stringIcNS_11char_traitsIcEENS_9allocatorIcEEEEEEvPT_, symObjAddr: 0x2078, symBinAddr: 0x100003728, symSize: 0x10 }
  - { offsetInCU: 0x5DFB, offset: 0x5DFB, size: 0x8, addend: 0x0, symName: __ZSt28__throw_bad_array_new_lengthB7v160006v, symObjAddr: 0x1BC4, symBinAddr: 0x100003274, symSize: 0x34 }
  - { offsetInCU: 0x828E, offset: 0x828E, size: 0x8, addend: 0x0, symName: _main, symObjAddr: 0x0, symBinAddr: 0x1000016B0, symSize: 0x238 }
  - { offsetInCU: 0x82FF, offset: 0x82FF, size: 0x8, addend: 0x0, symName: __ZNSt3__112basic_stringIcNS_11char_traitsIcEENS_9allocatorIcEEEC1B7v160006Ev, symObjAddr: 0x238, symBinAddr: 0x1000018E8, symSize: 0x2C }
  - { offsetInCU: 0x8327, offset: 0x8327, size: 0x8, addend: 0x0, symName: __ZNSt3__113basic_ostreamIcNS_11char_traitsIcEEElsB7v160006EPFRS3_S4_E, symObjAddr: 0x5C0, symBinAddr: 0x100001C70, symSize: 0x2C }
  - { offsetInCU: 0x8534, offset: 0x8534, size: 0x8, addend: 0x0, symName: __ZN16HeartRateMonitorC1ENSt3__112basic_stringIcNS0_11char_traitsIcEENS0_9allocatorIcEEEES6_iii, symObjAddr: 0x644, symBinAddr: 0x100001CF4, symSize: 0x54 }
  - { offsetInCU: 0x85A4, offset: 0x85A4, size: 0x8, addend: 0x0, symName: __ZN16HeartRateMonitor18displayInformationEv, symObjAddr: 0x6A4, symBinAddr: 0x100001D54, symSize: 0x1A0 }
  - { offsetInCU: 0x85C9, offset: 0x85C9, size: 0x8, addend: 0x0, symName: __ZN16HeartRateMonitorD1Ev, symObjAddr: 0x844, symBinAddr: 0x100001EF4, symSize: 0x2C }
  - { offsetInCU: 0x85F3, offset: 0x85F3, size: 0x8, addend: 0x0, symName: __ZN16HeartRateMonitorC2ENSt3__112basic_stringIcNS0_11char_traitsIcEENS0_9allocatorIcEEEES6_iii, symObjAddr: 0x870, symBinAddr: 0x100001F20, symSize: 0xE4 }
  - { offsetInCU: 0x8664, offset: 0x8664, size: 0x8, addend: 0x0, symName: __ZN16HeartRateMonitor6getAgeEv, symObjAddr: 0x9A0, symBinAddr: 0x100002050, symSize: 0x88 }
  - { offsetInCU: 0x86A4, offset: 0x86A4, size: 0x8, addend: 0x0, symName: __ZN16HeartRateMonitor12getFirstNameEv, symObjAddr: 0xA28, symBinAddr: 0x1000020D8, symSize: 0x38 }
  - { offsetInCU: 0x86C8, offset: 0x86C8, size: 0x8, addend: 0x0, symName: __ZN16HeartRateMonitor11getLastNameEv, symObjAddr: 0xA60, symBinAddr: 0x100002110, symSize: 0x3C }
  - { offsetInCU: 0x86EC, offset: 0x86EC, size: 0x8, addend: 0x0, symName: __ZN16HeartRateMonitor19getMaximumHeartRateEv, symObjAddr: 0xA9C, symBinAddr: 0x10000214C, symSize: 0x2C }
  - { offsetInCU: 0x8710, offset: 0x8710, size: 0x8, addend: 0x0, symName: __ZN16HeartRateMonitor18getTargetHeartRateEv, symObjAddr: 0xAC8, symBinAddr: 0x100002178, symSize: 0x94 }
  - { offsetInCU: 0x8734, offset: 0x8734, size: 0x8, addend: 0x0, symName: __ZNKSt3__112basic_stringIcNS_11char_traitsIcEENS_9allocatorIcEEE4dataB7v160006Ev, symObjAddr: 0xD50, symBinAddr: 0x100002400, symSize: 0x28 }
  - { offsetInCU: 0x8758, offset: 0x8758, size: 0x8, addend: 0x0, symName: __ZNKSt3__112basic_stringIcNS_11char_traitsIcEENS_9allocatorIcEEE4sizeB7v160006Ev, symObjAddr: 0xD78, symBinAddr: 0x100002428, symSize: 0x54 }
  - { offsetInCU: 0x879B, offset: 0x879B, size: 0x8, addend: 0x0, symName: __ZNKSt3__113basic_ostreamIcNS_11char_traitsIcEEE6sentrycvbB7v160006Ev, symObjAddr: 0xDCC, symBinAddr: 0x10000247C, symSize: 0x1C }
  - { offsetInCU: 0x87BF, offset: 0x87BF, size: 0x8, addend: 0x0, symName: __ZNSt3__119ostreambuf_iteratorIcNS_11char_traitsIcEEEC1B7v160006ERNS_13basic_ostreamIcS2_EE, symObjAddr: 0x1030, symBinAddr: 0x1000026E0, symSize: 0x34 }
  - { offsetInCU: 0x87F6, offset: 0x87F6, size: 0x8, addend: 0x0, symName: __ZNKSt3__18ios_base5flagsB7v160006Ev, symObjAddr: 0x1064, symBinAddr: 0x100002714, symSize: 0x18 }
  - { offsetInCU: 0x881D, offset: 0x881D, size: 0x8, addend: 0x0, symName: __ZNKSt3__19basic_iosIcNS_11char_traitsIcEEE4fillB7v160006Ev, symObjAddr: 0x107C, symBinAddr: 0x10000272C, symSize: 0x64 }
  - { offsetInCU: 0x8844, offset: 0x8844, size: 0x8, addend: 0x0, symName: __ZNKSt3__119ostreambuf_iteratorIcNS_11char_traitsIcEEE6failedB7v160006Ev, symObjAddr: 0x10E0, symBinAddr: 0x100002790, symSize: 0x24 }
  - { offsetInCU: 0x8868, offset: 0x8868, size: 0x8, addend: 0x0, symName: __ZNSt3__19basic_iosIcNS_11char_traitsIcEEE8setstateB7v160006Ej, symObjAddr: 0x1104, symBinAddr: 0x1000027B4, symSize: 0x2C }
  - { offsetInCU: 0x889C, offset: 0x889C, size: 0x8, addend: 0x0, symName: __ZNKSt3__18ios_base5widthB7v160006Ev, symObjAddr: 0x1130, symBinAddr: 0x1000027E0, symSize: 0x18 }
  - { offsetInCU: 0x88C2, offset: 0x88C2, size: 0x8, addend: 0x0, symName: __ZNSt3__115basic_streambufIcNS_11char_traitsIcEEE5sputnB7v160006EPKcl, symObjAddr: 0x1148, symBinAddr: 0x1000027F8, symSize: 0x3C }
  - { offsetInCU: 0x8902, offset: 0x8902, size: 0x8, addend: 0x0, symName: __ZNSt3__112basic_stringIcNS_11char_traitsIcEENS_9allocatorIcEEEC1B7v160006Emc, symObjAddr: 0x1184, symBinAddr: 0x100002834, symSize: 0x3C }
  - { offsetInCU: 0x8949, offset: 0x8949, size: 0x8, addend: 0x0, symName: __ZNSt3__18ios_base5widthB7v160006El, symObjAddr: 0x11C0, symBinAddr: 0x100002870, symSize: 0x2C }
  - { offsetInCU: 0x898D, offset: 0x898D, size: 0x8, addend: 0x0, symName: __ZNSt3__112basic_stringIcNS_11char_traitsIcEENS_9allocatorIcEEEC2B7v160006Emc, symObjAddr: 0x11EC, symBinAddr: 0x10000289C, symSize: 0x54 }
  - { offsetInCU: 0x89D8, offset: 0x89D8, size: 0x8, addend: 0x0, symName: __ZNSt3__117__compressed_pairINS_12basic_stringIcNS_11char_traitsIcEENS_9allocatorIcEEE5__repES5_EC1B7v160006INS_18__default_init_tagESA_EEOT_OT0_, symObjAddr: 0x1240, symBinAddr: 0x1000028F0, symSize: 0x3C }
  - { offsetInCU: 0x8A2E, offset: 0x8A2E, size: 0x8, addend: 0x0, symName: __ZNSt3__117__compressed_pairINS_12basic_stringIcNS_11char_traitsIcEENS_9allocatorIcEEE5__repES5_EC2B7v160006INS_18__default_init_tagESA_EEOT_OT0_, symObjAddr: 0x128C, symBinAddr: 0x10000293C, symSize: 0x3C }
  - { offsetInCU: 0x8A85, offset: 0x8A85, size: 0x8, addend: 0x0, symName: __ZNSt3__122__compressed_pair_elemINS_12basic_stringIcNS_11char_traitsIcEENS_9allocatorIcEEE5__repELi0ELb0EEC2B7v160006ENS_18__default_init_tagE, symObjAddr: 0x12C8, symBinAddr: 0x100002978, symSize: 0x14 }
  - { offsetInCU: 0x8AB8, offset: 0x8AB8, size: 0x8, addend: 0x0, symName: __ZNSt3__122__compressed_pair_elemINS_9allocatorIcEELi1ELb1EEC2B7v160006ENS_18__default_init_tagE, symObjAddr: 0x12DC, symBinAddr: 0x10000298C, symSize: 0x2C }
  - { offsetInCU: 0x8AEB, offset: 0x8AEB, size: 0x8, addend: 0x0, symName: __ZNSt3__19allocatorIcEC2B7v160006Ev, symObjAddr: 0x1308, symBinAddr: 0x1000029B8, symSize: 0x2C }
  - { offsetInCU: 0x8B14, offset: 0x8B14, size: 0x8, addend: 0x0, symName: __ZNSt3__116__non_trivial_ifILb1ENS_9allocatorIcEEEC2B7v160006Ev, symObjAddr: 0x1334, symBinAddr: 0x1000029E4, symSize: 0x14 }
  - { offsetInCU: 0x8B3C, offset: 0x8B3C, size: 0x8, addend: 0x0, symName: __ZNSt3__119ostreambuf_iteratorIcNS_11char_traitsIcEEEC2B7v160006ERNS_13basic_ostreamIcS2_EE, symObjAddr: 0x1348, symBinAddr: 0x1000029F8, symSize: 0x68 }
  - { offsetInCU: 0x8B73, offset: 0x8B73, size: 0x8, addend: 0x0, symName: __ZNKSt3__19basic_iosIcNS_11char_traitsIcEEE5rdbufB7v160006Ev, symObjAddr: 0x13B0, symBinAddr: 0x100002A60, symSize: 0x24 }
  - { offsetInCU: 0x8B9A, offset: 0x8B9A, size: 0x8, addend: 0x0, symName: __ZNKSt3__18ios_base5rdbufB7v160006Ev, symObjAddr: 0x13D4, symBinAddr: 0x100002A84, symSize: 0x18 }
  - { offsetInCU: 0x8BBF, offset: 0x8BBF, size: 0x8, addend: 0x0, symName: __ZNSt3__111char_traitsIcE11eq_int_typeEii, symObjAddr: 0x13EC, symBinAddr: 0x100002A9C, symSize: 0x28 }
  - { offsetInCU: 0x8BF0, offset: 0x8BF0, size: 0x8, addend: 0x0, symName: __ZNSt3__111char_traitsIcE3eofEv, symObjAddr: 0x1414, symBinAddr: 0x100002AC4, symSize: 0x8 }
  - { offsetInCU: 0x8C04, offset: 0x8C04, size: 0x8, addend: 0x0, symName: __ZNKSt3__19basic_iosIcNS_11char_traitsIcEEE5widenB7v160006Ec, symObjAddr: 0x141C, symBinAddr: 0x100002ACC, symSize: 0x8C }
  - { offsetInCU: 0x8C66, offset: 0x8C66, size: 0x8, addend: 0x0, symName: __ZNKSt3__15ctypeIcE5widenB7v160006Ec, symObjAddr: 0x14D4, symBinAddr: 0x100002B84, symSize: 0x38 }
  - { offsetInCU: 0x8C9A, offset: 0x8C9A, size: 0x8, addend: 0x0, symName: __ZNSt3__18ios_base8setstateB7v160006Ej, symObjAddr: 0x150C, symBinAddr: 0x100002BBC, symSize: 0x34 }
  - { offsetInCU: 0x8CCF, offset: 0x8CCF, size: 0x8, addend: 0x0, symName: __ZNKSt3__112basic_stringIcNS_11char_traitsIcEENS_9allocatorIcEEE13__get_pointerB7v160006Ev, symObjAddr: 0x1554, symBinAddr: 0x100002C04, symSize: 0x54 }
  - { offsetInCU: 0x8CF3, offset: 0x8CF3, size: 0x8, addend: 0x0, symName: __ZNKSt3__112basic_stringIcNS_11char_traitsIcEENS_9allocatorIcEEE9__is_longB7v160006Ev, symObjAddr: 0x15A8, symBinAddr: 0x100002C58, symSize: 0x74 }
  - { offsetInCU: 0x8D17, offset: 0x8D17, size: 0x8, addend: 0x0, symName: __ZNKSt3__112basic_stringIcNS_11char_traitsIcEENS_9allocatorIcEEE18__get_long_pointerB7v160006Ev, symObjAddr: 0x161C, symBinAddr: 0x100002CCC, symSize: 0x28 }
  - { offsetInCU: 0x8D3B, offset: 0x8D3B, size: 0x8, addend: 0x0, symName: __ZNKSt3__112basic_stringIcNS_11char_traitsIcEENS_9allocatorIcEEE19__get_short_pointerB7v160006Ev, symObjAddr: 0x1644, symBinAddr: 0x100002CF4, symSize: 0x28 }
  - { offsetInCU: 0x8D5F, offset: 0x8D5F, size: 0x8, addend: 0x0, symName: __ZNKSt3__117__compressed_pairINS_12basic_stringIcNS_11char_traitsIcEENS_9allocatorIcEEE5__repES5_E5firstB7v160006Ev, symObjAddr: 0x1678, symBinAddr: 0x100002D28, symSize: 0x24 }
  - { offsetInCU: 0x8D84, offset: 0x8D84, size: 0x8, addend: 0x0, symName: __ZNKSt3__122__compressed_pair_elemINS_12basic_stringIcNS_11char_traitsIcEENS_9allocatorIcEEE5__repELi0ELb0EE5__getB7v160006Ev, symObjAddr: 0x169C, symBinAddr: 0x100002D4C, symSize: 0x14 }
  - { offsetInCU: 0x8DA9, offset: 0x8DA9, size: 0x8, addend: 0x0, symName: __ZNSt3__114pointer_traitsIPKcE10pointer_toB7v160006ERS1_, symObjAddr: 0x16B0, symBinAddr: 0x100002D60, symSize: 0x14 }
  - { offsetInCU: 0x8DCB, offset: 0x8DCB, size: 0x8, addend: 0x0, symName: __ZNKSt3__112basic_stringIcNS_11char_traitsIcEENS_9allocatorIcEEE15__get_long_sizeB7v160006Ev, symObjAddr: 0x16C4, symBinAddr: 0x100002D74, symSize: 0x28 }
  - { offsetInCU: 0x8DEF, offset: 0x8DEF, size: 0x8, addend: 0x0, symName: __ZNKSt3__112basic_stringIcNS_11char_traitsIcEENS_9allocatorIcEEE16__get_short_sizeB7v160006Ev, symObjAddr: 0x16EC, symBinAddr: 0x100002D9C, symSize: 0x34 }
  - { offsetInCU: 0x8E13, offset: 0x8E13, size: 0x8, addend: 0x0, symName: __ZN16HeartRateMonitor16targetHeartRate1Ev, symObjAddr: 0x1720, symBinAddr: 0x100002DD0, symSize: 0x34 }
  - { offsetInCU: 0x8E37, offset: 0x8E37, size: 0x8, addend: 0x0, symName: __ZN16HeartRateMonitor16targetHeartRate2Ev, symObjAddr: 0x1754, symBinAddr: 0x100002E04, symSize: 0x38 }
  - { offsetInCU: 0x8E5C, offset: 0x8E5C, size: 0x8, addend: 0x0, symName: __ZN16HeartRateMonitorD2Ev, symObjAddr: 0x178C, symBinAddr: 0x100002E3C, symSize: 0x68 }
  - { offsetInCU: 0x8E86, offset: 0x8E86, size: 0x8, addend: 0x0, symName: __ZNSt3__112basic_stringIcNS_11char_traitsIcEENS_9allocatorIcEEEC2B7v160006Ev, symObjAddr: 0x17F4, symBinAddr: 0x100002EA4, symSize: 0x44 }
  - { offsetInCU: 0x8EAE, offset: 0x8EAE, size: 0x8, addend: 0x0, symName: __ZNSt3__112basic_stringIcNS_11char_traitsIcEENS_9allocatorIcEEE14__default_initB7v160006Ev, symObjAddr: 0x1838, symBinAddr: 0x100002EE8, symSize: 0xB0 }
  - { offsetInCU: 0x8EFF, offset: 0x8EFF, size: 0x8, addend: 0x0, symName: __ZNSt3__117__compressed_pairINS_12basic_stringIcNS_11char_traitsIcEENS_9allocatorIcEEE5__repES5_E5firstB7v160006Ev, symObjAddr: 0x18E8, symBinAddr: 0x100002F98, symSize: 0x24 }
  - { offsetInCU: 0x8F24, offset: 0x8F24, size: 0x8, addend: 0x0, symName: __ZNSt3__112basic_stringIcNS_11char_traitsIcEENS_9allocatorIcEEE11__recommendB7v160006Em, symObjAddr: 0x190C, symBinAddr: 0x100002FBC, symSize: 0x9C }
  - { offsetInCU: 0x8F57, offset: 0x8F57, size: 0x8, addend: 0x0, symName: __ZNSt3__116allocator_traitsINS_9allocatorIcEEE8allocateB7v160006ERS2_m, symObjAddr: 0x19A8, symBinAddr: 0x100003058, symSize: 0x2C }
  - { offsetInCU: 0x8F89, offset: 0x8F89, size: 0x8, addend: 0x0, symName: __ZNSt3__112basic_stringIcNS_11char_traitsIcEENS_9allocatorIcEEE7__allocB7v160006Ev, symObjAddr: 0x19D4, symBinAddr: 0x100003084, symSize: 0x24 }
  - { offsetInCU: 0x8FAE, offset: 0x8FAE, size: 0x8, addend: 0x0, symName: __ZNSt3__112basic_stringIcNS_11char_traitsIcEENS_9allocatorIcEEE16__begin_lifetimeB7v160006EPcm, symObjAddr: 0x19F8, symBinAddr: 0x1000030A8, symSize: 0x14 }
  - { offsetInCU: 0x8FE0, offset: 0x8FE0, size: 0x8, addend: 0x0, symName: __ZNSt3__112basic_stringIcNS_11char_traitsIcEENS_9allocatorIcEEE18__set_long_pointerB7v160006EPc, symObjAddr: 0x1A0C, symBinAddr: 0x1000030BC, symSize: 0x38 }
  - { offsetInCU: 0x9013, offset: 0x9013, size: 0x8, addend: 0x0, symName: __ZNSt3__112basic_stringIcNS_11char_traitsIcEENS_9allocatorIcEEE14__set_long_capB7v160006Em, symObjAddr: 0x1A44, symBinAddr: 0x1000030F4, symSize: 0x70 }
  - { offsetInCU: 0x9046, offset: 0x9046, size: 0x8, addend: 0x0, symName: __ZNSt3__112basic_stringIcNS_11char_traitsIcEENS_9allocatorIcEEE15__set_long_sizeB7v160006Em, symObjAddr: 0x1AB4, symBinAddr: 0x100003164, symSize: 0x38 }
  - { offsetInCU: 0x907A, offset: 0x907A, size: 0x8, addend: 0x0, symName: __ZNSt3__122__compressed_pair_elemINS_12basic_stringIcNS_11char_traitsIcEENS_9allocatorIcEEE5__repELi0ELb0EE5__getB7v160006Ev, symObjAddr: 0x1AEC, symBinAddr: 0x10000319C, symSize: 0x14 }
  - { offsetInCU: 0x909F, offset: 0x909F, size: 0x8, addend: 0x0, symName: __ZNSt3__112basic_stringIcNS_11char_traitsIcEENS_9allocatorIcEEE10__align_itB7v160006ILm16EEEmm, symObjAddr: 0x1B00, symBinAddr: 0x1000031B0, symSize: 0x1C }
  - { offsetInCU: 0x90CC, offset: 0x90CC, size: 0x8, addend: 0x0, symName: __ZNSt3__19allocatorIcE8allocateB7v160006Em, symObjAddr: 0x1B1C, symBinAddr: 0x1000031CC, symSize: 0x84 }
  - { offsetInCU: 0x9109, offset: 0x9109, size: 0x8, addend: 0x0, symName: __ZNSt3__116allocator_traitsINS_9allocatorIcEEE8max_sizeB7v160006IS2_vEEmRKS2_, symObjAddr: 0x1BA0, symBinAddr: 0x100003250, symSize: 0x24 }
  - { offsetInCU: 0x9137, offset: 0x9137, size: 0x8, addend: 0x0, symName: __ZNKSt3__19allocatorIcE8max_sizeB7v160006Ev, symObjAddr: 0x1C20, symBinAddr: 0x1000032D0, symSize: 0x14 }
  - { offsetInCU: 0x915B, offset: 0x915B, size: 0x8, addend: 0x0, symName: __ZNSt3__117__compressed_pairINS_12basic_stringIcNS_11char_traitsIcEENS_9allocatorIcEEE5__repES5_E6secondB7v160006Ev, symObjAddr: 0x1C58, symBinAddr: 0x100003308, symSize: 0x24 }
  - { offsetInCU: 0x9180, offset: 0x9180, size: 0x8, addend: 0x0, symName: __ZNSt3__122__compressed_pair_elemINS_9allocatorIcEELi1ELb1EE5__getB7v160006Ev, symObjAddr: 0x1C7C, symBinAddr: 0x10000332C, symSize: 0x14 }
  - { offsetInCU: 0x91A5, offset: 0x91A5, size: 0x8, addend: 0x0, symName: __ZNSt3__111char_traitsIcE6lengthEPKc, symObjAddr: 0x1C90, symBinAddr: 0x100003340, symSize: 0x48 }
  - { offsetInCU: 0x925A, offset: 0x925A, size: 0x8, addend: 0x0, symName: __ZNKSt3__113basic_istreamIcNS_11char_traitsIcEEE6sentrycvbB7v160006Ev, symObjAddr: 0x1CFC, symBinAddr: 0x1000033AC, symSize: 0x1C }
  - { offsetInCU: 0x927F, offset: 0x927F, size: 0x8, addend: 0x0, symName: __ZNSt3__112basic_stringIcNS_11char_traitsIcEENS_9allocatorIcEEE5clearB7v160006Ev, symObjAddr: 0x1D18, symBinAddr: 0x1000033C8, symSize: 0x9C }
  - { offsetInCU: 0x92A5, offset: 0x92A5, size: 0x8, addend: 0x0, symName: __ZNKSt3__112basic_stringIcNS_11char_traitsIcEENS_9allocatorIcEEE8max_sizeB7v160006Ev, symObjAddr: 0x1DB4, symBinAddr: 0x100003464, symSize: 0xAC }
  - { offsetInCU: 0x92F7, offset: 0x92F7, size: 0x8, addend: 0x0, symName: __ZNSt3__114numeric_limitsIlE3maxB7v160006Ev, symObjAddr: 0x1E60, symBinAddr: 0x100003510, symSize: 0x14 }
  - { offsetInCU: 0x930A, offset: 0x930A, size: 0x8, addend: 0x0, symName: __ZNSt3__115basic_streambufIcNS_11char_traitsIcEEE5sgetcB7v160006Ev, symObjAddr: 0x1E74, symBinAddr: 0x100003524, symSize: 0x70 }
  - { offsetInCU: 0x932F, offset: 0x932F, size: 0x8, addend: 0x0, symName: __ZNSt3__111char_traitsIcE12to_char_typeEi, symObjAddr: 0x1EE4, symBinAddr: 0x100003594, symSize: 0x18 }
  - { offsetInCU: 0x9351, offset: 0x9351, size: 0x8, addend: 0x0, symName: __ZNKSt3__15ctypeIcE2isB7v160006Ejc, symObjAddr: 0x1EFC, symBinAddr: 0x1000035AC, symSize: 0x7C }
  - { offsetInCU: 0x9393, offset: 0x9393, size: 0x8, addend: 0x0, symName: __ZNSt3__115basic_streambufIcNS_11char_traitsIcEEE6sbumpcB7v160006Ev, symObjAddr: 0x1F78, symBinAddr: 0x100003628, symSize: 0x78 }
  - { offsetInCU: 0x93B8, offset: 0x93B8, size: 0x8, addend: 0x0, symName: __ZNSt3__18ios_base18__setstate_nothrowB7v160006Ej, symObjAddr: 0x1FF0, symBinAddr: 0x1000036A0, symSize: 0x64 }
  - { offsetInCU: 0x93EB, offset: 0x93EB, size: 0x8, addend: 0x0, symName: __ZNKSt3__19basic_iosIcNS_11char_traitsIcEEE10exceptionsB7v160006Ev, symObjAddr: 0x2054, symBinAddr: 0x100003704, symSize: 0x24 }
  - { offsetInCU: 0x9410, offset: 0x9410, size: 0x8, addend: 0x0, symName: __ZNSt3__111char_traitsIcE6assignERcRKc, symObjAddr: 0x2088, symBinAddr: 0x100003738, symSize: 0x24 }
  - { offsetInCU: 0x9440, offset: 0x9440, size: 0x8, addend: 0x0, symName: __ZNSt3__112basic_stringIcNS_11char_traitsIcEENS_9allocatorIcEEE18__get_long_pointerB7v160006Ev, symObjAddr: 0x20AC, symBinAddr: 0x10000375C, symSize: 0x28 }
  - { offsetInCU: 0x9464, offset: 0x9464, size: 0x8, addend: 0x0, symName: __ZNSt3__112basic_stringIcNS_11char_traitsIcEENS_9allocatorIcEEE19__get_short_pointerB7v160006Ev, symObjAddr: 0x20D4, symBinAddr: 0x100003784, symSize: 0x28 }
  - { offsetInCU: 0x9488, offset: 0x9488, size: 0x8, addend: 0x0, symName: __ZNSt3__112basic_stringIcNS_11char_traitsIcEENS_9allocatorIcEEE16__set_short_sizeB7v160006Em, symObjAddr: 0x20FC, symBinAddr: 0x1000037AC, symSize: 0x78 }
  - { offsetInCU: 0x94BC, offset: 0x94BC, size: 0x8, addend: 0x0, symName: __ZNSt3__114pointer_traitsIPcE10pointer_toB7v160006ERc, symObjAddr: 0x2174, symBinAddr: 0x100003824, symSize: 0x14 }
  - { offsetInCU: 0x94DE, offset: 0x94DE, size: 0x8, addend: 0x0, symName: __ZNKSt3__112basic_stringIcNS_11char_traitsIcEENS_9allocatorIcEEE7__allocB7v160006Ev, symObjAddr: 0x2188, symBinAddr: 0x100003838, symSize: 0x24 }
  - { offsetInCU: 0x9503, offset: 0x9503, size: 0x8, addend: 0x0, symName: __ZNSt3__114numeric_limitsImE3maxB7v160006Ev, symObjAddr: 0x21AC, symBinAddr: 0x10000385C, symSize: 0x14 }
  - { offsetInCU: 0x9516, offset: 0x9516, size: 0x8, addend: 0x0, symName: __ZNKSt3__117__compressed_pairINS_12basic_stringIcNS_11char_traitsIcEENS_9allocatorIcEEE5__repES5_E6secondB7v160006Ev, symObjAddr: 0x21C0, symBinAddr: 0x100003870, symSize: 0x24 }
  - { offsetInCU: 0x953B, offset: 0x953B, size: 0x8, addend: 0x0, symName: __ZNKSt3__122__compressed_pair_elemINS_9allocatorIcEELi1ELb1EE5__getB7v160006Ev, symObjAddr: 0x21E4, symBinAddr: 0x100003894, symSize: 0x14 }
  - { offsetInCU: 0x9560, offset: 0x9560, size: 0x8, addend: 0x0, symName: __ZNSt3__123__libcpp_numeric_limitsImLb1EE3maxB7v160006Ev, symObjAddr: 0x21F8, symBinAddr: 0x1000038A8, symSize: 0x8 }
  - { offsetInCU: 0x9574, offset: 0x9574, size: 0x8, addend: 0x0, symName: __ZNSt3__123__libcpp_numeric_limitsIlLb1EE3maxB7v160006Ev, symObjAddr: 0x2200, symBinAddr: 0x1000038B0, symSize: 0x8 }
  - { offsetInCU: 0x9588, offset: 0x9588, size: 0x8, addend: 0x0, symName: __ZNSt3__111char_traitsIcE11to_int_typeEc, symObjAddr: 0x2208, symBinAddr: 0x1000038B8, symSize: 0x14 }
  - { offsetInCU: 0x95AA, offset: 0x95AA, size: 0x8, addend: 0x0, symName: __Z7isasciii, symObjAddr: 0x221C, symBinAddr: 0x1000038CC, symSize: 0x24 }
  - { offsetInCU: 0x95D7, offset: 0x95D7, size: 0x8, addend: 0x0, symName: __ZNKSt3__18ios_base10exceptionsB7v160006Ev, symObjAddr: 0x2240, symBinAddr: 0x1000038F0, symSize: 0x18 }
...
