---
triple:          'arm64-apple-darwin'
binary-path:     '/Users/spoofch/Documents/Lab_C++/Lab6/3'
relocations:
  - { offsetInCU: 0x2DC1, offset: 0x2DC1, size: 0x8, addend: 0x0, symName: __ZNSt3__124__put_character_sequenceB7v160006IcNS_11char_traitsIcEEEERNS_13basic_ostreamIT_T0_EES7_PKS4_m, symObjAddr: 0x2E0, symBinAddr: 0x100003098, symSize: 0x1F4 }
  - { offsetInCU: 0x4904, offset: 0x4904, size: 0x8, addend: 0x0, symName: __ZNSt3__1lsB7v160006INS_11char_traitsIcEEEERNS_13basic_ostreamIcT_EES6_PKc, symObjAddr: 0x11C, symBinAddr: 0x100002ED4, symSize: 0x48 }
  - { offsetInCU: 0x4B4B, offset: 0x4B4B, size: 0x8, addend: 0x0, symName: __ZNSt3__14endlB7v160006IcNS_11char_traitsIcEEEERNS_13basic_ostreamIT_T0_EES7_, symObjAddr: 0x280, symBinAddr: 0x100003038, symSize: 0x58 }
  - { offsetInCU: 0x4B8B, offset: 0x4B8B, size: 0x8, addend: 0x0, symName: __ZNSt3__116__pad_and_outputB7v160006IcNS_11char_traitsIcEEEENS_19ostreambuf_iteratorIT_T0_EES6_PKS4_S8_S8_RNS_8ios_baseES4_, symObjAddr: 0x538, symBinAddr: 0x1000032F0, symSize: 0x248 }
  - { offsetInCU: 0x4C5A, offset: 0x4C5A, size: 0x8, addend: 0x0, symName: __ZNSt3__119__debug_db_insert_cB7v160006INS_12basic_stringIcNS_11char_traitsIcEENS_9allocatorIcEEEEEEvPT_, symObjAddr: 0xA00, symBinAddr: 0x1000037B8, symSize: 0x10 }
  - { offsetInCU: 0x4C8B, offset: 0x4C8B, size: 0x8, addend: 0x0, symName: __ZNSt3__112__to_addressB7v160006IKcEEPT_S3_, symObjAddr: 0xACC, symBinAddr: 0x100003884, symSize: 0x14 }
  - { offsetInCU: 0x4CC0, offset: 0x4CC0, size: 0x8, addend: 0x0, symName: __ZNSt3__130__libcpp_is_constant_evaluatedB7v160006Ev, symObjAddr: 0xBF8, symBinAddr: 0x1000039B0, symSize: 0xC }
  - { offsetInCU: 0x4D10, offset: 0x4D10, size: 0x8, addend: 0x0, symName: __ZNSt3__19use_facetB7v160006INS_5ctypeIcEEEERKT_RKNS_6localeE, symObjAddr: 0xDB0, symBinAddr: 0x100003B68, symSize: 0x2C }
  - { offsetInCU: 0x51DF, offset: 0x51DF, size: 0x8, addend: 0x0, symName: __ZNSt3__118__constexpr_strlenB7v160006EPKc, symObjAddr: 0xE48, symBinAddr: 0x100003C00, symSize: 0x24 }
  - { offsetInCU: 0x7677, offset: 0x7677, size: 0x8, addend: 0x0, symName: _main, symObjAddr: 0x0, symBinAddr: 0x100002DB8, symSize: 0x11C }
  - { offsetInCU: 0x76AD, offset: 0x76AD, size: 0x8, addend: 0x0, symName: __ZNKSt3__19basic_iosIcNS_11char_traitsIcEEEntB7v160006Ev, symObjAddr: 0x164, symBinAddr: 0x100002F1C, symSize: 0x28 }
  - { offsetInCU: 0x76D1, offset: 0x76D1, size: 0x8, addend: 0x0, symName: __ZNSt3__19basic_iosIcNS_11char_traitsIcEEE5clearB7v160006Ej, symObjAddr: 0x18C, symBinAddr: 0x100002F44, symSize: 0x2C }
  - { offsetInCU: 0x7704, offset: 0x7704, size: 0x8, addend: 0x0, symName: __ZNSt3__114numeric_limitsIlE3maxB7v160006Ev, symObjAddr: 0x1B8, symBinAddr: 0x100002F70, symSize: 0x14 }
  - { offsetInCU: 0x7717, offset: 0x7717, size: 0x8, addend: 0x0, symName: __Z7mysteryii, symObjAddr: 0x1CC, symBinAddr: 0x100002F84, symSize: 0x88 }
  - { offsetInCU: 0x7751, offset: 0x7751, size: 0x8, addend: 0x0, symName: __ZNSt3__113basic_ostreamIcNS_11char_traitsIcEEElsB7v160006EPFRS3_S4_E, symObjAddr: 0x254, symBinAddr: 0x10000300C, symSize: 0x2C }
  - { offsetInCU: 0x7783, offset: 0x7783, size: 0x8, addend: 0x0, symName: __ZNSt3__123__libcpp_numeric_limitsIlLb1EE3maxB7v160006Ev, symObjAddr: 0x2D8, symBinAddr: 0x100003090, symSize: 0x8 }
  - { offsetInCU: 0x7796, offset: 0x7796, size: 0x8, addend: 0x0, symName: __ZNSt3__111char_traitsIcE6lengthEPKc, symObjAddr: 0x4D4, symBinAddr: 0x10000328C, symSize: 0x48 }
  - { offsetInCU: 0x77D6, offset: 0x77D6, size: 0x8, addend: 0x0, symName: __ZNKSt3__113basic_ostreamIcNS_11char_traitsIcEEE6sentrycvbB7v160006Ev, symObjAddr: 0x51C, symBinAddr: 0x1000032D4, symSize: 0x1C }
  - { offsetInCU: 0x77FA, offset: 0x77FA, size: 0x8, addend: 0x0, symName: __ZNSt3__119ostreambuf_iteratorIcNS_11char_traitsIcEEEC1B7v160006ERNS_13basic_ostreamIcS2_EE, symObjAddr: 0x780, symBinAddr: 0x100003538, symSize: 0x34 }
  - { offsetInCU: 0x7830, offset: 0x7830, size: 0x8, addend: 0x0, symName: __ZNKSt3__18ios_base5flagsB7v160006Ev, symObjAddr: 0x7B4, symBinAddr: 0x10000356C, symSize: 0x18 }
  - { offsetInCU: 0x7857, offset: 0x7857, size: 0x8, addend: 0x0, symName: __ZNKSt3__19basic_iosIcNS_11char_traitsIcEEE4fillB7v160006Ev, symObjAddr: 0x7CC, symBinAddr: 0x100003584, symSize: 0x64 }
  - { offsetInCU: 0x787C, offset: 0x787C, size: 0x8, addend: 0x0, symName: __ZNKSt3__119ostreambuf_iteratorIcNS_11char_traitsIcEEE6failedB7v160006Ev, symObjAddr: 0x830, symBinAddr: 0x1000035E8, symSize: 0x24 }
  - { offsetInCU: 0x78A0, offset: 0x78A0, size: 0x8, addend: 0x0, symName: __ZNSt3__19basic_iosIcNS_11char_traitsIcEEE8setstateB7v160006Ej, symObjAddr: 0x854, symBinAddr: 0x10000360C, symSize: 0x2C }
  - { offsetInCU: 0x78D3, offset: 0x78D3, size: 0x8, addend: 0x0, symName: __ZNKSt3__18ios_base5widthB7v160006Ev, symObjAddr: 0x88C, symBinAddr: 0x100003644, symSize: 0x18 }
  - { offsetInCU: 0x78F9, offset: 0x78F9, size: 0x8, addend: 0x0, symName: __ZNSt3__115basic_streambufIcNS_11char_traitsIcEEE5sputnB7v160006EPKcl, symObjAddr: 0x8A4, symBinAddr: 0x10000365C, symSize: 0x3C }
  - { offsetInCU: 0x7939, offset: 0x7939, size: 0x8, addend: 0x0, symName: __ZNSt3__112basic_stringIcNS_11char_traitsIcEENS_9allocatorIcEEEC1B7v160006Emc, symObjAddr: 0x8E0, symBinAddr: 0x100003698, symSize: 0x3C }
  - { offsetInCU: 0x797F, offset: 0x797F, size: 0x8, addend: 0x0, symName: __ZNKSt3__112basic_stringIcNS_11char_traitsIcEENS_9allocatorIcEEE4dataB7v160006Ev, symObjAddr: 0x91C, symBinAddr: 0x1000036D4, symSize: 0x28 }
  - { offsetInCU: 0x79A3, offset: 0x79A3, size: 0x8, addend: 0x0, symName: __ZNSt3__18ios_base5widthB7v160006El, symObjAddr: 0x944, symBinAddr: 0x1000036FC, symSize: 0x2C }
  - { offsetInCU: 0x79E7, offset: 0x79E7, size: 0x8, addend: 0x0, symName: __ZNSt3__112basic_stringIcNS_11char_traitsIcEENS_9allocatorIcEEEC2B7v160006Emc, symObjAddr: 0x970, symBinAddr: 0x100003728, symSize: 0x54 }
  - { offsetInCU: 0x7A32, offset: 0x7A32, size: 0x8, addend: 0x0, symName: __ZNSt3__117__compressed_pairINS_12basic_stringIcNS_11char_traitsIcEENS_9allocatorIcEEE5__repES5_EC1B7v160006INS_18__default_init_tagESA_EEOT_OT0_, symObjAddr: 0x9C4, symBinAddr: 0x10000377C, symSize: 0x3C }
  - { offsetInCU: 0x7A88, offset: 0x7A88, size: 0x8, addend: 0x0, symName: __ZNSt3__117__compressed_pairINS_12basic_stringIcNS_11char_traitsIcEENS_9allocatorIcEEE5__repES5_EC2B7v160006INS_18__default_init_tagESA_EEOT_OT0_, symObjAddr: 0xA10, symBinAddr: 0x1000037C8, symSize: 0x3C }
  - { offsetInCU: 0x7ADF, offset: 0x7ADF, size: 0x8, addend: 0x0, symName: __ZNSt3__122__compressed_pair_elemINS_12basic_stringIcNS_11char_traitsIcEENS_9allocatorIcEEE5__repELi0ELb0EEC2B7v160006ENS_18__default_init_tagE, symObjAddr: 0xA4C, symBinAddr: 0x100003804, symSize: 0x14 }
  - { offsetInCU: 0x7B12, offset: 0x7B12, size: 0x8, addend: 0x0, symName: __ZNSt3__122__compressed_pair_elemINS_9allocatorIcEELi1ELb1EEC2B7v160006ENS_18__default_init_tagE, symObjAddr: 0xA60, symBinAddr: 0x100003818, symSize: 0x2C }
  - { offsetInCU: 0x7B45, offset: 0x7B45, size: 0x8, addend: 0x0, symName: __ZNSt3__19allocatorIcEC2B7v160006Ev, symObjAddr: 0xA8C, symBinAddr: 0x100003844, symSize: 0x2C }
  - { offsetInCU: 0x7B6E, offset: 0x7B6E, size: 0x8, addend: 0x0, symName: __ZNSt3__116__non_trivial_ifILb1ENS_9allocatorIcEEEC2B7v160006Ev, symObjAddr: 0xAB8, symBinAddr: 0x100003870, symSize: 0x14 }
  - { offsetInCU: 0x7B96, offset: 0x7B96, size: 0x8, addend: 0x0, symName: __ZNKSt3__112basic_stringIcNS_11char_traitsIcEENS_9allocatorIcEEE13__get_pointerB7v160006Ev, symObjAddr: 0xAE0, symBinAddr: 0x100003898, symSize: 0x54 }
  - { offsetInCU: 0x7BBA, offset: 0x7BBA, size: 0x8, addend: 0x0, symName: __ZNKSt3__112basic_stringIcNS_11char_traitsIcEENS_9allocatorIcEEE9__is_longB7v160006Ev, symObjAddr: 0xB34, symBinAddr: 0x1000038EC, symSize: 0x74 }
  - { offsetInCU: 0x7BDE, offset: 0x7BDE, size: 0x8, addend: 0x0, symName: __ZNKSt3__112basic_stringIcNS_11char_traitsIcEENS_9allocatorIcEEE18__get_long_pointerB7v160006Ev, symObjAddr: 0xBA8, symBinAddr: 0x100003960, symSize: 0x28 }
  - { offsetInCU: 0x7C02, offset: 0x7C02, size: 0x8, addend: 0x0, symName: __ZNKSt3__112basic_stringIcNS_11char_traitsIcEENS_9allocatorIcEEE19__get_short_pointerB7v160006Ev, symObjAddr: 0xBD0, symBinAddr: 0x100003988, symSize: 0x28 }
  - { offsetInCU: 0x7C26, offset: 0x7C26, size: 0x8, addend: 0x0, symName: __ZNKSt3__117__compressed_pairINS_12basic_stringIcNS_11char_traitsIcEENS_9allocatorIcEEE5__repES5_E5firstB7v160006Ev, symObjAddr: 0xC04, symBinAddr: 0x1000039BC, symSize: 0x24 }
  - { offsetInCU: 0x7C4A, offset: 0x7C4A, size: 0x8, addend: 0x0, symName: __ZNKSt3__122__compressed_pair_elemINS_12basic_stringIcNS_11char_traitsIcEENS_9allocatorIcEEE5__repELi0ELb0EE5__getB7v160006Ev, symObjAddr: 0xC28, symBinAddr: 0x1000039E0, symSize: 0x14 }
  - { offsetInCU: 0x7C6F, offset: 0x7C6F, size: 0x8, addend: 0x0, symName: __ZNSt3__114pointer_traitsIPKcE10pointer_toB7v160006ERS1_, symObjAddr: 0xC3C, symBinAddr: 0x1000039F4, symSize: 0x14 }
  - { offsetInCU: 0x7C91, offset: 0x7C91, size: 0x8, addend: 0x0, symName: __ZNSt3__119ostreambuf_iteratorIcNS_11char_traitsIcEEEC2B7v160006ERNS_13basic_ostreamIcS2_EE, symObjAddr: 0xC50, symBinAddr: 0x100003A08, symSize: 0x68 }
  - { offsetInCU: 0x7CC8, offset: 0x7CC8, size: 0x8, addend: 0x0, symName: __ZNKSt3__19basic_iosIcNS_11char_traitsIcEEE5rdbufB7v160006Ev, symObjAddr: 0xCB8, symBinAddr: 0x100003A70, symSize: 0x24 }
  - { offsetInCU: 0x7CED, offset: 0x7CED, size: 0x8, addend: 0x0, symName: __ZNKSt3__18ios_base5rdbufB7v160006Ev, symObjAddr: 0xCDC, symBinAddr: 0x100003A94, symSize: 0x18 }
  - { offsetInCU: 0x7D12, offset: 0x7D12, size: 0x8, addend: 0x0, symName: __ZNSt3__111char_traitsIcE11eq_int_typeEii, symObjAddr: 0xCF4, symBinAddr: 0x100003AAC, symSize: 0x28 }
  - { offsetInCU: 0x7D42, offset: 0x7D42, size: 0x8, addend: 0x0, symName: __ZNSt3__111char_traitsIcE3eofEv, symObjAddr: 0xD1C, symBinAddr: 0x100003AD4, symSize: 0x8 }
  - { offsetInCU: 0x7D56, offset: 0x7D56, size: 0x8, addend: 0x0, symName: __ZNKSt3__19basic_iosIcNS_11char_traitsIcEEE5widenB7v160006Ec, symObjAddr: 0xD24, symBinAddr: 0x100003ADC, symSize: 0x8C }
  - { offsetInCU: 0x7DC1, offset: 0x7DC1, size: 0x8, addend: 0x0, symName: __ZNKSt3__15ctypeIcE5widenB7v160006Ec, symObjAddr: 0xDDC, symBinAddr: 0x100003B94, symSize: 0x38 }
  - { offsetInCU: 0x7DF5, offset: 0x7DF5, size: 0x8, addend: 0x0, symName: __ZNSt3__18ios_base8setstateB7v160006Ej, symObjAddr: 0xE14, symBinAddr: 0x100003BCC, symSize: 0x34 }
  - { offsetInCU: 0x7E29, offset: 0x7E29, size: 0x8, addend: 0x0, symName: __ZNKSt3__19basic_iosIcNS_11char_traitsIcEEE4failB7v160006Ev, symObjAddr: 0xE6C, symBinAddr: 0x100003C24, symSize: 0x28 }
  - { offsetInCU: 0x7E4D, offset: 0x7E4D, size: 0x8, addend: 0x0, symName: __ZNKSt3__18ios_base4failB7v160006Ev, symObjAddr: 0xE94, symBinAddr: 0x100003C4C, symSize: 0x28 }
...
