---
triple:          'arm64-apple-darwin'
binary-path:     '/Users/spoofch/Documents/Lab_C++/Lab4/1_1'
relocations:
  - { offsetInCU: 0x49DD, offset: 0x49DD, size: 0x8, addend: 0x0, symName: __ZNSt3__124__put_character_sequenceB7v160006IcNS_11char_traitsIcEEEERNS_13basic_ostreamIT_T0_EES7_PKS4_m, symObjAddr: 0x1580, symBinAddr: 0x10000430C, symSize: 0x1EC }
  - { offsetInCU: 0x68B3, offset: 0x68B3, size: 0x8, addend: 0x0, symName: __ZNSt3__1lsB7v160006INS_11char_traitsIcEEEERNS_13basic_ostreamIcT_EES6_PKc, symObjAddr: 0x29C, symBinAddr: 0x100003028, symSize: 0x48 }
  - { offsetInCU: 0x68F9, offset: 0x68F9, size: 0x8, addend: 0x0, symName: __ZNSt3__14endlB7v160006IcNS_11char_traitsIcEEEERNS_13basic_ostreamIT_T0_EES7_, symObjAddr: 0x310, symBinAddr: 0x10000309C, symSize: 0x58 }
  - { offsetInCU: 0x6939, offset: 0x6939, size: 0x8, addend: 0x0, symName: __ZNSt3__1neB7v160006IPiEEbRKNS_11__wrap_iterIT_EES6_, symObjAddr: 0xA14, symBinAddr: 0x1000037A0, symSize: 0x34 }
  - { offsetInCU: 0x697C, offset: 0x697C, size: 0x8, addend: 0x0, symName: __ZNSt3__1eqB7v160006IPiEEbRKNS_11__wrap_iterIT_EES6_, symObjAddr: 0xAAC, symBinAddr: 0x100003838, symSize: 0x48 }
  - { offsetInCU: 0x69BF, offset: 0x69BF, size: 0x8, addend: 0x0, symName: __ZNSt3__1miB7v160006IPKiPiEEDTmicldtfp_4baseEcldtfp0_4baseEERKNS_11__wrap_iterIT_EERKNS5_IT0_EE, symObjAddr: 0xBC8, symBinAddr: 0x100003954, symSize: 0x48 }
  - { offsetInCU: 0x6A0B, offset: 0x6A0B, size: 0x8, addend: 0x0, symName: __ZNSt3__1neB7v160006IPKiEEbRKNS_11__wrap_iterIT_EES7_, symObjAddr: 0xC10, symBinAddr: 0x10000399C, symSize: 0x34 }
  - { offsetInCU: 0x6A4E, offset: 0x6A4E, size: 0x8, addend: 0x0, symName: __ZNSt3__14moveB7v160006IPiS1_EET0_T_S3_S2_, symObjAddr: 0xCA4, symBinAddr: 0x100003A30, symSize: 0x40 }
  - { offsetInCU: 0x6AA8, offset: 0x6AA8, size: 0x8, addend: 0x0, symName: __ZNSt3__1miB7v160006IPKiS2_EEDTmicldtfp_4baseEcldtfp0_4baseEERKNS_11__wrap_iterIT_EERKNS4_IT0_EE, symObjAddr: 0xCE4, symBinAddr: 0x100003A70, symSize: 0x48 }
  - { offsetInCU: 0x6AF4, offset: 0x6AF4, size: 0x8, addend: 0x0, symName: __ZNSt3__1eqB7v160006IPKiEEbRKNS_11__wrap_iterIT_EES7_, symObjAddr: 0xD58, symBinAddr: 0x100003AE4, symSize: 0x48 }
  - { offsetInCU: 0x6B37, offset: 0x6B37, size: 0x8, addend: 0x0, symName: __ZNSt3__112__to_addressB7v160006IiEEPT_S2_, symObjAddr: 0xF40, symBinAddr: 0x100003CCC, symSize: 0x14 }
  - { offsetInCU: 0x6B6C, offset: 0x6B6C, size: 0x8, addend: 0x0, symName: __ZNSt3__16__moveB7v160006INS_17_ClassicAlgPolicyEPiS2_S2_EENS_4pairIT0_T2_EES4_T1_S5_, symObjAddr: 0x1088, symBinAddr: 0x100003E14, symSize: 0x44 }
  - { offsetInCU: 0x6BD8, offset: 0x6BD8, size: 0x8, addend: 0x0, symName: __ZNSt3__123__dispatch_copy_or_moveB7v160006INS_17_ClassicAlgPolicyENS_11__move_loopIS1_EENS_14__move_trivialEPiS5_S5_EENS_4pairIT2_T4_EES7_T3_S8_, symObjAddr: 0x10CC, symBinAddr: 0x100003E58, symSize: 0x44 }
  - { offsetInCU: 0x6C56, offset: 0x6C56, size: 0x8, addend: 0x0, symName: __ZNSt3__121__unwrap_and_dispatchB7v160006INS_10__overloadINS_11__move_loopINS_17_ClassicAlgPolicyEEENS_14__move_trivialEEEPiS7_S7_Li0EEENS_4pairIT0_T2_EES9_T1_SA_, symObjAddr: 0x1110, symBinAddr: 0x100003E9C, symSize: 0xB4 }
  - { offsetInCU: 0x6CE4, offset: 0x6CE4, size: 0x8, addend: 0x0, symName: __ZNSt3__114__unwrap_rangeB7v160006IPiS1_EENS_4pairIT0_S3_EET_S5_, symObjAddr: 0x11C4, symBinAddr: 0x100003F50, symSize: 0x60 }
  - { offsetInCU: 0x6EA8, offset: 0x6EA8, size: 0x8, addend: 0x0, symName: __ZNSt3__113__unwrap_iterB7v160006IPiNS_18__unwrap_iter_implIS1_Lb1EEELi0EEEDTclsrT0_8__unwrapclsr3stdE7declvalIT_EEEES5_, symObjAddr: 0x126C, symBinAddr: 0x100003FF8, symSize: 0x24 }
  - { offsetInCU: 0x6EEC, offset: 0x6EEC, size: 0x8, addend: 0x0, symName: __ZNSt3__19make_pairB7v160006IPiS1_EENS_4pairINS_18__unwrap_ref_decayIT_E4typeENS3_IT0_E4typeEEEOS4_OS7_, symObjAddr: 0x1290, symBinAddr: 0x10000401C, symSize: 0x38 }
  - { offsetInCU: 0x6F3B, offset: 0x6F3B, size: 0x8, addend: 0x0, symName: __ZNSt3__114__rewrap_rangeB7v160006IPiS1_EET_S2_T0_, symObjAddr: 0x12C8, symBinAddr: 0x100004054, symSize: 0x2C }
  - { offsetInCU: 0x6F87, offset: 0x6F87, size: 0x8, addend: 0x0, symName: __ZNSt3__113__rewrap_iterB7v160006IPiS1_NS_18__unwrap_iter_implIS1_Lb1EEEEET_S4_T0_, symObjAddr: 0x12F4, symBinAddr: 0x100004080, symSize: 0x3C }
  - { offsetInCU: 0x6FDC, offset: 0x6FDC, size: 0x8, addend: 0x0, symName: __ZNSt3__119__copy_trivial_implB7v160006IiiEENS_4pairIPT_PT0_EES3_S3_S5_, symObjAddr: 0x1330, symBinAddr: 0x1000040BC, symSize: 0x84 }
  - { offsetInCU: 0x7044, offset: 0x7044, size: 0x8, addend: 0x0, symName: __ZNSt3__19make_pairB7v160006IRPiS1_EENS_4pairINS_18__unwrap_ref_decayIT_E4typeENS4_IT0_E4typeEEEOS5_OS8_, symObjAddr: 0x13B4, symBinAddr: 0x100004140, symSize: 0x38 }
  - { offsetInCU: 0x70E6, offset: 0x70E6, size: 0x8, addend: 0x0, symName: __ZNSt3__116__pad_and_outputB7v160006IcNS_11char_traitsIcEEEENS_19ostreambuf_iteratorIT_T0_EES6_PKS4_S8_S8_RNS_8ios_baseES4_, symObjAddr: 0x17BC, symBinAddr: 0x100004548, symSize: 0x240 }
  - { offsetInCU: 0x71B5, offset: 0x71B5, size: 0x8, addend: 0x0, symName: __ZNSt3__119__debug_db_insert_cB7v160006INS_12basic_stringIcNS_11char_traitsIcEENS_9allocatorIcEEEEEEvPT_, symObjAddr: 0x1C70, symBinAddr: 0x1000049FC, symSize: 0x10 }
  - { offsetInCU: 0x71E6, offset: 0x71E6, size: 0x8, addend: 0x0, symName: __ZNSt3__112__to_addressB7v160006IKcEEPT_S3_, symObjAddr: 0x1D3C, symBinAddr: 0x100004AC8, symSize: 0x14 }
  - { offsetInCU: 0x724E, offset: 0x724E, size: 0x8, addend: 0x0, symName: __ZNSt3__19use_facetB7v160006INS_5ctypeIcEEEERKT_RKNS_6localeE, symObjAddr: 0x1FBC, symBinAddr: 0x100004D48, symSize: 0x2C }
  - { offsetInCU: 0x771D, offset: 0x771D, size: 0x8, addend: 0x0, symName: __ZNSt3__118__constexpr_strlenB7v160006EPKc, symObjAddr: 0x2054, symBinAddr: 0x100004DE0, symSize: 0x24 }
  - { offsetInCU: 0x777C, offset: 0x777C, size: 0x8, addend: 0x0, symName: __ZNSt3__16fill_nB7v160006IPimiEET_S2_T0_RKT1_, symObjAddr: 0x22B0, symBinAddr: 0x10000503C, symSize: 0x44 }
  - { offsetInCU: 0x77DF, offset: 0x77DF, size: 0x8, addend: 0x0, symName: __ZNSt3__113move_backwardB7v160006IPiS1_EET0_T_S3_S2_, symObjAddr: 0x27BC, symBinAddr: 0x100005548, symSize: 0x40 }
  - { offsetInCU: 0x7839, offset: 0x7839, size: 0x8, addend: 0x0, symName: __ZNSt3__115__move_backwardB7v160006INS_17_ClassicAlgPolicyEPiS2_S2_EENS_4pairIT0_T2_EES4_T1_S5_, symObjAddr: 0x2824, symBinAddr: 0x1000055B0, symSize: 0x44 }
  - { offsetInCU: 0x78A5, offset: 0x78A5, size: 0x8, addend: 0x0, symName: __ZNSt3__123__dispatch_copy_or_moveB7v160006INS_17_ClassicAlgPolicyENS_20__move_backward_loopIS1_EENS_23__move_backward_trivialEPiS5_S5_EENS_4pairIT2_T4_EES7_T3_S8_, symObjAddr: 0x2868, symBinAddr: 0x1000055F4, symSize: 0x44 }
  - { offsetInCU: 0x7923, offset: 0x7923, size: 0x8, addend: 0x0, symName: __ZNSt3__121__unwrap_and_dispatchB7v160006INS_10__overloadINS_20__move_backward_loopINS_17_ClassicAlgPolicyEEENS_23__move_backward_trivialEEEPiS7_S7_Li0EEENS_4pairIT0_T2_EES9_T1_SA_, symObjAddr: 0x28AC, symBinAddr: 0x100005638, symSize: 0xB4 }
  - { offsetInCU: 0x79F7, offset: 0x79F7, size: 0x8, addend: 0x0, symName: __ZNSt3__128__copy_backward_trivial_implB7v160006IiiEENS_4pairIPT_PT0_EES3_S3_S5_, symObjAddr: 0x29A8, symBinAddr: 0x100005734, symSize: 0x94 }
  - { offsetInCU: 0x7A5F, offset: 0x7A5F, size: 0x8, addend: 0x0, symName: __ZNSt3__19make_pairB7v160006IRPiS2_EENS_4pairINS_18__unwrap_ref_decayIT_E4typeENS4_IT0_E4typeEEEOS5_OS8_, symObjAddr: 0x2A3C, symBinAddr: 0x1000057C8, symSize: 0x38 }
  - { offsetInCU: 0x7AAE, offset: 0x7AAE, size: 0x8, addend: 0x0, symName: __ZNSt3__18__fill_nB7v160006IPimiEET_S2_T0_RKT1_, symObjAddr: 0x2AE4, symBinAddr: 0x100005870, symSize: 0x64 }
  - { offsetInCU: 0x7B11, offset: 0x7B11, size: 0x8, addend: 0x0, symName: __ZNSt3__121__convert_to_integralB7v160006Em, symObjAddr: 0x2B48, symBinAddr: 0x1000058D4, symSize: 0x14 }
  - { offsetInCU: 0x7B3D, offset: 0x7B3D, size: 0x8, addend: 0x0, symName: __ZNSt3__13maxB7v160006ImEERKT_S3_S3_, symObjAddr: 0x2BD8, symBinAddr: 0x100005964, symSize: 0x2C }
  - { offsetInCU: 0x7B80, offset: 0x7B80, size: 0x8, addend: 0x0, symName: __ZNSt3__13minB7v160006ImEERKT_S3_S3_, symObjAddr: 0x2C04, symBinAddr: 0x100005990, symSize: 0x2C }
  - { offsetInCU: 0x7DC4, offset: 0x7DC4, size: 0x8, addend: 0x0, symName: __ZNSt3__13minB7v160006ImNS_6__lessImmEEEERKT_S5_S5_T0_, symObjAddr: 0x2C90, symBinAddr: 0x100005A1C, symSize: 0x54 }
  - { offsetInCU: 0x7E59, offset: 0x7E59, size: 0x8, addend: 0x0, symName: __ZNSt3__120__throw_length_errorB7v160006EPKc, symObjAddr: 0x2D6C, symBinAddr: 0x100005AF8, symSize: 0x64 }
  - { offsetInCU: 0x7E81, offset: 0x7E81, size: 0x8, addend: 0x0, symName: __ZNSt3__13maxB7v160006ImNS_6__lessImmEEEERKT_S5_S5_T0_, symObjAddr: 0x2E50, symBinAddr: 0x100005BDC, symSize: 0x54 }
  - { offsetInCU: 0x7EDB, offset: 0x7EDB, size: 0x8, addend: 0x0, symName: __ZNSt3__119__allocate_at_leastB7v160006INS_9allocatorIiEEEENS_19__allocation_resultINS_16allocator_traitsIT_E7pointerEEERS5_m, symObjAddr: 0x2FB4, symBinAddr: 0x100005D40, symSize: 0x40 }
  - { offsetInCU: 0x7F1E, offset: 0x7F1E, size: 0x8, addend: 0x0, symName: __ZNSt3__117__libcpp_allocateB7v160006Emm, symObjAddr: 0x3154, symBinAddr: 0x100005EE0, symSize: 0x28 }
  - { offsetInCU: 0x7F5B, offset: 0x7F5B, size: 0x8, addend: 0x0, symName: __ZNSt3__121__libcpp_operator_newB7v160006IJmEEEPvDpT_, symObjAddr: 0x317C, symBinAddr: 0x100005F08, symSize: 0x24 }
  - { offsetInCU: 0x7F94, offset: 0x7F94, size: 0x8, addend: 0x0, symName: __ZNSt3__142__uninitialized_allocator_move_if_noexceptB7v160006INS_9allocatorIiEENS_16reverse_iteratorIPiEES5_ivEET1_RT_T0_S9_S6_, symObjAddr: 0x3388, symBinAddr: 0x100006114, symSize: 0x78 }
  - { offsetInCU: 0x8011, offset: 0x8011, size: 0x8, addend: 0x0, symName: __ZNSt3__142__uninitialized_allocator_move_if_noexceptB7v160006INS_9allocatorIiEEPiS3_ivEET1_RT_T0_S7_S4_, symObjAddr: 0x344C, symBinAddr: 0x1000061D8, symSize: 0x38 }
  - { offsetInCU: 0x808D, offset: 0x808D, size: 0x8, addend: 0x0, symName: __ZNSt3__14swapB7v160006IPiEENS_9enable_ifIXaasr21is_move_constructibleIT_EE5valuesr18is_move_assignableIS3_EE5valueEvE4typeERS3_S6_, symObjAddr: 0x3484, symBinAddr: 0x100006210, symSize: 0x3C }
  - { offsetInCU: 0x80DE, offset: 0x80DE, size: 0x8, addend: 0x0, symName: __ZNSt3__125__debug_db_invalidate_allB7v160006INS_6vectorIiNS_9allocatorIiEEEEEEvPT_, symObjAddr: 0x356C, symBinAddr: 0x1000062F8, symSize: 0x10 }
  - { offsetInCU: 0x810F, offset: 0x810F, size: 0x8, addend: 0x0, symName: __ZNSt3__14moveB7v160006INS_16reverse_iteratorIPiEES3_EET0_T_S5_S4_, symObjAddr: 0x357C, symBinAddr: 0x100006308, symSize: 0x78 }
  - { offsetInCU: 0x8169, offset: 0x8169, size: 0x8, addend: 0x0, symName: __ZNSt3__16__moveB7v160006INS_17_ClassicAlgPolicyENS_16reverse_iteratorIPiEES4_S4_EENS_4pairIT0_T2_EES6_T1_S7_, symObjAddr: 0x35F4, symBinAddr: 0x100006380, symSize: 0x64 }
  - { offsetInCU: 0x81D5, offset: 0x81D5, size: 0x8, addend: 0x0, symName: __ZNSt3__123__dispatch_copy_or_moveB7v160006INS_17_ClassicAlgPolicyENS_11__move_loopIS1_EENS_14__move_trivialENS_16reverse_iteratorIPiEES7_S7_EENS_4pairIT2_T4_EES9_T3_SA_, symObjAddr: 0x3658, symBinAddr: 0x1000063E4, symSize: 0x64 }
  - { offsetInCU: 0x8253, offset: 0x8253, size: 0x8, addend: 0x0, symName: __ZNSt3__121__unwrap_and_dispatchB7v160006INS_10__overloadINS_11__move_loopINS_17_ClassicAlgPolicyEEENS_14__move_trivialEEENS_16reverse_iteratorIPiEES9_S9_Li0EEENS_4pairIT0_T2_EESB_T1_SC_, symObjAddr: 0x36BC, symBinAddr: 0x100006448, symSize: 0x12C }
  - { offsetInCU: 0x82E3, offset: 0x82E3, size: 0x8, addend: 0x0, symName: __ZNSt3__114__unwrap_rangeB7v160006INS_16reverse_iteratorIPiEES3_EENS_4pairIT0_S5_EET_S7_, symObjAddr: 0x37E8, symBinAddr: 0x100006574, symSize: 0x84 }
  - { offsetInCU: 0x845E, offset: 0x845E, size: 0x8, addend: 0x0, symName: __ZNSt3__113__unwrap_iterB7v160006INS_16reverse_iteratorIPiEENS_18__unwrap_iter_implIS3_Lb0EEELi0EEEDTclsrT0_8__unwrapclsr3stdE7declvalIT_EEEES7_, symObjAddr: 0x390C, symBinAddr: 0x100006698, symSize: 0x44 }
  - { offsetInCU: 0x84A2, offset: 0x84A2, size: 0x8, addend: 0x0, symName: __ZNSt3__19make_pairB7v160006INS_16reverse_iteratorIPiEES3_EENS_4pairINS_18__unwrap_ref_decayIT_E4typeENS5_IT0_E4typeEEEOS6_OS9_, symObjAddr: 0x3950, symBinAddr: 0x1000066DC, symSize: 0x38 }
  - { offsetInCU: 0x84F1, offset: 0x84F1, size: 0x8, addend: 0x0, symName: __ZNSt3__114__rewrap_rangeB7v160006INS_16reverse_iteratorIPiEES3_EET_S4_T0_, symObjAddr: 0x3988, symBinAddr: 0x100006714, symSize: 0x5C }
  - { offsetInCU: 0x853D, offset: 0x853D, size: 0x8, addend: 0x0, symName: __ZNSt3__113__rewrap_iterB7v160006INS_16reverse_iteratorIPiEES3_NS_18__unwrap_iter_implIS3_Lb0EEEEET_S6_T0_, symObjAddr: 0x39E4, symBinAddr: 0x100006770, symSize: 0x74 }
  - { offsetInCU: 0x8592, offset: 0x8592, size: 0x8, addend: 0x0, symName: __ZNSt3__1neB7v160006IPiS1_EEbRKNS_16reverse_iteratorIT_EERKNS2_IT0_EE, symObjAddr: 0x3A58, symBinAddr: 0x1000067E4, symSize: 0x48 }
  - { offsetInCU: 0x8690, offset: 0x8690, size: 0x8, addend: 0x0, symName: __ZNSt3__119__libcpp_deallocateB7v160006EPvmm, symObjAddr: 0x3E10, symBinAddr: 0x100006B9C, symSize: 0x30 }
  - { offsetInCU: 0x86D8, offset: 0x86D8, size: 0x8, addend: 0x0, symName: __ZNSt3__127__do_deallocate_handle_sizeB7v160006IJEEEvPvmDpT_, symObjAddr: 0x3E40, symBinAddr: 0x100006BCC, symSize: 0x28 }
  - { offsetInCU: 0x8716, offset: 0x8716, size: 0x8, addend: 0x0, symName: __ZNSt3__124__libcpp_operator_deleteB7v160006IJPvEEEvDpT_, symObjAddr: 0x3E68, symBinAddr: 0x100006BF4, symSize: 0x24 }
  - { offsetInCU: 0x874B, offset: 0x874B, size: 0x8, addend: 0x0, symName: __ZNSt3__122__make_exception_guardB7v160006INS_6vectorIiNS_9allocatorIiEEE16__destroy_vectorEEENS_28__exception_guard_exceptionsIT_EES7_, symObjAddr: 0x4038, symBinAddr: 0x100006DC4, symSize: 0x40 }
  - { offsetInCU: 0x8780, offset: 0x8780, size: 0x8, addend: 0x0, symName: __ZNSt3__119__debug_db_insert_cB7v160006INS_6vectorIiNS_9allocatorIiEEEEEEvPT_, symObjAddr: 0x40AC, symBinAddr: 0x100006E38, symSize: 0x10 }
  - { offsetInCU: 0x87B1, offset: 0x87B1, size: 0x8, addend: 0x0, symName: __ZNSt3__130__uninitialized_allocator_copyB7v160006INS_9allocatorIiEEiiLPv0EEEPT0_RT_PKS4_S9_S5_, symObjAddr: 0x43B0, symBinAddr: 0x10000713C, symSize: 0x38 }
  - { offsetInCU: 0x8829, offset: 0x8829, size: 0x8, addend: 0x0, symName: __ZNSt3__14copyB7v160006IPKiPiEET0_T_S5_S4_, symObjAddr: 0x43E8, symBinAddr: 0x100007174, symSize: 0x40 }
  - { offsetInCU: 0x8883, offset: 0x8883, size: 0x8, addend: 0x0, symName: __ZNSt3__16__copyB7v160006INS_17_ClassicAlgPolicyEPKiS3_PiEENS_4pairIT0_T2_EES6_T1_S7_, symObjAddr: 0x4428, symBinAddr: 0x1000071B4, symSize: 0x44 }
  - { offsetInCU: 0x88EF, offset: 0x88EF, size: 0x8, addend: 0x0, symName: __ZNSt3__123__dispatch_copy_or_moveB7v160006INS_17_ClassicAlgPolicyENS_11__copy_loopIS1_EENS_14__copy_trivialEPKiS6_PiEENS_4pairIT2_T4_EES9_T3_SA_, symObjAddr: 0x446C, symBinAddr: 0x1000071F8, symSize: 0x44 }
  - { offsetInCU: 0x896D, offset: 0x896D, size: 0x8, addend: 0x0, symName: __ZNSt3__121__unwrap_and_dispatchB7v160006INS_10__overloadINS_11__copy_loopINS_17_ClassicAlgPolicyEEENS_14__copy_trivialEEEPKiS8_PiLi0EEENS_4pairIT0_T2_EESB_T1_SC_, symObjAddr: 0x44B0, symBinAddr: 0x10000723C, symSize: 0xB4 }
  - { offsetInCU: 0x89FB, offset: 0x89FB, size: 0x8, addend: 0x0, symName: __ZNSt3__114__unwrap_rangeB7v160006IPKiS2_EENS_4pairIT0_S4_EET_S6_, symObjAddr: 0x4564, symBinAddr: 0x1000072F0, symSize: 0x60 }
  - { offsetInCU: 0x8B90, offset: 0x8B90, size: 0x8, addend: 0x0, symName: __ZNSt3__19make_pairB7v160006IPKiPiEENS_4pairINS_18__unwrap_ref_decayIT_E4typeENS5_IT0_E4typeEEEOS6_OS9_, symObjAddr: 0x460C, symBinAddr: 0x100007398, symSize: 0x38 }
  - { offsetInCU: 0x8BDF, offset: 0x8BDF, size: 0x8, addend: 0x0, symName: __ZNSt3__114__rewrap_rangeB7v160006IPKiS2_EET_S3_T0_, symObjAddr: 0x4644, symBinAddr: 0x1000073D0, symSize: 0x2C }
  - { offsetInCU: 0x8C2B, offset: 0x8C2B, size: 0x8, addend: 0x0, symName: __ZNSt3__19make_pairB7v160006IPKiS2_EENS_4pairINS_18__unwrap_ref_decayIT_E4typeENS4_IT0_E4typeEEEOS5_OS8_, symObjAddr: 0x4670, symBinAddr: 0x1000073FC, symSize: 0x38 }
  - { offsetInCU: 0x8C7A, offset: 0x8C7A, size: 0x8, addend: 0x0, symName: __ZNSt3__113__unwrap_iterB7v160006IPKiNS_18__unwrap_iter_implIS2_Lb1EEELi0EEEDTclsrT0_8__unwrapclsr3stdE7declvalIT_EEEES6_, symObjAddr: 0x46A8, symBinAddr: 0x100007434, symSize: 0x24 }
  - { offsetInCU: 0x8DE5, offset: 0x8DE5, size: 0x8, addend: 0x0, symName: __ZNSt3__112__to_addressB7v160006IKiEEPT_S3_, symObjAddr: 0x4760, symBinAddr: 0x1000074EC, symSize: 0x14 }
  - { offsetInCU: 0x8E1A, offset: 0x8E1A, size: 0x8, addend: 0x0, symName: __ZNSt3__119__copy_trivial_implB7v160006IKiiEENS_4pairIPT_PT0_EES4_S4_S6_, symObjAddr: 0x4774, symBinAddr: 0x100007500, symSize: 0x84 }
  - { offsetInCU: 0x8E82, offset: 0x8E82, size: 0x8, addend: 0x0, symName: __ZNSt3__19make_pairB7v160006IRPKiPiEENS_4pairINS_18__unwrap_ref_decayIT_E4typeENS6_IT0_E4typeEEEOS7_OSA_, symObjAddr: 0x47F8, symBinAddr: 0x100007584, symSize: 0x38 }
  - { offsetInCU: 0x8ED1, offset: 0x8ED1, size: 0x8, addend: 0x0, symName: __ZNSt3__113__rewrap_iterB7v160006IPKiS2_NS_18__unwrap_iter_implIS2_Lb1EEEEET_S5_T0_, symObjAddr: 0x4910, symBinAddr: 0x10000769C, symSize: 0x3C }
  - { offsetInCU: 0x8F26, offset: 0x8F26, size: 0x8, addend: 0x0, symName: __ZNSt3__118__debug_db_erase_cB7v160006INS_6vectorIiNS_9allocatorIiEEEEEEvPT_, symObjAddr: 0x4A88, symBinAddr: 0x100007814, symSize: 0x10 }
  - { offsetInCU: 0x92CA, offset: 0x92CA, size: 0x8, addend: 0x0, symName: __ZSt28__throw_bad_array_new_lengthB7v160006v, symObjAddr: 0x3120, symBinAddr: 0x100005EAC, symSize: 0x34 }
  - { offsetInCU: 0x988F, offset: 0x988F, size: 0x8, addend: 0x0, symName: __ZNSt3__16vectorIiNS_9allocatorIiEEE26__swap_out_circular_bufferERNS_14__split_bufferIiRS2_EEPi, symObjAddr: 0x24A8, symBinAddr: 0x100005234, symSize: 0x154 }
  - { offsetInCU: 0xBA77, offset: 0xBA77, size: 0x8, addend: 0x0, symName: __Z6lshiftRNSt3__16vectorIiNS_9allocatorIiEEEEi, symObjAddr: 0x0, symBinAddr: 0x100002D8C, symSize: 0xEC }
  - { offsetInCU: 0xBAAE, offset: 0xBAAE, size: 0x8, addend: 0x0, symName: __ZNKSt3__16vectorIiNS_9allocatorIiEEE4sizeB7v160006Ev, symObjAddr: 0xEC, symBinAddr: 0x100002E78, symSize: 0x28 }
  - { offsetInCU: 0xBAD2, offset: 0xBAD2, size: 0x8, addend: 0x0, symName: __ZNSt3__16vectorIiNS_9allocatorIiEEE5eraseENS_11__wrap_iterIPKiEES7_, symObjAddr: 0x114, symBinAddr: 0x100002EA0, symSize: 0xE0 }
  - { offsetInCU: 0xBB25, offset: 0xBB25, size: 0x8, addend: 0x0, symName: __ZNSt3__16vectorIiNS_9allocatorIiEEE5beginB7v160006Ev, symObjAddr: 0x1F4, symBinAddr: 0x100002F80, symSize: 0x30 }
  - { offsetInCU: 0xBB56, offset: 0xBB56, size: 0x8, addend: 0x0, symName: __ZNSt3__111__wrap_iterIPKiEC1B7v160006IPiEERKNS0_IT_EEPNS_9enable_ifIXsr14is_convertibleIS6_S2_EE5valueEvE4typeE, symObjAddr: 0x224, symBinAddr: 0x100002FB0, symSize: 0x3C }
  - { offsetInCU: 0xBBA1, offset: 0xBBA1, size: 0x8, addend: 0x0, symName: __ZNKSt3__111__wrap_iterIPiEplB7v160006El, symObjAddr: 0x260, symBinAddr: 0x100002FEC, symSize: 0x3C }
  - { offsetInCU: 0xBBE2, offset: 0xBBE2, size: 0x8, addend: 0x0, symName: __ZNSt3__113basic_ostreamIcNS_11char_traitsIcEEElsB7v160006EPFRS3_S4_E, symObjAddr: 0x2E4, symBinAddr: 0x100003070, symSize: 0x2C }
  - { offsetInCU: 0xBC15, offset: 0xBC15, size: 0x8, addend: 0x0, symName: __Z6rshiftRNSt3__16vectorIiNS_9allocatorIiEEEEi, symObjAddr: 0x368, symBinAddr: 0x1000030F4, symSize: 0x9C }
  - { offsetInCU: 0xBC4B, offset: 0xBC4B, size: 0x8, addend: 0x0, symName: __ZNSt3__16vectorIiNS_9allocatorIiEEE6insertENS_11__wrap_iterIPKiEEmRS5_, symObjAddr: 0x404, symBinAddr: 0x100003190, symSize: 0x2AC }
  - { offsetInCU: 0xBD40, offset: 0xBD40, size: 0x8, addend: 0x0, symName: _main, symObjAddr: 0x6B0, symBinAddr: 0x10000343C, symSize: 0x2F8 }
  - { offsetInCU: 0xBE6D, offset: 0xBE6D, size: 0x8, addend: 0x0, symName: __ZNSt3__16vectorIiNS_9allocatorIiEEEC1B7v160006ESt16initializer_listIiE, symObjAddr: 0x9A8, symBinAddr: 0x100003734, symSize: 0x3C }
  - { offsetInCU: 0xBEA6, offset: 0xBEA6, size: 0x8, addend: 0x0, symName: __ZNSt3__16vectorIiNS_9allocatorIiEEE3endB7v160006Ev, symObjAddr: 0x9E4, symBinAddr: 0x100003770, symSize: 0x30 }
  - { offsetInCU: 0xBECD, offset: 0xBECD, size: 0x8, addend: 0x0, symName: __ZNKSt3__111__wrap_iterIPiEdeB7v160006Ev, symObjAddr: 0xA48, symBinAddr: 0x1000037D4, symSize: 0x18 }
  - { offsetInCU: 0xBEF2, offset: 0xBEF2, size: 0x8, addend: 0x0, symName: __ZNSt3__111__wrap_iterIPiEppB7v160006Ev, symObjAddr: 0xA60, symBinAddr: 0x1000037EC, symSize: 0x20 }
  - { offsetInCU: 0xBF17, offset: 0xBF17, size: 0x8, addend: 0x0, symName: __ZNSt3__16vectorIiNS_9allocatorIiEEED1B7v160006Ev, symObjAddr: 0xA80, symBinAddr: 0x10000380C, symSize: 0x2C }
  - { offsetInCU: 0xBF40, offset: 0xBF40, size: 0x8, addend: 0x0, symName: __ZNKSt3__111__wrap_iterIPiE4baseB7v160006Ev, symObjAddr: 0xAF4, symBinAddr: 0x100003880, symSize: 0x18 }
  - { offsetInCU: 0xBF65, offset: 0xBF65, size: 0x8, addend: 0x0, symName: __ZNSt3__16vectorIiNS_9allocatorIiEEE11__make_iterB7v160006EPi, symObjAddr: 0xB0C, symBinAddr: 0x100003898, symSize: 0x34 }
  - { offsetInCU: 0xBF99, offset: 0xBF99, size: 0x8, addend: 0x0, symName: __ZNSt3__111__wrap_iterIPiEC1B7v160006EPKvS1_, symObjAddr: 0xB40, symBinAddr: 0x1000038CC, symSize: 0x3C }
  - { offsetInCU: 0xBFDE, offset: 0xBFDE, size: 0x8, addend: 0x0, symName: __ZNSt3__111__wrap_iterIPiEC2B7v160006EPKvS1_, symObjAddr: 0xB7C, symBinAddr: 0x100003908, symSize: 0x24 }
  - { offsetInCU: 0xC023, offset: 0xC023, size: 0x8, addend: 0x0, symName: __ZNSt3__111__wrap_iterIPiEpLB7v160006El, symObjAddr: 0xBA0, symBinAddr: 0x10000392C, symSize: 0x28 }
  - { offsetInCU: 0xC056, offset: 0xC056, size: 0x8, addend: 0x0, symName: __ZNSt3__16vectorIiNS_9allocatorIiEEE17__destruct_at_endB7v160006EPi, symObjAddr: 0xC44, symBinAddr: 0x1000039D0, symSize: 0x60 }
  - { offsetInCU: 0xC099, offset: 0xC099, size: 0x8, addend: 0x0, symName: __ZNSt3__16vectorIiNS_9allocatorIiEEE27__invalidate_iterators_pastB7v160006EPi, symObjAddr: 0xD2C, symBinAddr: 0x100003AB8, symSize: 0x14 }
  - { offsetInCU: 0xC0CF, offset: 0xC0CF, size: 0x8, addend: 0x0, symName: __ZNKSt3__111__wrap_iterIPKiE4baseB7v160006Ev, symObjAddr: 0xD40, symBinAddr: 0x100003ACC, symSize: 0x18 }
  - { offsetInCU: 0xC0F4, offset: 0xC0F4, size: 0x8, addend: 0x0, symName: __ZNSt3__16vectorIiNS_9allocatorIiEEE22__base_destruct_at_endB7v160006EPi, symObjAddr: 0xDAC, symBinAddr: 0x100003B38, symSize: 0x8C }
  - { offsetInCU: 0xC137, offset: 0xC137, size: 0x8, addend: 0x0, symName: __ZNKSt3__16vectorIiNS_9allocatorIiEEE17__annotate_shrinkB7v160006Em, symObjAddr: 0xE38, symBinAddr: 0x100003BC4, symSize: 0xB4 }
  - { offsetInCU: 0xC16B, offset: 0xC16B, size: 0x8, addend: 0x0, symName: __ZNSt3__116allocator_traitsINS_9allocatorIiEEE7destroyB7v160006IivEEvRS2_PT_, symObjAddr: 0xEEC, symBinAddr: 0x100003C78, symSize: 0x2C }
  - { offsetInCU: 0xC1A8, offset: 0xC1A8, size: 0x8, addend: 0x0, symName: __ZNSt3__16vectorIiNS_9allocatorIiEEE7__allocB7v160006Ev, symObjAddr: 0xF18, symBinAddr: 0x100003CA4, symSize: 0x28 }
  - { offsetInCU: 0xC1CD, offset: 0xC1CD, size: 0x8, addend: 0x0, symName: __ZNSt3__19allocatorIiE7destroyB7v160006EPi, symObjAddr: 0xF54, symBinAddr: 0x100003CE0, symSize: 0x14 }
  - { offsetInCU: 0xC200, offset: 0xC200, size: 0x8, addend: 0x0, symName: __ZNSt3__117__compressed_pairIPiNS_9allocatorIiEEE6secondB7v160006Ev, symObjAddr: 0xF68, symBinAddr: 0x100003CF4, symSize: 0x24 }
  - { offsetInCU: 0xC225, offset: 0xC225, size: 0x8, addend: 0x0, symName: __ZNSt3__122__compressed_pair_elemINS_9allocatorIiEELi1ELb1EE5__getB7v160006Ev, symObjAddr: 0xF8C, symBinAddr: 0x100003D18, symSize: 0x14 }
  - { offsetInCU: 0xC24A, offset: 0xC24A, size: 0x8, addend: 0x0, symName: __ZNKSt3__16vectorIiNS_9allocatorIiEEE31__annotate_contiguous_containerB7v160006EPKvS5_S5_S5_, symObjAddr: 0xFA0, symBinAddr: 0x100003D2C, symSize: 0x20 }
  - { offsetInCU: 0xC29B, offset: 0xC29B, size: 0x8, addend: 0x0, symName: __ZNKSt3__16vectorIiNS_9allocatorIiEEE4dataB7v160006Ev, symObjAddr: 0xFC0, symBinAddr: 0x100003D4C, symSize: 0x28 }
  - { offsetInCU: 0xC2C0, offset: 0xC2C0, size: 0x8, addend: 0x0, symName: __ZNKSt3__16vectorIiNS_9allocatorIiEEE8capacityB7v160006Ev, symObjAddr: 0xFE8, symBinAddr: 0x100003D74, symSize: 0x40 }
  - { offsetInCU: 0xC2E5, offset: 0xC2E5, size: 0x8, addend: 0x0, symName: __ZNKSt3__16vectorIiNS_9allocatorIiEEE9__end_capB7v160006Ev, symObjAddr: 0x1028, symBinAddr: 0x100003DB4, symSize: 0x28 }
  - { offsetInCU: 0xC30A, offset: 0xC30A, size: 0x8, addend: 0x0, symName: __ZNKSt3__117__compressed_pairIPiNS_9allocatorIiEEE5firstB7v160006Ev, symObjAddr: 0x1050, symBinAddr: 0x100003DDC, symSize: 0x24 }
  - { offsetInCU: 0xC32F, offset: 0xC32F, size: 0x8, addend: 0x0, symName: __ZNKSt3__122__compressed_pair_elemIPiLi0ELb0EE5__getB7v160006Ev, symObjAddr: 0x1074, symBinAddr: 0x100003E00, symSize: 0x14 }
  - { offsetInCU: 0xC377, offset: 0xC377, size: 0x8, addend: 0x0, symName: __ZNKSt3__114__move_trivialclB7v160006IiiLi0EEENS_4pairIPT_PT0_EES4_S4_S6_, symObjAddr: 0x1224, symBinAddr: 0x100003FB0, symSize: 0x48 }
  - { offsetInCU: 0xC3E3, offset: 0xC3E3, size: 0x8, addend: 0x0, symName: __ZNSt3__14pairIPiS1_EC1B7v160006IRS1_S1_LPv0EEEOT_OT0_, symObjAddr: 0x13EC, symBinAddr: 0x100004178, symSize: 0x3C }
  - { offsetInCU: 0xC440, offset: 0xC440, size: 0x8, addend: 0x0, symName: __ZNSt3__14pairIPiS1_EC2B7v160006IRS1_S1_LPv0EEEOT_OT0_, symObjAddr: 0x1428, symBinAddr: 0x1000041B4, symSize: 0x34 }
  - { offsetInCU: 0xC49D, offset: 0xC49D, size: 0x8, addend: 0x0, symName: __ZNSt3__118__unwrap_iter_implIPiLb1EE8__unwrapB7v160006ES1_, symObjAddr: 0x145C, symBinAddr: 0x1000041E8, symSize: 0x24 }
  - { offsetInCU: 0xC4C0, offset: 0xC4C0, size: 0x8, addend: 0x0, symName: __ZNSt3__14pairIPiS1_EC1B7v160006IS1_S1_LPv0EEEOT_OT0_, symObjAddr: 0x1480, symBinAddr: 0x10000420C, symSize: 0x3C }
  - { offsetInCU: 0xC51D, offset: 0xC51D, size: 0x8, addend: 0x0, symName: __ZNSt3__14pairIPiS1_EC2B7v160006IS1_S1_LPv0EEEOT_OT0_, symObjAddr: 0x14BC, symBinAddr: 0x100004248, symSize: 0x34 }
  - { offsetInCU: 0xC57A, offset: 0xC57A, size: 0x8, addend: 0x0, symName: __ZNSt3__118__unwrap_iter_implIPiLb1EE8__rewrapB7v160006ES1_S1_, symObjAddr: 0x14F0, symBinAddr: 0x10000427C, symSize: 0x50 }
  - { offsetInCU: 0xC5AB, offset: 0xC5AB, size: 0x8, addend: 0x0, symName: __ZNSt3__111__wrap_iterIPKiEC2B7v160006IPiEERKNS0_IT_EEPNS_9enable_ifIXsr14is_convertibleIS6_S2_EE5valueEvE4typeE, symObjAddr: 0x1540, symBinAddr: 0x1000042CC, symSize: 0x40 }
  - { offsetInCU: 0xC5F6, offset: 0xC5F6, size: 0x8, addend: 0x0, symName: __ZNSt3__111char_traitsIcE6lengthEPKc, symObjAddr: 0x176C, symBinAddr: 0x1000044F8, symSize: 0x34 }
  - { offsetInCU: 0xC637, offset: 0xC637, size: 0x8, addend: 0x0, symName: __ZNKSt3__113basic_ostreamIcNS_11char_traitsIcEEE6sentrycvbB7v160006Ev, symObjAddr: 0x17A0, symBinAddr: 0x10000452C, symSize: 0x1C }
  - { offsetInCU: 0xC65C, offset: 0xC65C, size: 0x8, addend: 0x0, symName: __ZNSt3__119ostreambuf_iteratorIcNS_11char_traitsIcEEEC1B7v160006ERNS_13basic_ostreamIcS2_EE, symObjAddr: 0x19FC, symBinAddr: 0x100004788, symSize: 0x34 }
  - { offsetInCU: 0xC693, offset: 0xC693, size: 0x8, addend: 0x0, symName: __ZNKSt3__18ios_base5flagsB7v160006Ev, symObjAddr: 0x1A30, symBinAddr: 0x1000047BC, symSize: 0x18 }
  - { offsetInCU: 0xC6B9, offset: 0xC6B9, size: 0x8, addend: 0x0, symName: __ZNKSt3__19basic_iosIcNS_11char_traitsIcEEE4fillB7v160006Ev, symObjAddr: 0x1A48, symBinAddr: 0x1000047D4, symSize: 0x64 }
  - { offsetInCU: 0xC6E0, offset: 0xC6E0, size: 0x8, addend: 0x0, symName: __ZNKSt3__119ostreambuf_iteratorIcNS_11char_traitsIcEEE6failedB7v160006Ev, symObjAddr: 0x1AAC, symBinAddr: 0x100004838, symSize: 0x24 }
  - { offsetInCU: 0xC705, offset: 0xC705, size: 0x8, addend: 0x0, symName: __ZNSt3__19basic_iosIcNS_11char_traitsIcEEE8setstateB7v160006Ej, symObjAddr: 0x1AD0, symBinAddr: 0x10000485C, symSize: 0x2C }
  - { offsetInCU: 0xC739, offset: 0xC739, size: 0x8, addend: 0x0, symName: __ZNKSt3__18ios_base5widthB7v160006Ev, symObjAddr: 0x1AFC, symBinAddr: 0x100004888, symSize: 0x18 }
  - { offsetInCU: 0xC760, offset: 0xC760, size: 0x8, addend: 0x0, symName: __ZNSt3__115basic_streambufIcNS_11char_traitsIcEEE5sputnB7v160006EPKcl, symObjAddr: 0x1B14, symBinAddr: 0x1000048A0, symSize: 0x3C }
  - { offsetInCU: 0xC7A1, offset: 0xC7A1, size: 0x8, addend: 0x0, symName: __ZNSt3__112basic_stringIcNS_11char_traitsIcEENS_9allocatorIcEEEC1B7v160006Emc, symObjAddr: 0x1B50, symBinAddr: 0x1000048DC, symSize: 0x3C }
  - { offsetInCU: 0xC7E8, offset: 0xC7E8, size: 0x8, addend: 0x0, symName: __ZNKSt3__112basic_stringIcNS_11char_traitsIcEENS_9allocatorIcEEE4dataB7v160006Ev, symObjAddr: 0x1B8C, symBinAddr: 0x100004918, symSize: 0x28 }
  - { offsetInCU: 0xC80D, offset: 0xC80D, size: 0x8, addend: 0x0, symName: __ZNSt3__18ios_base5widthB7v160006El, symObjAddr: 0x1BB4, symBinAddr: 0x100004940, symSize: 0x2C }
  - { offsetInCU: 0xC852, offset: 0xC852, size: 0x8, addend: 0x0, symName: __ZNSt3__112basic_stringIcNS_11char_traitsIcEENS_9allocatorIcEEEC2B7v160006Emc, symObjAddr: 0x1BE0, symBinAddr: 0x10000496C, symSize: 0x54 }
  - { offsetInCU: 0xC89E, offset: 0xC89E, size: 0x8, addend: 0x0, symName: __ZNSt3__117__compressed_pairINS_12basic_stringIcNS_11char_traitsIcEENS_9allocatorIcEEE5__repES5_EC1B7v160006INS_18__default_init_tagESA_EEOT_OT0_, symObjAddr: 0x1C34, symBinAddr: 0x1000049C0, symSize: 0x3C }
  - { offsetInCU: 0xC8F5, offset: 0xC8F5, size: 0x8, addend: 0x0, symName: __ZNSt3__117__compressed_pairINS_12basic_stringIcNS_11char_traitsIcEENS_9allocatorIcEEE5__repES5_EC2B7v160006INS_18__default_init_tagESA_EEOT_OT0_, symObjAddr: 0x1C80, symBinAddr: 0x100004A0C, symSize: 0x3C }
  - { offsetInCU: 0xC94C, offset: 0xC94C, size: 0x8, addend: 0x0, symName: __ZNSt3__122__compressed_pair_elemINS_12basic_stringIcNS_11char_traitsIcEENS_9allocatorIcEEE5__repELi0ELb0EEC2B7v160006ENS_18__default_init_tagE, symObjAddr: 0x1CBC, symBinAddr: 0x100004A48, symSize: 0x14 }
  - { offsetInCU: 0xC980, offset: 0xC980, size: 0x8, addend: 0x0, symName: __ZNSt3__122__compressed_pair_elemINS_9allocatorIcEELi1ELb1EEC2B7v160006ENS_18__default_init_tagE, symObjAddr: 0x1CD0, symBinAddr: 0x100004A5C, symSize: 0x2C }
  - { offsetInCU: 0xC9B4, offset: 0xC9B4, size: 0x8, addend: 0x0, symName: __ZNSt3__19allocatorIcEC2B7v160006Ev, symObjAddr: 0x1CFC, symBinAddr: 0x100004A88, symSize: 0x2C }
  - { offsetInCU: 0xC9DD, offset: 0xC9DD, size: 0x8, addend: 0x0, symName: __ZNSt3__116__non_trivial_ifILb1ENS_9allocatorIcEEEC2B7v160006Ev, symObjAddr: 0x1D28, symBinAddr: 0x100004AB4, symSize: 0x14 }
  - { offsetInCU: 0xCA06, offset: 0xCA06, size: 0x8, addend: 0x0, symName: __ZNKSt3__112basic_stringIcNS_11char_traitsIcEENS_9allocatorIcEEE13__get_pointerB7v160006Ev, symObjAddr: 0x1D50, symBinAddr: 0x100004ADC, symSize: 0x54 }
  - { offsetInCU: 0xCA2B, offset: 0xCA2B, size: 0x8, addend: 0x0, symName: __ZNKSt3__112basic_stringIcNS_11char_traitsIcEENS_9allocatorIcEEE9__is_longB7v160006Ev, symObjAddr: 0x1DA4, symBinAddr: 0x100004B30, symSize: 0x38 }
  - { offsetInCU: 0xCA50, offset: 0xCA50, size: 0x8, addend: 0x0, symName: __ZNKSt3__112basic_stringIcNS_11char_traitsIcEENS_9allocatorIcEEE18__get_long_pointerB7v160006Ev, symObjAddr: 0x1DDC, symBinAddr: 0x100004B68, symSize: 0x28 }
  - { offsetInCU: 0xCA75, offset: 0xCA75, size: 0x8, addend: 0x0, symName: __ZNKSt3__112basic_stringIcNS_11char_traitsIcEENS_9allocatorIcEEE19__get_short_pointerB7v160006Ev, symObjAddr: 0x1E04, symBinAddr: 0x100004B90, symSize: 0x28 }
  - { offsetInCU: 0xCA9A, offset: 0xCA9A, size: 0x8, addend: 0x0, symName: __ZNKSt3__117__compressed_pairINS_12basic_stringIcNS_11char_traitsIcEENS_9allocatorIcEEE5__repES5_E5firstB7v160006Ev, symObjAddr: 0x1E2C, symBinAddr: 0x100004BB8, symSize: 0x24 }
  - { offsetInCU: 0xCABF, offset: 0xCABF, size: 0x8, addend: 0x0, symName: __ZNKSt3__122__compressed_pair_elemINS_12basic_stringIcNS_11char_traitsIcEENS_9allocatorIcEEE5__repELi0ELb0EE5__getB7v160006Ev, symObjAddr: 0x1E50, symBinAddr: 0x100004BDC, symSize: 0x14 }
  - { offsetInCU: 0xCAE4, offset: 0xCAE4, size: 0x8, addend: 0x0, symName: __ZNSt3__114pointer_traitsIPKcE10pointer_toB7v160006ERS1_, symObjAddr: 0x1E64, symBinAddr: 0x100004BF0, symSize: 0x14 }
  - { offsetInCU: 0xCB07, offset: 0xCB07, size: 0x8, addend: 0x0, symName: __ZNSt3__119ostreambuf_iteratorIcNS_11char_traitsIcEEEC2B7v160006ERNS_13basic_ostreamIcS2_EE, symObjAddr: 0x1E78, symBinAddr: 0x100004C04, symSize: 0x54 }
  - { offsetInCU: 0xCB3D, offset: 0xCB3D, size: 0x8, addend: 0x0, symName: __ZNKSt3__19basic_iosIcNS_11char_traitsIcEEE5rdbufB7v160006Ev, symObjAddr: 0x1ECC, symBinAddr: 0x100004C58, symSize: 0x24 }
  - { offsetInCU: 0xCB64, offset: 0xCB64, size: 0x8, addend: 0x0, symName: __ZNKSt3__18ios_base5rdbufB7v160006Ev, symObjAddr: 0x1EF0, symBinAddr: 0x100004C7C, symSize: 0x18 }
  - { offsetInCU: 0xCB89, offset: 0xCB89, size: 0x8, addend: 0x0, symName: __ZNSt3__111char_traitsIcE11eq_int_typeEii, symObjAddr: 0x1F08, symBinAddr: 0x100004C94, symSize: 0x28 }
  - { offsetInCU: 0xCBBA, offset: 0xCBBA, size: 0x8, addend: 0x0, symName: __ZNSt3__111char_traitsIcE3eofEv, symObjAddr: 0x1F30, symBinAddr: 0x100004CBC, symSize: 0x8 }
  - { offsetInCU: 0xCBCD, offset: 0xCBCD, size: 0x8, addend: 0x0, symName: __ZNKSt3__19basic_iosIcNS_11char_traitsIcEEE5widenB7v160006Ec, symObjAddr: 0x1F38, symBinAddr: 0x100004CC4, symSize: 0x84 }
  - { offsetInCU: 0xCC3A, offset: 0xCC3A, size: 0x8, addend: 0x0, symName: __ZNKSt3__15ctypeIcE5widenB7v160006Ec, symObjAddr: 0x1FE8, symBinAddr: 0x100004D74, symSize: 0x38 }
  - { offsetInCU: 0xCC6D, offset: 0xCC6D, size: 0x8, addend: 0x0, symName: __ZNSt3__18ios_base8setstateB7v160006Ej, symObjAddr: 0x2020, symBinAddr: 0x100004DAC, symSize: 0x34 }
  - { offsetInCU: 0xCCA3, offset: 0xCCA3, size: 0x8, addend: 0x0, symName: __ZNSt3__16vectorIiNS_9allocatorIiEEE9__end_capB7v160006Ev, symObjAddr: 0x2078, symBinAddr: 0x100004E04, symSize: 0x28 }
  - { offsetInCU: 0xCCC7, offset: 0xCCC7, size: 0x8, addend: 0x0, symName: __ZNSt3__16vectorIiNS_9allocatorIiEEE18__construct_at_endEmRKi, symObjAddr: 0x20A0, symBinAddr: 0x100004E2C, symSize: 0xD0 }
  - { offsetInCU: 0xCD47, offset: 0xCD47, size: 0x8, addend: 0x0, symName: __ZNSt3__16vectorIiNS_9allocatorIiEEE12__move_rangeEPiS4_S4_, symObjAddr: 0x2170, symBinAddr: 0x100004EFC, symSize: 0x12C }
  - { offsetInCU: 0xCE04, offset: 0xCE04, size: 0x8, addend: 0x0, symName: __ZNSt3__114pointer_traitsIPKiE10pointer_toB7v160006ERS1_, symObjAddr: 0x229C, symBinAddr: 0x100005028, symSize: 0x14 }
  - { offsetInCU: 0xCE26, offset: 0xCE26, size: 0x8, addend: 0x0, symName: __ZNKSt3__16vectorIiNS_9allocatorIiEEE11__recommendB7v160006Em, symObjAddr: 0x22F4, symBinAddr: 0x100005080, symSize: 0xB4 }
  - { offsetInCU: 0xCE7A, offset: 0xCE7A, size: 0x8, addend: 0x0, symName: __ZNSt3__114__split_bufferIiRNS_9allocatorIiEEEC1EmmS3_, symObjAddr: 0x23A8, symBinAddr: 0x100005134, symSize: 0x44 }
  - { offsetInCU: 0xCECF, offset: 0xCECF, size: 0x8, addend: 0x0, symName: __ZNSt3__114__split_bufferIiRNS_9allocatorIiEEE18__construct_at_endEmRKi, symObjAddr: 0x23EC, symBinAddr: 0x100005178, symSize: 0xBC }
  - { offsetInCU: 0xCF1F, offset: 0xCF1F, size: 0x8, addend: 0x0, symName: __ZNSt3__114__split_bufferIiRNS_9allocatorIiEEED1Ev, symObjAddr: 0x25FC, symBinAddr: 0x100005388, symSize: 0x2C }
  - { offsetInCU: 0xCF4A, offset: 0xCF4A, size: 0x8, addend: 0x0, symName: __ZNSt3__117__compressed_pairIPiNS_9allocatorIiEEE5firstB7v160006Ev, symObjAddr: 0x2628, symBinAddr: 0x1000053B4, symSize: 0x24 }
  - { offsetInCU: 0xCF6F, offset: 0xCF6F, size: 0x8, addend: 0x0, symName: __ZNSt3__122__compressed_pair_elemIPiLi0ELb0EE5__getB7v160006Ev, symObjAddr: 0x264C, symBinAddr: 0x1000053D8, symSize: 0x14 }
  - { offsetInCU: 0xCFAD, offset: 0xCFAD, size: 0x8, addend: 0x0, symName: __ZNSt3__16vectorIiNS_9allocatorIiEEE21_ConstructTransactionC1B7v160006ERS3_m, symObjAddr: 0x2660, symBinAddr: 0x1000053EC, symSize: 0x3C }
  - { offsetInCU: 0xCFF4, offset: 0xCFF4, size: 0x8, addend: 0x0, symName: __ZNSt3__116allocator_traitsINS_9allocatorIiEEE9constructB7v160006IiJRKiEvEEvRS2_PT_DpOT0_, symObjAddr: 0x269C, symBinAddr: 0x100005428, symSize: 0x34 }
  - { offsetInCU: 0xD04B, offset: 0xD04B, size: 0x8, addend: 0x0, symName: __ZNSt3__16vectorIiNS_9allocatorIiEEE21_ConstructTransactionD1B7v160006Ev, symObjAddr: 0x26D0, symBinAddr: 0x10000545C, symSize: 0x2C }
  - { offsetInCU: 0xD074, offset: 0xD074, size: 0x8, addend: 0x0, symName: __ZNSt3__16vectorIiNS_9allocatorIiEEE21_ConstructTransactionC2B7v160006ERS3_m, symObjAddr: 0x26FC, symBinAddr: 0x100005488, symSize: 0x44 }
  - { offsetInCU: 0xD0BB, offset: 0xD0BB, size: 0x8, addend: 0x0, symName: __ZNSt3__19allocatorIiE9constructB7v160006IiJRKiEEEvPT_DpOT0_, symObjAddr: 0x2740, symBinAddr: 0x1000054CC, symSize: 0x28 }
  - { offsetInCU: 0xD110, offset: 0xD110, size: 0x8, addend: 0x0, symName: __ZNSt3__16vectorIiNS_9allocatorIiEEE21_ConstructTransactionD2B7v160006Ev, symObjAddr: 0x2768, symBinAddr: 0x1000054F4, symSize: 0x20 }
  - { offsetInCU: 0xD13E, offset: 0xD13E, size: 0x8, addend: 0x0, symName: __ZNSt3__116allocator_traitsINS_9allocatorIiEEE9constructB7v160006IiJiEvEEvRS2_PT_DpOT0_, symObjAddr: 0x2788, symBinAddr: 0x100005514, symSize: 0x34 }
  - { offsetInCU: 0xD195, offset: 0xD195, size: 0x8, addend: 0x0, symName: __ZNSt3__19allocatorIiE9constructB7v160006IiJiEEEvPT_DpOT0_, symObjAddr: 0x27FC, symBinAddr: 0x100005588, symSize: 0x28 }
  - { offsetInCU: 0xD1F4, offset: 0xD1F4, size: 0x8, addend: 0x0, symName: __ZNKSt3__123__move_backward_trivialclB7v160006IiiLi0EEENS_4pairIPT_PT0_EES4_S4_S6_, symObjAddr: 0x2960, symBinAddr: 0x1000056EC, symSize: 0x48 }
  - { offsetInCU: 0xD25B, offset: 0xD25B, size: 0x8, addend: 0x0, symName: __ZNSt3__14pairIPiS1_EC1B7v160006IRS1_S4_LPv0EEEOT_OT0_, symObjAddr: 0x2A74, symBinAddr: 0x100005800, symSize: 0x3C }
  - { offsetInCU: 0xD2B8, offset: 0xD2B8, size: 0x8, addend: 0x0, symName: __ZNSt3__14pairIPiS1_EC2B7v160006IRS1_S4_LPv0EEEOT_OT0_, symObjAddr: 0x2AB0, symBinAddr: 0x10000583C, symSize: 0x34 }
  - { offsetInCU: 0xD314, offset: 0xD314, size: 0x8, addend: 0x0, symName: __ZNKSt3__16vectorIiNS_9allocatorIiEEE8max_sizeEv, symObjAddr: 0x2B5C, symBinAddr: 0x1000058E8, symSize: 0x60 }
  - { offsetInCU: 0xD33B, offset: 0xD33B, size: 0x8, addend: 0x0, symName: __ZNKSt3__16vectorIiNS_9allocatorIiEEE20__throw_length_errorB7v160006Ev, symObjAddr: 0x2BBC, symBinAddr: 0x100005948, symSize: 0x1C }
  - { offsetInCU: 0xD36A, offset: 0xD36A, size: 0x8, addend: 0x0, symName: __ZNSt3__116allocator_traitsINS_9allocatorIiEEE8max_sizeB7v160006IS2_vEEmRKS2_, symObjAddr: 0x2C30, symBinAddr: 0x1000059BC, symSize: 0x24 }
  - { offsetInCU: 0xD398, offset: 0xD398, size: 0x8, addend: 0x0, symName: __ZNKSt3__16vectorIiNS_9allocatorIiEEE7__allocB7v160006Ev, symObjAddr: 0x2C54, symBinAddr: 0x1000059E0, symSize: 0x28 }
  - { offsetInCU: 0xD3BD, offset: 0xD3BD, size: 0x8, addend: 0x0, symName: __ZNSt3__114numeric_limitsIlE3maxB7v160006Ev, symObjAddr: 0x2C7C, symBinAddr: 0x100005A08, symSize: 0x14 }
  - { offsetInCU: 0xD3E5, offset: 0xD3E5, size: 0x8, addend: 0x0, symName: __ZNKSt3__16__lessImmEclB7v160006ERKmS3_, symObjAddr: 0x2CE4, symBinAddr: 0x100005A70, symSize: 0x34 }
  - { offsetInCU: 0xD426, offset: 0xD426, size: 0x8, addend: 0x0, symName: __ZNKSt3__19allocatorIiE8max_sizeB7v160006Ev, symObjAddr: 0x2D18, symBinAddr: 0x100005AA4, symSize: 0x14 }
  - { offsetInCU: 0xD44B, offset: 0xD44B, size: 0x8, addend: 0x0, symName: __ZNKSt3__117__compressed_pairIPiNS_9allocatorIiEEE6secondB7v160006Ev, symObjAddr: 0x2D2C, symBinAddr: 0x100005AB8, symSize: 0x24 }
  - { offsetInCU: 0xD470, offset: 0xD470, size: 0x8, addend: 0x0, symName: __ZNKSt3__122__compressed_pair_elemINS_9allocatorIiEELi1ELb1EE5__getB7v160006Ev, symObjAddr: 0x2D50, symBinAddr: 0x100005ADC, symSize: 0x14 }
  - { offsetInCU: 0xD495, offset: 0xD495, size: 0x8, addend: 0x0, symName: __ZNSt3__123__libcpp_numeric_limitsIlLb1EE3maxB7v160006Ev, symObjAddr: 0x2D64, symBinAddr: 0x100005AF0, symSize: 0x8 }
  - { offsetInCU: 0xD4A9, offset: 0xD4A9, size: 0x8, addend: 0x0, symName: __ZNSt12length_errorC1B7v160006EPKc, symObjAddr: 0x2DD0, symBinAddr: 0x100005B5C, symSize: 0x34 }
  - { offsetInCU: 0xD4E0, offset: 0xD4E0, size: 0x8, addend: 0x0, symName: __ZNSt12length_errorC2B7v160006EPKc, symObjAddr: 0x2E04, symBinAddr: 0x100005B90, symSize: 0x4C }
  - { offsetInCU: 0xD517, offset: 0xD517, size: 0x8, addend: 0x0, symName: __ZNSt3__114__split_bufferIiRNS_9allocatorIiEEEC2EmmS3_, symObjAddr: 0x2EA4, symBinAddr: 0x100005C30, symSize: 0xD4 }
  - { offsetInCU: 0xD58F, offset: 0xD58F, size: 0x8, addend: 0x0, symName: __ZNSt3__117__compressed_pairIPiRNS_9allocatorIiEEEC1B7v160006IDnS4_EEOT_OT0_, symObjAddr: 0x2F78, symBinAddr: 0x100005D04, symSize: 0x3C }
  - { offsetInCU: 0xD5E6, offset: 0xD5E6, size: 0x8, addend: 0x0, symName: __ZNSt3__114__split_bufferIiRNS_9allocatorIiEEE7__allocB7v160006Ev, symObjAddr: 0x2FF4, symBinAddr: 0x100005D80, symSize: 0x28 }
  - { offsetInCU: 0xD60B, offset: 0xD60B, size: 0x8, addend: 0x0, symName: __ZNSt3__114__split_bufferIiRNS_9allocatorIiEEE9__end_capB7v160006Ev, symObjAddr: 0x301C, symBinAddr: 0x100005DA8, symSize: 0x28 }
  - { offsetInCU: 0xD630, offset: 0xD630, size: 0x8, addend: 0x0, symName: __ZNSt3__117__compressed_pairIPiRNS_9allocatorIiEEEC2B7v160006IDnS4_EEOT_OT0_, symObjAddr: 0x3044, symBinAddr: 0x100005DD0, symSize: 0x48 }
  - { offsetInCU: 0xD687, offset: 0xD687, size: 0x8, addend: 0x0, symName: __ZNSt3__122__compressed_pair_elemIPiLi0ELb0EEC2B7v160006IDnvEEOT_, symObjAddr: 0x308C, symBinAddr: 0x100005E18, symSize: 0x1C }
  - { offsetInCU: 0xD6C8, offset: 0xD6C8, size: 0x8, addend: 0x0, symName: __ZNSt3__122__compressed_pair_elemIRNS_9allocatorIiEELi1ELb0EEC2B7v160006IS3_vEEOT_, symObjAddr: 0x30A8, symBinAddr: 0x100005E34, symSize: 0x20 }
  - { offsetInCU: 0xD709, offset: 0xD709, size: 0x8, addend: 0x0, symName: __ZNSt3__19allocatorIiE8allocateB7v160006Em, symObjAddr: 0x30C8, symBinAddr: 0x100005E54, symSize: 0x58 }
  - { offsetInCU: 0xD73C, offset: 0xD73C, size: 0x8, addend: 0x0, symName: __ZNSt3__117__compressed_pairIPiRNS_9allocatorIiEEE6secondB7v160006Ev, symObjAddr: 0x31A0, symBinAddr: 0x100005F2C, symSize: 0x28 }
  - { offsetInCU: 0xD761, offset: 0xD761, size: 0x8, addend: 0x0, symName: __ZNSt3__122__compressed_pair_elemIRNS_9allocatorIiEELi1ELb0EE5__getB7v160006Ev, symObjAddr: 0x31C8, symBinAddr: 0x100005F54, symSize: 0x18 }
  - { offsetInCU: 0xD786, offset: 0xD786, size: 0x8, addend: 0x0, symName: __ZNSt3__117__compressed_pairIPiRNS_9allocatorIiEEE5firstB7v160006Ev, symObjAddr: 0x31E0, symBinAddr: 0x100005F6C, symSize: 0x24 }
  - { offsetInCU: 0xD7B5, offset: 0xD7B5, size: 0x8, addend: 0x0, symName: __ZNSt3__114__split_bufferIiRNS_9allocatorIiEEE21_ConstructTransactionC1B7v160006EPPim, symObjAddr: 0x3204, symBinAddr: 0x100005F90, symSize: 0x3C }
  - { offsetInCU: 0xD7FA, offset: 0xD7FA, size: 0x8, addend: 0x0, symName: __ZNSt3__114__split_bufferIiRNS_9allocatorIiEEE21_ConstructTransactionD1B7v160006Ev, symObjAddr: 0x3240, symBinAddr: 0x100005FCC, symSize: 0x2C }
  - { offsetInCU: 0xD823, offset: 0xD823, size: 0x8, addend: 0x0, symName: __ZNSt3__114__split_bufferIiRNS_9allocatorIiEEE21_ConstructTransactionC2B7v160006EPPim, symObjAddr: 0x326C, symBinAddr: 0x100005FF8, symSize: 0x44 }
  - { offsetInCU: 0xD868, offset: 0xD868, size: 0x8, addend: 0x0, symName: __ZNSt3__114__split_bufferIiRNS_9allocatorIiEEE21_ConstructTransactionD2B7v160006Ev, symObjAddr: 0x32B0, symBinAddr: 0x10000603C, symSize: 0x20 }
  - { offsetInCU: 0xD891, offset: 0xD891, size: 0x8, addend: 0x0, symName: __ZNKSt3__16vectorIiNS_9allocatorIiEEE17__annotate_deleteB7v160006Ev, symObjAddr: 0x32D0, symBinAddr: 0x10000605C, symSize: 0xB8 }
  - { offsetInCU: 0xD8B6, offset: 0xD8B6, size: 0x8, addend: 0x0, symName: __ZNSt3__116reverse_iteratorIPiEC1B7v160006ES1_, symObjAddr: 0x3400, symBinAddr: 0x10000618C, symSize: 0x34 }
  - { offsetInCU: 0xD8ED, offset: 0xD8ED, size: 0x8, addend: 0x0, symName: __ZNKSt3__116reverse_iteratorIPiE4baseB7v160006Ev, symObjAddr: 0x3434, symBinAddr: 0x1000061C0, symSize: 0x18 }
  - { offsetInCU: 0xD912, offset: 0xD912, size: 0x8, addend: 0x0, symName: __ZNKSt3__16vectorIiNS_9allocatorIiEEE14__annotate_newB7v160006Em, symObjAddr: 0x34C0, symBinAddr: 0x10000624C, symSize: 0xAC }
  - { offsetInCU: 0xD969, offset: 0xD969, size: 0x8, addend: 0x0, symName: __ZNKSt3__111__move_loopINS_17_ClassicAlgPolicyEEclB7v160006INS_16reverse_iteratorIPiEES6_S6_EENS_4pairIT_T1_EES8_T0_S9_, symObjAddr: 0x386C, symBinAddr: 0x1000065F8, symSize: 0xA0 }
  - { offsetInCU: 0xD9D3, offset: 0xD9D3, size: 0x8, addend: 0x0, symName: __ZNSt3__18_IterOpsINS_17_ClassicAlgPolicyEE11__iter_moveB7v160006IRNS_16reverse_iteratorIPiEEEENS_9enable_ifIXsr12is_referenceIDTdeclsr3stdE7declvalIRT_EEEEE5valueEDTclsr3stdE4movedeclsr3stdE7declvalISA_EEEEE4typeEOS9_, symObjAddr: 0x3AA0, symBinAddr: 0x10000682C, symSize: 0x28 }
  - { offsetInCU: 0xD9FF, offset: 0xD9FF, size: 0x8, addend: 0x0, symName: __ZNKSt3__116reverse_iteratorIPiEdeB7v160006Ev, symObjAddr: 0x3AC8, symBinAddr: 0x100006854, symSize: 0x28 }
  - { offsetInCU: 0xDA32, offset: 0xDA32, size: 0x8, addend: 0x0, symName: __ZNSt3__116reverse_iteratorIPiEppB7v160006Ev, symObjAddr: 0x3AF0, symBinAddr: 0x10000687C, symSize: 0x20 }
  - { offsetInCU: 0xDA57, offset: 0xDA57, size: 0x8, addend: 0x0, symName: __ZNSt3__18_IterOpsINS_17_ClassicAlgPolicyEE25__validate_iter_referenceB7v160006IRNS_16reverse_iteratorIPiEEEEvv, symObjAddr: 0x3B10, symBinAddr: 0x10000689C, symSize: 0x4 }
  - { offsetInCU: 0xDA75, offset: 0xDA75, size: 0x8, addend: 0x0, symName: __ZNSt3__118__unwrap_iter_implINS_16reverse_iteratorIPiEELb0EE8__unwrapB7v160006ES3_, symObjAddr: 0x3B14, symBinAddr: 0x1000068A0, symSize: 0x24 }
  - { offsetInCU: 0xDA9D, offset: 0xDA9D, size: 0x8, addend: 0x0, symName: __ZNSt3__14pairINS_16reverse_iteratorIPiEES3_EC1B7v160006IS3_S3_LPv0EEEOT_OT0_, symObjAddr: 0x3B38, symBinAddr: 0x1000068C4, symSize: 0x3C }
  - { offsetInCU: 0xDAFA, offset: 0xDAFA, size: 0x8, addend: 0x0, symName: __ZNSt3__14pairINS_16reverse_iteratorIPiEES3_EC2B7v160006IS3_S3_LPv0EEEOT_OT0_, symObjAddr: 0x3B74, symBinAddr: 0x100006900, symSize: 0x34 }
  - { offsetInCU: 0xDB57, offset: 0xDB57, size: 0x8, addend: 0x0, symName: __ZNSt3__118__unwrap_iter_implINS_16reverse_iteratorIPiEELb0EE8__rewrapB7v160006ES3_S3_, symObjAddr: 0x3BA8, symBinAddr: 0x100006934, symSize: 0x2C }
  - { offsetInCU: 0xDB85, offset: 0xDB85, size: 0x8, addend: 0x0, symName: __ZNSt3__116reverse_iteratorIPiEC2B7v160006ES1_, symObjAddr: 0x3BD4, symBinAddr: 0x100006960, symSize: 0x28 }
  - { offsetInCU: 0xDBBC, offset: 0xDBBC, size: 0x8, addend: 0x0, symName: __ZNSt3__114__split_bufferIiRNS_9allocatorIiEEED2Ev, symObjAddr: 0x3BFC, symBinAddr: 0x100006988, symSize: 0x8C }
  - { offsetInCU: 0xDBE7, offset: 0xDBE7, size: 0x8, addend: 0x0, symName: __ZNSt3__114__split_bufferIiRNS_9allocatorIiEEE5clearB7v160006Ev, symObjAddr: 0x3C88, symBinAddr: 0x100006A14, symSize: 0x28 }
  - { offsetInCU: 0xDC0C, offset: 0xDC0C, size: 0x8, addend: 0x0, symName: __ZNSt3__116allocator_traitsINS_9allocatorIiEEE10deallocateB7v160006ERS2_Pim, symObjAddr: 0x3CB0, symBinAddr: 0x100006A3C, symSize: 0x34 }
  - { offsetInCU: 0xDC4E, offset: 0xDC4E, size: 0x8, addend: 0x0, symName: __ZNKSt3__114__split_bufferIiRNS_9allocatorIiEEE8capacityB7v160006Ev, symObjAddr: 0x3CE4, symBinAddr: 0x100006A70, symSize: 0x40 }
  - { offsetInCU: 0xDC73, offset: 0xDC73, size: 0x8, addend: 0x0, symName: __ZNSt3__114__split_bufferIiRNS_9allocatorIiEEE17__destruct_at_endB7v160006EPi, symObjAddr: 0x3D24, symBinAddr: 0x100006AB0, symSize: 0x2C }
  - { offsetInCU: 0xDCA5, offset: 0xDCA5, size: 0x8, addend: 0x0, symName: __ZNSt3__114__split_bufferIiRNS_9allocatorIiEEE17__destruct_at_endB7v160006EPiNS_17integral_constantIbLb0EEE, symObjAddr: 0x3D50, symBinAddr: 0x100006ADC, symSize: 0x80 }
  - { offsetInCU: 0xDCE5, offset: 0xDCE5, size: 0x8, addend: 0x0, symName: __ZNSt3__19allocatorIiE10deallocateB7v160006EPim, symObjAddr: 0x3DD0, symBinAddr: 0x100006B5C, symSize: 0x40 }
  - { offsetInCU: 0xDD26, offset: 0xDD26, size: 0x8, addend: 0x0, symName: __ZNKSt3__114__split_bufferIiRNS_9allocatorIiEEE9__end_capB7v160006Ev, symObjAddr: 0x3E8C, symBinAddr: 0x100006C18, symSize: 0x28 }
  - { offsetInCU: 0xDD4B, offset: 0xDD4B, size: 0x8, addend: 0x0, symName: __ZNKSt3__117__compressed_pairIPiRNS_9allocatorIiEEE5firstB7v160006Ev, symObjAddr: 0x3EB4, symBinAddr: 0x100006C40, symSize: 0x24 }
  - { offsetInCU: 0xDD70, offset: 0xDD70, size: 0x8, addend: 0x0, symName: __ZNSt3__16vectorIiNS_9allocatorIiEEEC2B7v160006ESt16initializer_listIiE, symObjAddr: 0x3ED8, symBinAddr: 0x100006C64, symSize: 0x124 }
  - { offsetInCU: 0xDDC0, offset: 0xDDC0, size: 0x8, addend: 0x0, symName: __ZNSt3__117__compressed_pairIPiNS_9allocatorIiEEEC1B7v160006IDnNS_18__default_init_tagEEEOT_OT0_, symObjAddr: 0x3FFC, symBinAddr: 0x100006D88, symSize: 0x3C }
  - { offsetInCU: 0xDE17, offset: 0xDE17, size: 0x8, addend: 0x0, symName: __ZNSt3__16vectorIiNS_9allocatorIiEEE16__destroy_vectorC1ERS3_, symObjAddr: 0x4078, symBinAddr: 0x100006E04, symSize: 0x34 }
  - { offsetInCU: 0xDE4F, offset: 0xDE4F, size: 0x8, addend: 0x0, symName: __ZNKSt16initializer_listIiE4sizeB7v160006Ev, symObjAddr: 0x40BC, symBinAddr: 0x100006E48, symSize: 0x18 }
  - { offsetInCU: 0xDE74, offset: 0xDE74, size: 0x8, addend: 0x0, symName: __ZNSt3__16vectorIiNS_9allocatorIiEEE11__vallocateB7v160006Em, symObjAddr: 0x40D4, symBinAddr: 0x100006E60, symSize: 0xAC }
  - { offsetInCU: 0xDEB6, offset: 0xDEB6, size: 0x8, addend: 0x0, symName: __ZNSt3__16vectorIiNS_9allocatorIiEEE18__construct_at_endIPKiLi0EEEvT_S7_m, symObjAddr: 0x4180, symBinAddr: 0x100006F0C, symSize: 0x8C }
  - { offsetInCU: 0xDF28, offset: 0xDF28, size: 0x8, addend: 0x0, symName: __ZNKSt16initializer_listIiE5beginB7v160006Ev, symObjAddr: 0x420C, symBinAddr: 0x100006F98, symSize: 0x18 }
  - { offsetInCU: 0xDF4D, offset: 0xDF4D, size: 0x8, addend: 0x0, symName: __ZNKSt16initializer_listIiE3endB7v160006Ev, symObjAddr: 0x4224, symBinAddr: 0x100006FB0, symSize: 0x20 }
  - { offsetInCU: 0xDF72, offset: 0xDF72, size: 0x8, addend: 0x0, symName: __ZNSt3__128__exception_guard_exceptionsINS_6vectorIiNS_9allocatorIiEEE16__destroy_vectorEE10__completeB7v160006Ev, symObjAddr: 0x4244, symBinAddr: 0x100006FD0, symSize: 0x1C }
  - { offsetInCU: 0xDF97, offset: 0xDF97, size: 0x8, addend: 0x0, symName: __ZNSt3__128__exception_guard_exceptionsINS_6vectorIiNS_9allocatorIiEEE16__destroy_vectorEED1B7v160006Ev, symObjAddr: 0x4260, symBinAddr: 0x100006FEC, symSize: 0x2C }
  - { offsetInCU: 0xDFC0, offset: 0xDFC0, size: 0x8, addend: 0x0, symName: __ZNSt3__117__compressed_pairIPiNS_9allocatorIiEEEC2B7v160006IDnNS_18__default_init_tagEEEOT_OT0_, symObjAddr: 0x428C, symBinAddr: 0x100007018, symSize: 0x40 }
  - { offsetInCU: 0xE017, offset: 0xE017, size: 0x8, addend: 0x0, symName: __ZNSt3__122__compressed_pair_elemINS_9allocatorIiEELi1ELb1EEC2B7v160006ENS_18__default_init_tagE, symObjAddr: 0x42CC, symBinAddr: 0x100007058, symSize: 0x2C }
  - { offsetInCU: 0xE04B, offset: 0xE04B, size: 0x8, addend: 0x0, symName: __ZNSt3__19allocatorIiEC2B7v160006Ev, symObjAddr: 0x42F8, symBinAddr: 0x100007084, symSize: 0x2C }
  - { offsetInCU: 0xE074, offset: 0xE074, size: 0x8, addend: 0x0, symName: __ZNSt3__116__non_trivial_ifILb1ENS_9allocatorIiEEEC2B7v160006Ev, symObjAddr: 0x4324, symBinAddr: 0x1000070B0, symSize: 0x14 }
  - { offsetInCU: 0xE09D, offset: 0xE09D, size: 0x8, addend: 0x0, symName: __ZNSt3__128__exception_guard_exceptionsINS_6vectorIiNS_9allocatorIiEEE16__destroy_vectorEEC1B7v160006ES5_, symObjAddr: 0x4338, symBinAddr: 0x1000070C4, symSize: 0x34 }
  - { offsetInCU: 0xE0D4, offset: 0xE0D4, size: 0x8, addend: 0x0, symName: __ZNSt3__128__exception_guard_exceptionsINS_6vectorIiNS_9allocatorIiEEE16__destroy_vectorEEC2B7v160006ES5_, symObjAddr: 0x436C, symBinAddr: 0x1000070F8, symSize: 0x24 }
  - { offsetInCU: 0xE10B, offset: 0xE10B, size: 0x8, addend: 0x0, symName: __ZNSt3__16vectorIiNS_9allocatorIiEEE16__destroy_vectorC2ERS3_, symObjAddr: 0x4390, symBinAddr: 0x10000711C, symSize: 0x20 }
  - { offsetInCU: 0xE166, offset: 0xE166, size: 0x8, addend: 0x0, symName: __ZNKSt3__114__copy_trivialclB7v160006IKiiLi0EEENS_4pairIPT_PT0_EES5_S5_S7_, symObjAddr: 0x45C4, symBinAddr: 0x100007350, symSize: 0x48 }
  - { offsetInCU: 0xE1EB, offset: 0xE1EB, size: 0x8, addend: 0x0, symName: __ZNSt3__14pairIPKiS2_EC1B7v160006IS2_S2_LPv0EEEOT_OT0_, symObjAddr: 0x46CC, symBinAddr: 0x100007458, symSize: 0x3C }
  - { offsetInCU: 0xE248, offset: 0xE248, size: 0x8, addend: 0x0, symName: __ZNSt3__14pairIPKiS2_EC2B7v160006IS2_S2_LPv0EEEOT_OT0_, symObjAddr: 0x4708, symBinAddr: 0x100007494, symSize: 0x34 }
  - { offsetInCU: 0xE2A5, offset: 0xE2A5, size: 0x8, addend: 0x0, symName: __ZNSt3__118__unwrap_iter_implIPKiLb1EE8__unwrapB7v160006ES2_, symObjAddr: 0x473C, symBinAddr: 0x1000074C8, symSize: 0x24 }
  - { offsetInCU: 0xE2CD, offset: 0xE2CD, size: 0x8, addend: 0x0, symName: __ZNSt3__14pairIPKiPiEC1B7v160006IRS2_S3_LPv0EEEOT_OT0_, symObjAddr: 0x4830, symBinAddr: 0x1000075BC, symSize: 0x3C }
  - { offsetInCU: 0xE32A, offset: 0xE32A, size: 0x8, addend: 0x0, symName: __ZNSt3__14pairIPKiPiEC2B7v160006IRS2_S3_LPv0EEEOT_OT0_, symObjAddr: 0x486C, symBinAddr: 0x1000075F8, symSize: 0x34 }
  - { offsetInCU: 0xE387, offset: 0xE387, size: 0x8, addend: 0x0, symName: __ZNSt3__14pairIPKiPiEC1B7v160006IS2_S3_LPv0EEEOT_OT0_, symObjAddr: 0x48A0, symBinAddr: 0x10000762C, symSize: 0x3C }
  - { offsetInCU: 0xE3E4, offset: 0xE3E4, size: 0x8, addend: 0x0, symName: __ZNSt3__14pairIPKiPiEC2B7v160006IS2_S3_LPv0EEEOT_OT0_, symObjAddr: 0x48DC, symBinAddr: 0x100007668, symSize: 0x34 }
  - { offsetInCU: 0xE441, offset: 0xE441, size: 0x8, addend: 0x0, symName: __ZNSt3__118__unwrap_iter_implIPKiLb1EE8__rewrapB7v160006ES2_S2_, symObjAddr: 0x494C, symBinAddr: 0x1000076D8, symSize: 0x50 }
  - { offsetInCU: 0xE472, offset: 0xE472, size: 0x8, addend: 0x0, symName: __ZNSt3__128__exception_guard_exceptionsINS_6vectorIiNS_9allocatorIiEEE16__destroy_vectorEED2B7v160006Ev, symObjAddr: 0x499C, symBinAddr: 0x100007728, symSize: 0x50 }
  - { offsetInCU: 0xE49B, offset: 0xE49B, size: 0x8, addend: 0x0, symName: __ZNSt3__16vectorIiNS_9allocatorIiEEE16__destroy_vectorclB7v160006Ev, symObjAddr: 0x49EC, symBinAddr: 0x100007778, symSize: 0x9C }
  - { offsetInCU: 0xE4C0, offset: 0xE4C0, size: 0x8, addend: 0x0, symName: __ZNSt3__16vectorIiNS_9allocatorIiEEE7__clearB7v160006Ev, symObjAddr: 0x4A98, symBinAddr: 0x100007824, symSize: 0x28 }
  - { offsetInCU: 0xE4E5, offset: 0xE4E5, size: 0x8, addend: 0x0, symName: __ZNSt3__16vectorIiNS_9allocatorIiEEED2B7v160006Ev, symObjAddr: 0x4AC0, symBinAddr: 0x10000784C, symSize: 0x44 }
...
