---
triple:          'arm64-apple-darwin'
binary-path:     '/Users/spoofch/Documents/Lab_C++/Lab6/1'
relocations:
  - { offsetInCU: 0x2DC1, offset: 0x2DC1, size: 0x8, addend: 0x0, symName: __ZNSt3__124__put_character_sequenceB7v160006IcNS_11char_traitsIcEEEERNS_13basic_ostreamIT_T0_EES7_PKS4_m, symObjAddr: 0x468, symBinAddr: 0x100000F50, symSize: 0x1F4 }
  - { offsetInCU: 0x616C, offset: 0x616C, size: 0x8, addend: 0x0, symName: __ZNSt3__1lsB7v160006INS_11char_traitsIcEEEERNS_13basic_ostreamIcT_EES6_PKc, symObjAddr: 0x280, symBinAddr: 0x100000D68, symSize: 0x48 }
  - { offsetInCU: 0x61B2, offset: 0x61B2, size: 0x8, addend: 0x0, symName: __ZNSt3__14endlB7v160006IcNS_11char_traitsIcEEEERNS_13basic_ostreamIT_T0_EES7_, symObjAddr: 0x31C, symBinAddr: 0x100000E04, symSize: 0x58 }
  - { offsetInCU: 0x61F2, offset: 0x61F2, size: 0x8, addend: 0x0, symName: __ZNSt3__116__pad_and_outputB7v160006IcNS_11char_traitsIcEEEENS_19ostreambuf_iteratorIT_T0_EES6_PKS4_S8_S8_RNS_8ios_baseES4_, symObjAddr: 0x6C0, symBinAddr: 0x1000011A8, symSize: 0x248 }
  - { offsetInCU: 0x62C1, offset: 0x62C1, size: 0x8, addend: 0x0, symName: __ZNSt3__119__debug_db_insert_cB7v160006INS_12basic_stringIcNS_11char_traitsIcEENS_9allocatorIcEEEEEEvPT_, symObjAddr: 0xB7C, symBinAddr: 0x100001664, symSize: 0x10 }
  - { offsetInCU: 0x62F2, offset: 0x62F2, size: 0x8, addend: 0x0, symName: __ZNSt3__112__to_addressB7v160006IKcEEPT_S3_, symObjAddr: 0xC48, symBinAddr: 0x100001730, symSize: 0x14 }
  - { offsetInCU: 0x6327, offset: 0x6327, size: 0x8, addend: 0x0, symName: __ZNSt3__130__libcpp_is_constant_evaluatedB7v160006Ev, symObjAddr: 0xD74, symBinAddr: 0x10000185C, symSize: 0xC }
  - { offsetInCU: 0x6377, offset: 0x6377, size: 0x8, addend: 0x0, symName: __ZNSt3__19use_facetB7v160006INS_5ctypeIcEEEERKT_RKNS_6localeE, symObjAddr: 0xF2C, symBinAddr: 0x100001A14, symSize: 0x2C }
  - { offsetInCU: 0x6846, offset: 0x6846, size: 0x8, addend: 0x0, symName: __ZNSt3__118__constexpr_strlenB7v160006EPKc, symObjAddr: 0xFC4, symBinAddr: 0x100001AAC, symSize: 0x24 }
  - { offsetInCU: 0x6872, offset: 0x6872, size: 0x8, addend: 0x0, symName: __ZNSt3__119__debug_db_insert_cB7v160006INS_6vectorIiNS_9allocatorIiEEEEEEvPT_, symObjAddr: 0x1098, symBinAddr: 0x100001B80, symSize: 0x10 }
  - { offsetInCU: 0x68A3, offset: 0x68A3, size: 0x8, addend: 0x0, symName: __ZNSt3__118__debug_db_erase_cB7v160006INS_6vectorIiNS_9allocatorIiEEEEEEvPT_, symObjAddr: 0x1354, symBinAddr: 0x100001E3C, symSize: 0x10 }
  - { offsetInCU: 0x68D4, offset: 0x68D4, size: 0x8, addend: 0x0, symName: __ZNSt3__112__to_addressB7v160006IiEEPT_S2_, symObjAddr: 0x1498, symBinAddr: 0x100001F80, symSize: 0x14 }
  - { offsetInCU: 0x6909, offset: 0x6909, size: 0x8, addend: 0x0, symName: __ZNSt3__119__libcpp_deallocateB7v160006EPvmm, symObjAddr: 0x15FC, symBinAddr: 0x1000020E4, symSize: 0x30 }
  - { offsetInCU: 0x6951, offset: 0x6951, size: 0x8, addend: 0x0, symName: __ZNSt3__127__do_deallocate_handle_sizeB7v160006IJEEEvPvmDpT_, symObjAddr: 0x162C, symBinAddr: 0x100002114, symSize: 0x28 }
  - { offsetInCU: 0x698F, offset: 0x698F, size: 0x8, addend: 0x0, symName: __ZNSt3__124__libcpp_operator_deleteB7v160006IJPvEEEvDpT_, symObjAddr: 0x1654, symBinAddr: 0x10000213C, symSize: 0x24 }
  - { offsetInCU: 0x69C4, offset: 0x69C4, size: 0x8, addend: 0x0, symName: __ZNSt3__13maxB7v160006ImEERKT_S3_S3_, symObjAddr: 0x1CDC, symBinAddr: 0x1000027C4, symSize: 0x2C }
  - { offsetInCU: 0x6A07, offset: 0x6A07, size: 0x8, addend: 0x0, symName: __ZNSt3__13minB7v160006ImEERKT_S3_S3_, symObjAddr: 0x1D08, symBinAddr: 0x1000027F0, symSize: 0x2C }
  - { offsetInCU: 0x6C4B, offset: 0x6C4B, size: 0x8, addend: 0x0, symName: __ZNSt3__13minB7v160006ImNS_6__lessImmEEEERKT_S5_S5_T0_, symObjAddr: 0x1D94, symBinAddr: 0x10000287C, symSize: 0x54 }
  - { offsetInCU: 0x6CE0, offset: 0x6CE0, size: 0x8, addend: 0x0, symName: __ZNSt3__120__throw_length_errorB7v160006EPKc, symObjAddr: 0x1E70, symBinAddr: 0x100002958, symSize: 0x64 }
  - { offsetInCU: 0x6D08, offset: 0x6D08, size: 0x8, addend: 0x0, symName: __ZNSt3__13maxB7v160006ImNS_6__lessImmEEEERKT_S5_S5_T0_, symObjAddr: 0x1F54, symBinAddr: 0x100002A3C, symSize: 0x54 }
  - { offsetInCU: 0x6D62, offset: 0x6D62, size: 0x8, addend: 0x0, symName: __ZNSt3__119__allocate_at_leastB7v160006INS_9allocatorIiEEEENS_19__allocation_resultINS_16allocator_traitsIT_E7pointerEEERS5_m, symObjAddr: 0x20B8, symBinAddr: 0x100002BA0, symSize: 0x40 }
  - { offsetInCU: 0x6DA5, offset: 0x6DA5, size: 0x8, addend: 0x0, symName: __ZNSt3__117__libcpp_allocateB7v160006Emm, symObjAddr: 0x2268, symBinAddr: 0x100002D50, symSize: 0x28 }
  - { offsetInCU: 0x6DE2, offset: 0x6DE2, size: 0x8, addend: 0x0, symName: __ZNSt3__121__libcpp_operator_newB7v160006IJmEEEPvDpT_, symObjAddr: 0x2290, symBinAddr: 0x100002D78, symSize: 0x24 }
  - { offsetInCU: 0x6E1B, offset: 0x6E1B, size: 0x8, addend: 0x0, symName: __ZNSt3__142__uninitialized_allocator_move_if_noexceptB7v160006INS_9allocatorIiEENS_16reverse_iteratorIPiEES5_ivEET1_RT_T0_S9_S6_, symObjAddr: 0x2318, symBinAddr: 0x100002E00, symSize: 0xE8 }
  - { offsetInCU: 0x6E98, offset: 0x6E98, size: 0x8, addend: 0x0, symName: __ZNSt3__14swapB7v160006IPiEEvRT_S3_, symObjAddr: 0x244C, symBinAddr: 0x100002F34, symSize: 0x3C }
  - { offsetInCU: 0x6EE9, offset: 0x6EE9, size: 0x8, addend: 0x0, symName: __ZNSt3__125__debug_db_invalidate_allB7v160006INS_6vectorIiNS_9allocatorIiEEEEEEvPT_, symObjAddr: 0x2534, symBinAddr: 0x10000301C, symSize: 0x10 }
  - { offsetInCU: 0x6F1A, offset: 0x6F1A, size: 0x8, addend: 0x0, symName: __ZNSt3__1neB7v160006IPiS1_EEbRKNS_16reverse_iteratorIT_EERKNS2_IT0_EE, symObjAddr: 0x2544, symBinAddr: 0x10000302C, symSize: 0x48 }
  - { offsetInCU: 0x6F8B, offset: 0x6F8B, size: 0x8, addend: 0x0, symName: __ZNSt3__114__construct_atB7v160006IiJiEPiEEPT_S3_DpOT0_, symObjAddr: 0x258C, symBinAddr: 0x100003074, symSize: 0x2C }
  - { offsetInCU: 0x6FFB, offset: 0x6FFB, size: 0x8, addend: 0x0, symName: __ZNSt3__112__to_addressB7v160006INS_16reverse_iteratorIPiEEvEENS_5decayIDTclsr19__to_address_helperIT_EE6__callclsr3stdE7declvalIRKS5_EEEEE4typeES7_, symObjAddr: 0x25B8, symBinAddr: 0x1000030A0, symSize: 0x24 }
  - { offsetInCU: 0x7031, offset: 0x7031, size: 0x8, addend: 0x0, symName: __ZNSt3__14moveB7v160006INS_16reverse_iteratorIPiEES3_EET0_T_S5_S4_, symObjAddr: 0x2624, symBinAddr: 0x10000310C, symSize: 0x78 }
  - { offsetInCU: 0x70B4, offset: 0x70B4, size: 0x8, addend: 0x0, symName: __ZNSt3__16__moveB7v160006INS_17_ClassicAlgPolicyENS_16reverse_iteratorIPiEES4_S4_EENS_4pairIT0_T2_EES6_T1_S7_, symObjAddr: 0x270C, symBinAddr: 0x1000031F4, symSize: 0x64 }
  - { offsetInCU: 0x7120, offset: 0x7120, size: 0x8, addend: 0x0, symName: __ZNSt3__123__dispatch_copy_or_moveB7v160006INS_17_ClassicAlgPolicyENS_11__move_loopIS1_EENS_14__move_trivialENS_16reverse_iteratorIPiEES7_S7_EENS_4pairIT2_T4_EES9_T3_SA_, symObjAddr: 0x2770, symBinAddr: 0x100003258, symSize: 0x7C }
  - { offsetInCU: 0x719E, offset: 0x719E, size: 0x8, addend: 0x0, symName: __ZNSt3__121__unwrap_and_dispatchB7v160006INS_10__overloadINS_11__move_loopINS_17_ClassicAlgPolicyEEENS_14__move_trivialEEENS_16reverse_iteratorIPiEES9_S9_Li0EEENS_4pairIT0_T2_EESB_T1_SC_, symObjAddr: 0x27EC, symBinAddr: 0x1000032D4, symSize: 0x12C }
  - { offsetInCU: 0x722E, offset: 0x722E, size: 0x8, addend: 0x0, symName: __ZNSt3__114__unwrap_rangeB7v160006INS_16reverse_iteratorIPiEES3_EENS_4pairIT0_S5_EET_S7_, symObjAddr: 0x2918, symBinAddr: 0x100003400, symSize: 0x84 }
  - { offsetInCU: 0x7382, offset: 0x7382, size: 0x8, addend: 0x0, symName: __ZNSt3__113__unwrap_iterB7v160006INS_16reverse_iteratorIPiEENS_18__unwrap_iter_implIS3_Lb0EEELi0EEEDTclsrT0_8__unwrapclsr3stdE7declvalIT_EEEES7_, symObjAddr: 0x2A3C, symBinAddr: 0x100003524, symSize: 0x44 }
  - { offsetInCU: 0x73C6, offset: 0x73C6, size: 0x8, addend: 0x0, symName: __ZNSt3__19make_pairB7v160006INS_16reverse_iteratorIPiEES3_EENS_4pairINS_18__unwrap_ref_decayIT_E4typeENS5_IT0_E4typeEEEOS6_OS9_, symObjAddr: 0x2A80, symBinAddr: 0x100003568, symSize: 0x38 }
  - { offsetInCU: 0x7415, offset: 0x7415, size: 0x8, addend: 0x0, symName: __ZNSt3__114__rewrap_rangeB7v160006INS_16reverse_iteratorIPiEES3_EET_S4_T0_, symObjAddr: 0x2AB8, symBinAddr: 0x1000035A0, symSize: 0x5C }
  - { offsetInCU: 0x7461, offset: 0x7461, size: 0x8, addend: 0x0, symName: __ZNSt3__113__rewrap_iterB7v160006INS_16reverse_iteratorIPiEES3_NS_18__unwrap_iter_implIS3_Lb0EEEEET_S6_T0_, symObjAddr: 0x2B14, symBinAddr: 0x1000035FC, symSize: 0x88 }
  - { offsetInCU: 0x7746, offset: 0x7746, size: 0x8, addend: 0x0, symName: __ZSt28__throw_bad_array_new_lengthB7v160006v, symObjAddr: 0x2234, symBinAddr: 0x100002D1C, symSize: 0x34 }
  - { offsetInCU: 0x7CC5, offset: 0x7CC5, size: 0x8, addend: 0x0, symName: __ZNSt3__16vectorIiNS_9allocatorIiEEE26__swap_out_circular_bufferERNS_14__split_bufferIiRS2_EE, symObjAddr: 0x1B08, symBinAddr: 0x1000025F0, symSize: 0x118 }
  - { offsetInCU: 0x9EF0, offset: 0x9EF0, size: 0x8, addend: 0x0, symName: _main, symObjAddr: 0x0, symBinAddr: 0x100000AE8, symSize: 0x280 }
  - { offsetInCU: 0x9F74, offset: 0x9F74, size: 0x8, addend: 0x0, symName: __ZNKSt3__19basic_iosIcNS_11char_traitsIcEEE4failB7v160006Ev, symObjAddr: 0x2C8, symBinAddr: 0x100000DB0, symSize: 0x28 }
  - { offsetInCU: 0x9F99, offset: 0x9F99, size: 0x8, addend: 0x0, symName: __ZNSt3__113basic_ostreamIcNS_11char_traitsIcEEElsB7v160006EPFRS3_S4_E, symObjAddr: 0x2F0, symBinAddr: 0x100000DD8, symSize: 0x2C }
  - { offsetInCU: 0x9FCC, offset: 0x9FCC, size: 0x8, addend: 0x0, symName: __ZNSt3__16vectorIiNS_9allocatorIiEEEC1B7v160006Ev, symObjAddr: 0x374, symBinAddr: 0x100000E5C, symSize: 0x2C }
  - { offsetInCU: 0x9FF4, offset: 0x9FF4, size: 0x8, addend: 0x0, symName: __ZNSt3__16vectorIiNS_9allocatorIiEEE9push_backB7v160006ERKi, symObjAddr: 0x3A0, symBinAddr: 0x100000E88, symSize: 0x6C }
  - { offsetInCU: 0xA02A, offset: 0xA02A, size: 0x8, addend: 0x0, symName: __ZNSt3__16vectorIiNS_9allocatorIiEEEixB7v160006Em, symObjAddr: 0x40C, symBinAddr: 0x100000EF4, symSize: 0x24 }
  - { offsetInCU: 0xA060, offset: 0xA060, size: 0x8, addend: 0x0, symName: __ZNSt3__16vectorIiNS_9allocatorIiEEED1B7v160006Ev, symObjAddr: 0x430, symBinAddr: 0x100000F18, symSize: 0x2C }
  - { offsetInCU: 0xA089, offset: 0xA089, size: 0x8, addend: 0x0, symName: __ZNSt3__111char_traitsIcE6lengthEPKc, symObjAddr: 0x65C, symBinAddr: 0x100001144, symSize: 0x48 }
  - { offsetInCU: 0xA0CA, offset: 0xA0CA, size: 0x8, addend: 0x0, symName: __ZNKSt3__113basic_ostreamIcNS_11char_traitsIcEEE6sentrycvbB7v160006Ev, symObjAddr: 0x6A4, symBinAddr: 0x10000118C, symSize: 0x1C }
  - { offsetInCU: 0xA0EF, offset: 0xA0EF, size: 0x8, addend: 0x0, symName: __ZNSt3__119ostreambuf_iteratorIcNS_11char_traitsIcEEEC1B7v160006ERNS_13basic_ostreamIcS2_EE, symObjAddr: 0x908, symBinAddr: 0x1000013F0, symSize: 0x34 }
  - { offsetInCU: 0xA126, offset: 0xA126, size: 0x8, addend: 0x0, symName: __ZNKSt3__18ios_base5flagsB7v160006Ev, symObjAddr: 0x93C, symBinAddr: 0x100001424, symSize: 0x18 }
  - { offsetInCU: 0xA14C, offset: 0xA14C, size: 0x8, addend: 0x0, symName: __ZNKSt3__19basic_iosIcNS_11char_traitsIcEEE4fillB7v160006Ev, symObjAddr: 0x954, symBinAddr: 0x10000143C, symSize: 0x64 }
  - { offsetInCU: 0xA173, offset: 0xA173, size: 0x8, addend: 0x0, symName: __ZNKSt3__119ostreambuf_iteratorIcNS_11char_traitsIcEEE6failedB7v160006Ev, symObjAddr: 0x9B8, symBinAddr: 0x1000014A0, symSize: 0x24 }
  - { offsetInCU: 0xA198, offset: 0xA198, size: 0x8, addend: 0x0, symName: __ZNSt3__19basic_iosIcNS_11char_traitsIcEEE8setstateB7v160006Ej, symObjAddr: 0x9DC, symBinAddr: 0x1000014C4, symSize: 0x2C }
  - { offsetInCU: 0xA1CC, offset: 0xA1CC, size: 0x8, addend: 0x0, symName: __ZNKSt3__18ios_base5widthB7v160006Ev, symObjAddr: 0xA08, symBinAddr: 0x1000014F0, symSize: 0x18 }
  - { offsetInCU: 0xA1F3, offset: 0xA1F3, size: 0x8, addend: 0x0, symName: __ZNSt3__115basic_streambufIcNS_11char_traitsIcEEE5sputnB7v160006EPKcl, symObjAddr: 0xA20, symBinAddr: 0x100001508, symSize: 0x3C }
  - { offsetInCU: 0xA234, offset: 0xA234, size: 0x8, addend: 0x0, symName: __ZNSt3__112basic_stringIcNS_11char_traitsIcEENS_9allocatorIcEEEC1B7v160006Emc, symObjAddr: 0xA5C, symBinAddr: 0x100001544, symSize: 0x3C }
  - { offsetInCU: 0xA27B, offset: 0xA27B, size: 0x8, addend: 0x0, symName: __ZNKSt3__112basic_stringIcNS_11char_traitsIcEENS_9allocatorIcEEE4dataB7v160006Ev, symObjAddr: 0xA98, symBinAddr: 0x100001580, symSize: 0x28 }
  - { offsetInCU: 0xA2A0, offset: 0xA2A0, size: 0x8, addend: 0x0, symName: __ZNSt3__18ios_base5widthB7v160006El, symObjAddr: 0xAC0, symBinAddr: 0x1000015A8, symSize: 0x2C }
  - { offsetInCU: 0xA2E5, offset: 0xA2E5, size: 0x8, addend: 0x0, symName: __ZNSt3__112basic_stringIcNS_11char_traitsIcEENS_9allocatorIcEEEC2B7v160006Emc, symObjAddr: 0xAEC, symBinAddr: 0x1000015D4, symSize: 0x54 }
  - { offsetInCU: 0xA331, offset: 0xA331, size: 0x8, addend: 0x0, symName: __ZNSt3__117__compressed_pairINS_12basic_stringIcNS_11char_traitsIcEENS_9allocatorIcEEE5__repES5_EC1B7v160006INS_18__default_init_tagESA_EEOT_OT0_, symObjAddr: 0xB40, symBinAddr: 0x100001628, symSize: 0x3C }
  - { offsetInCU: 0xA388, offset: 0xA388, size: 0x8, addend: 0x0, symName: __ZNSt3__117__compressed_pairINS_12basic_stringIcNS_11char_traitsIcEENS_9allocatorIcEEE5__repES5_EC2B7v160006INS_18__default_init_tagESA_EEOT_OT0_, symObjAddr: 0xB8C, symBinAddr: 0x100001674, symSize: 0x3C }
  - { offsetInCU: 0xA3DF, offset: 0xA3DF, size: 0x8, addend: 0x0, symName: __ZNSt3__122__compressed_pair_elemINS_12basic_stringIcNS_11char_traitsIcEENS_9allocatorIcEEE5__repELi0ELb0EEC2B7v160006ENS_18__default_init_tagE, symObjAddr: 0xBC8, symBinAddr: 0x1000016B0, symSize: 0x14 }
  - { offsetInCU: 0xA413, offset: 0xA413, size: 0x8, addend: 0x0, symName: __ZNSt3__122__compressed_pair_elemINS_9allocatorIcEELi1ELb1EEC2B7v160006ENS_18__default_init_tagE, symObjAddr: 0xBDC, symBinAddr: 0x1000016C4, symSize: 0x2C }
  - { offsetInCU: 0xA447, offset: 0xA447, size: 0x8, addend: 0x0, symName: __ZNSt3__19allocatorIcEC2B7v160006Ev, symObjAddr: 0xC08, symBinAddr: 0x1000016F0, symSize: 0x2C }
  - { offsetInCU: 0xA470, offset: 0xA470, size: 0x8, addend: 0x0, symName: __ZNSt3__116__non_trivial_ifILb1ENS_9allocatorIcEEEC2B7v160006Ev, symObjAddr: 0xC34, symBinAddr: 0x10000171C, symSize: 0x14 }
  - { offsetInCU: 0xA499, offset: 0xA499, size: 0x8, addend: 0x0, symName: __ZNKSt3__112basic_stringIcNS_11char_traitsIcEENS_9allocatorIcEEE13__get_pointerB7v160006Ev, symObjAddr: 0xC5C, symBinAddr: 0x100001744, symSize: 0x54 }
  - { offsetInCU: 0xA4BE, offset: 0xA4BE, size: 0x8, addend: 0x0, symName: __ZNKSt3__112basic_stringIcNS_11char_traitsIcEENS_9allocatorIcEEE9__is_longB7v160006Ev, symObjAddr: 0xCB0, symBinAddr: 0x100001798, symSize: 0x74 }
  - { offsetInCU: 0xA4E3, offset: 0xA4E3, size: 0x8, addend: 0x0, symName: __ZNKSt3__112basic_stringIcNS_11char_traitsIcEENS_9allocatorIcEEE18__get_long_pointerB7v160006Ev, symObjAddr: 0xD24, symBinAddr: 0x10000180C, symSize: 0x28 }
  - { offsetInCU: 0xA508, offset: 0xA508, size: 0x8, addend: 0x0, symName: __ZNKSt3__112basic_stringIcNS_11char_traitsIcEENS_9allocatorIcEEE19__get_short_pointerB7v160006Ev, symObjAddr: 0xD4C, symBinAddr: 0x100001834, symSize: 0x28 }
  - { offsetInCU: 0xA52D, offset: 0xA52D, size: 0x8, addend: 0x0, symName: __ZNKSt3__117__compressed_pairINS_12basic_stringIcNS_11char_traitsIcEENS_9allocatorIcEEE5__repES5_E5firstB7v160006Ev, symObjAddr: 0xD80, symBinAddr: 0x100001868, symSize: 0x24 }
  - { offsetInCU: 0xA552, offset: 0xA552, size: 0x8, addend: 0x0, symName: __ZNKSt3__122__compressed_pair_elemINS_12basic_stringIcNS_11char_traitsIcEENS_9allocatorIcEEE5__repELi0ELb0EE5__getB7v160006Ev, symObjAddr: 0xDA4, symBinAddr: 0x10000188C, symSize: 0x14 }
  - { offsetInCU: 0xA577, offset: 0xA577, size: 0x8, addend: 0x0, symName: __ZNSt3__114pointer_traitsIPKcE10pointer_toB7v160006ERS1_, symObjAddr: 0xDB8, symBinAddr: 0x1000018A0, symSize: 0x14 }
  - { offsetInCU: 0xA59A, offset: 0xA59A, size: 0x8, addend: 0x0, symName: __ZNSt3__119ostreambuf_iteratorIcNS_11char_traitsIcEEEC2B7v160006ERNS_13basic_ostreamIcS2_EE, symObjAddr: 0xDCC, symBinAddr: 0x1000018B4, symSize: 0x68 }
  - { offsetInCU: 0xA5D0, offset: 0xA5D0, size: 0x8, addend: 0x0, symName: __ZNKSt3__19basic_iosIcNS_11char_traitsIcEEE5rdbufB7v160006Ev, symObjAddr: 0xE34, symBinAddr: 0x10000191C, symSize: 0x24 }
  - { offsetInCU: 0xA5F7, offset: 0xA5F7, size: 0x8, addend: 0x0, symName: __ZNKSt3__18ios_base5rdbufB7v160006Ev, symObjAddr: 0xE58, symBinAddr: 0x100001940, symSize: 0x18 }
  - { offsetInCU: 0xA61C, offset: 0xA61C, size: 0x8, addend: 0x0, symName: __ZNSt3__111char_traitsIcE11eq_int_typeEii, symObjAddr: 0xE70, symBinAddr: 0x100001958, symSize: 0x28 }
  - { offsetInCU: 0xA64D, offset: 0xA64D, size: 0x8, addend: 0x0, symName: __ZNSt3__111char_traitsIcE3eofEv, symObjAddr: 0xE98, symBinAddr: 0x100001980, symSize: 0x8 }
  - { offsetInCU: 0xA660, offset: 0xA660, size: 0x8, addend: 0x0, symName: __ZNKSt3__19basic_iosIcNS_11char_traitsIcEEE5widenB7v160006Ec, symObjAddr: 0xEA0, symBinAddr: 0x100001988, symSize: 0x8C }
  - { offsetInCU: 0xA6CD, offset: 0xA6CD, size: 0x8, addend: 0x0, symName: __ZNKSt3__15ctypeIcE5widenB7v160006Ec, symObjAddr: 0xF58, symBinAddr: 0x100001A40, symSize: 0x38 }
  - { offsetInCU: 0xA700, offset: 0xA700, size: 0x8, addend: 0x0, symName: __ZNSt3__18ios_base8setstateB7v160006Ej, symObjAddr: 0xF90, symBinAddr: 0x100001A78, symSize: 0x34 }
  - { offsetInCU: 0xA736, offset: 0xA736, size: 0x8, addend: 0x0, symName: __ZNKSt3__18ios_base4failB7v160006Ev, symObjAddr: 0xFE8, symBinAddr: 0x100001AD0, symSize: 0x28 }
  - { offsetInCU: 0xA75D, offset: 0xA75D, size: 0x8, addend: 0x0, symName: __ZNSt3__16vectorIiNS_9allocatorIiEEEC2B7v160006Ev, symObjAddr: 0x1010, symBinAddr: 0x100001AF8, symSize: 0x4C }
  - { offsetInCU: 0xA78B, offset: 0xA78B, size: 0x8, addend: 0x0, symName: __ZNSt3__117__compressed_pairIPiNS_9allocatorIiEEEC1B7v160006IDnNS_18__default_init_tagEEEOT_OT0_, symObjAddr: 0x105C, symBinAddr: 0x100001B44, symSize: 0x3C }
  - { offsetInCU: 0xA7E2, offset: 0xA7E2, size: 0x8, addend: 0x0, symName: __ZNSt3__117__compressed_pairIPiNS_9allocatorIiEEEC2B7v160006IDnNS_18__default_init_tagEEEOT_OT0_, symObjAddr: 0x10A8, symBinAddr: 0x100001B90, symSize: 0x40 }
  - { offsetInCU: 0xA839, offset: 0xA839, size: 0x8, addend: 0x0, symName: __ZNSt3__122__compressed_pair_elemIPiLi0ELb0EEC2B7v160006IDnvEEOT_, symObjAddr: 0x10E8, symBinAddr: 0x100001BD0, symSize: 0x1C }
  - { offsetInCU: 0xA87A, offset: 0xA87A, size: 0x8, addend: 0x0, symName: __ZNSt3__122__compressed_pair_elemINS_9allocatorIiEELi1ELb1EEC2B7v160006ENS_18__default_init_tagE, symObjAddr: 0x1104, symBinAddr: 0x100001BEC, symSize: 0x2C }
  - { offsetInCU: 0xA8AE, offset: 0xA8AE, size: 0x8, addend: 0x0, symName: __ZNSt3__19allocatorIiEC2B7v160006Ev, symObjAddr: 0x1130, symBinAddr: 0x100001C18, symSize: 0x2C }
  - { offsetInCU: 0xA8D7, offset: 0xA8D7, size: 0x8, addend: 0x0, symName: __ZNSt3__116__non_trivial_ifILb1ENS_9allocatorIiEEEC2B7v160006Ev, symObjAddr: 0x115C, symBinAddr: 0x100001C44, symSize: 0x14 }
  - { offsetInCU: 0xA900, offset: 0xA900, size: 0x8, addend: 0x0, symName: __ZNSt3__16vectorIiNS_9allocatorIiEEED2B7v160006Ev, symObjAddr: 0x1170, symBinAddr: 0x100001C58, symSize: 0x3C }
  - { offsetInCU: 0xA929, offset: 0xA929, size: 0x8, addend: 0x0, symName: __ZNSt3__16vectorIiNS_9allocatorIiEEE16__destroy_vectorC1ERS3_, symObjAddr: 0x11AC, symBinAddr: 0x100001C94, symSize: 0x34 }
  - { offsetInCU: 0xA961, offset: 0xA961, size: 0x8, addend: 0x0, symName: __ZNSt3__16vectorIiNS_9allocatorIiEEE16__destroy_vectorclB7v160006Ev, symObjAddr: 0x11E0, symBinAddr: 0x100001CC8, symSize: 0x9C }
  - { offsetInCU: 0xA986, offset: 0xA986, size: 0x8, addend: 0x0, symName: __ZNSt3__16vectorIiNS_9allocatorIiEEE16__destroy_vectorC2ERS3_, symObjAddr: 0x127C, symBinAddr: 0x100001D64, symSize: 0x20 }
  - { offsetInCU: 0xA9BE, offset: 0xA9BE, size: 0x8, addend: 0x0, symName: __ZNKSt3__16vectorIiNS_9allocatorIiEEE17__annotate_deleteB7v160006Ev, symObjAddr: 0x129C, symBinAddr: 0x100001D84, symSize: 0xB8 }
  - { offsetInCU: 0xA9E3, offset: 0xA9E3, size: 0x8, addend: 0x0, symName: __ZNSt3__16vectorIiNS_9allocatorIiEEE7__clearB7v160006Ev, symObjAddr: 0x1364, symBinAddr: 0x100001E4C, symSize: 0x28 }
  - { offsetInCU: 0xAA08, offset: 0xAA08, size: 0x8, addend: 0x0, symName: __ZNSt3__116allocator_traitsINS_9allocatorIiEEE10deallocateB7v160006ERS2_Pim, symObjAddr: 0x138C, symBinAddr: 0x100001E74, symSize: 0x34 }
  - { offsetInCU: 0xAA4A, offset: 0xAA4A, size: 0x8, addend: 0x0, symName: __ZNSt3__16vectorIiNS_9allocatorIiEEE7__allocB7v160006Ev, symObjAddr: 0x13C0, symBinAddr: 0x100001EA8, symSize: 0x28 }
  - { offsetInCU: 0xAA6F, offset: 0xAA6F, size: 0x8, addend: 0x0, symName: __ZNKSt3__16vectorIiNS_9allocatorIiEEE8capacityB7v160006Ev, symObjAddr: 0x13E8, symBinAddr: 0x100001ED0, symSize: 0x40 }
  - { offsetInCU: 0xAA94, offset: 0xAA94, size: 0x8, addend: 0x0, symName: __ZNKSt3__16vectorIiNS_9allocatorIiEEE31__annotate_contiguous_containerB7v160006EPKvS5_S5_S5_, symObjAddr: 0x1428, symBinAddr: 0x100001F10, symSize: 0x20 }
  - { offsetInCU: 0xAAE5, offset: 0xAAE5, size: 0x8, addend: 0x0, symName: __ZNKSt3__16vectorIiNS_9allocatorIiEEE4dataB7v160006Ev, symObjAddr: 0x1448, symBinAddr: 0x100001F30, symSize: 0x28 }
  - { offsetInCU: 0xAB0A, offset: 0xAB0A, size: 0x8, addend: 0x0, symName: __ZNKSt3__16vectorIiNS_9allocatorIiEEE4sizeB7v160006Ev, symObjAddr: 0x1470, symBinAddr: 0x100001F58, symSize: 0x28 }
  - { offsetInCU: 0xAB2F, offset: 0xAB2F, size: 0x8, addend: 0x0, symName: __ZNSt3__16vectorIiNS_9allocatorIiEEE22__base_destruct_at_endB7v160006EPi, symObjAddr: 0x14AC, symBinAddr: 0x100001F94, symSize: 0xA0 }
  - { offsetInCU: 0xAB72, offset: 0xAB72, size: 0x8, addend: 0x0, symName: __ZNSt3__116allocator_traitsINS_9allocatorIiEEE7destroyB7v160006IivEEvRS2_PT_, symObjAddr: 0x154C, symBinAddr: 0x100002034, symSize: 0x2C }
  - { offsetInCU: 0xABAF, offset: 0xABAF, size: 0x8, addend: 0x0, symName: __ZNSt3__19allocatorIiE7destroyB7v160006EPi, symObjAddr: 0x1578, symBinAddr: 0x100002060, symSize: 0x14 }
  - { offsetInCU: 0xABE2, offset: 0xABE2, size: 0x8, addend: 0x0, symName: __ZNSt3__19allocatorIiE10deallocateB7v160006EPim, symObjAddr: 0x158C, symBinAddr: 0x100002074, symSize: 0x70 }
  - { offsetInCU: 0xAC23, offset: 0xAC23, size: 0x8, addend: 0x0, symName: __ZNSt3__117__compressed_pairIPiNS_9allocatorIiEEE6secondB7v160006Ev, symObjAddr: 0x1678, symBinAddr: 0x100002160, symSize: 0x24 }
  - { offsetInCU: 0xAC48, offset: 0xAC48, size: 0x8, addend: 0x0, symName: __ZNSt3__122__compressed_pair_elemINS_9allocatorIiEELi1ELb1EE5__getB7v160006Ev, symObjAddr: 0x169C, symBinAddr: 0x100002184, symSize: 0x14 }
  - { offsetInCU: 0xAC6D, offset: 0xAC6D, size: 0x8, addend: 0x0, symName: __ZNKSt3__16vectorIiNS_9allocatorIiEEE9__end_capB7v160006Ev, symObjAddr: 0x16B0, symBinAddr: 0x100002198, symSize: 0x28 }
  - { offsetInCU: 0xAC92, offset: 0xAC92, size: 0x8, addend: 0x0, symName: __ZNKSt3__117__compressed_pairIPiNS_9allocatorIiEEE5firstB7v160006Ev, symObjAddr: 0x16D8, symBinAddr: 0x1000021C0, symSize: 0x24 }
  - { offsetInCU: 0xACB7, offset: 0xACB7, size: 0x8, addend: 0x0, symName: __ZNKSt3__122__compressed_pair_elemIPiLi0ELb0EE5__getB7v160006Ev, symObjAddr: 0x16FC, symBinAddr: 0x1000021E4, symSize: 0x14 }
  - { offsetInCU: 0xACDC, offset: 0xACDC, size: 0x8, addend: 0x0, symName: __ZNSt3__16vectorIiNS_9allocatorIiEEE9__end_capB7v160006Ev, symObjAddr: 0x1710, symBinAddr: 0x1000021F8, symSize: 0x28 }
  - { offsetInCU: 0xAD01, offset: 0xAD01, size: 0x8, addend: 0x0, symName: __ZNSt3__16vectorIiNS_9allocatorIiEEE22__construct_one_at_endB7v160006IJRKiEEEvDpOT_, symObjAddr: 0x1738, symBinAddr: 0x100002220, symSize: 0x98 }
  - { offsetInCU: 0xAD4E, offset: 0xAD4E, size: 0x8, addend: 0x0, symName: __ZNSt3__16vectorIiNS_9allocatorIiEEE21__push_back_slow_pathIRKiEEvOT_, symObjAddr: 0x17D0, symBinAddr: 0x1000022B8, symSize: 0xE0 }
  - { offsetInCU: 0xADAB, offset: 0xADAB, size: 0x8, addend: 0x0, symName: __ZNSt3__117__compressed_pairIPiNS_9allocatorIiEEE5firstB7v160006Ev, symObjAddr: 0x18B0, symBinAddr: 0x100002398, symSize: 0x24 }
  - { offsetInCU: 0xADD0, offset: 0xADD0, size: 0x8, addend: 0x0, symName: __ZNSt3__122__compressed_pair_elemIPiLi0ELb0EE5__getB7v160006Ev, symObjAddr: 0x18D4, symBinAddr: 0x1000023BC, symSize: 0x14 }
  - { offsetInCU: 0xAE0E, offset: 0xAE0E, size: 0x8, addend: 0x0, symName: __ZNSt3__16vectorIiNS_9allocatorIiEEE21_ConstructTransactionC1B7v160006ERS3_m, symObjAddr: 0x18E8, symBinAddr: 0x1000023D0, symSize: 0x3C }
  - { offsetInCU: 0xAE55, offset: 0xAE55, size: 0x8, addend: 0x0, symName: __ZNSt3__116allocator_traitsINS_9allocatorIiEEE9constructB7v160006IiJRKiEvEEvRS2_PT_DpOT0_, symObjAddr: 0x1924, symBinAddr: 0x10000240C, symSize: 0x34 }
  - { offsetInCU: 0xAEAC, offset: 0xAEAC, size: 0x8, addend: 0x0, symName: __ZNSt3__16vectorIiNS_9allocatorIiEEE21_ConstructTransactionD1B7v160006Ev, symObjAddr: 0x1958, symBinAddr: 0x100002440, symSize: 0x2C }
  - { offsetInCU: 0xAED5, offset: 0xAED5, size: 0x8, addend: 0x0, symName: __ZNSt3__16vectorIiNS_9allocatorIiEEE21_ConstructTransactionC2B7v160006ERS3_m, symObjAddr: 0x1984, symBinAddr: 0x10000246C, symSize: 0x44 }
  - { offsetInCU: 0xAF1C, offset: 0xAF1C, size: 0x8, addend: 0x0, symName: __ZNSt3__19allocatorIiE9constructB7v160006IiJRKiEEEvPT_DpOT0_, symObjAddr: 0x19C8, symBinAddr: 0x1000024B0, symSize: 0x28 }
  - { offsetInCU: 0xAF71, offset: 0xAF71, size: 0x8, addend: 0x0, symName: __ZNSt3__16vectorIiNS_9allocatorIiEEE21_ConstructTransactionD2B7v160006Ev, symObjAddr: 0x19F0, symBinAddr: 0x1000024D8, symSize: 0x20 }
  - { offsetInCU: 0xAF99, offset: 0xAF99, size: 0x8, addend: 0x0, symName: __ZNKSt3__16vectorIiNS_9allocatorIiEEE11__recommendB7v160006Em, symObjAddr: 0x1A10, symBinAddr: 0x1000024F8, symSize: 0xB4 }
  - { offsetInCU: 0xAFED, offset: 0xAFED, size: 0x8, addend: 0x0, symName: __ZNSt3__114__split_bufferIiRNS_9allocatorIiEEEC1EmmS3_, symObjAddr: 0x1AC4, symBinAddr: 0x1000025AC, symSize: 0x44 }
  - { offsetInCU: 0xB042, offset: 0xB042, size: 0x8, addend: 0x0, symName: __ZNSt3__114__split_bufferIiRNS_9allocatorIiEEED1Ev, symObjAddr: 0x1C20, symBinAddr: 0x100002708, symSize: 0x2C }
  - { offsetInCU: 0xB06C, offset: 0xB06C, size: 0x8, addend: 0x0, symName: __ZNKSt3__16vectorIiNS_9allocatorIiEEE8max_sizeEv, symObjAddr: 0x1C4C, symBinAddr: 0x100002734, symSize: 0x74 }
  - { offsetInCU: 0xB093, offset: 0xB093, size: 0x8, addend: 0x0, symName: __ZNKSt3__16vectorIiNS_9allocatorIiEEE20__throw_length_errorB7v160006Ev, symObjAddr: 0x1CC0, symBinAddr: 0x1000027A8, symSize: 0x1C }
  - { offsetInCU: 0xB0C2, offset: 0xB0C2, size: 0x8, addend: 0x0, symName: __ZNSt3__116allocator_traitsINS_9allocatorIiEEE8max_sizeB7v160006IS2_vEEmRKS2_, symObjAddr: 0x1D34, symBinAddr: 0x10000281C, symSize: 0x24 }
  - { offsetInCU: 0xB0F0, offset: 0xB0F0, size: 0x8, addend: 0x0, symName: __ZNKSt3__16vectorIiNS_9allocatorIiEEE7__allocB7v160006Ev, symObjAddr: 0x1D58, symBinAddr: 0x100002840, symSize: 0x28 }
  - { offsetInCU: 0xB115, offset: 0xB115, size: 0x8, addend: 0x0, symName: __ZNSt3__114numeric_limitsIlE3maxB7v160006Ev, symObjAddr: 0x1D80, symBinAddr: 0x100002868, symSize: 0x14 }
  - { offsetInCU: 0xB13D, offset: 0xB13D, size: 0x8, addend: 0x0, symName: __ZNKSt3__16__lessImmEclB7v160006ERKmS3_, symObjAddr: 0x1DE8, symBinAddr: 0x1000028D0, symSize: 0x34 }
  - { offsetInCU: 0xB17E, offset: 0xB17E, size: 0x8, addend: 0x0, symName: __ZNKSt3__19allocatorIiE8max_sizeB7v160006Ev, symObjAddr: 0x1E1C, symBinAddr: 0x100002904, symSize: 0x14 }
  - { offsetInCU: 0xB1A3, offset: 0xB1A3, size: 0x8, addend: 0x0, symName: __ZNKSt3__117__compressed_pairIPiNS_9allocatorIiEEE6secondB7v160006Ev, symObjAddr: 0x1E30, symBinAddr: 0x100002918, symSize: 0x24 }
  - { offsetInCU: 0xB1C8, offset: 0xB1C8, size: 0x8, addend: 0x0, symName: __ZNKSt3__122__compressed_pair_elemINS_9allocatorIiEELi1ELb1EE5__getB7v160006Ev, symObjAddr: 0x1E54, symBinAddr: 0x10000293C, symSize: 0x14 }
  - { offsetInCU: 0xB1ED, offset: 0xB1ED, size: 0x8, addend: 0x0, symName: __ZNSt3__123__libcpp_numeric_limitsIlLb1EE3maxB7v160006Ev, symObjAddr: 0x1E68, symBinAddr: 0x100002950, symSize: 0x8 }
  - { offsetInCU: 0xB201, offset: 0xB201, size: 0x8, addend: 0x0, symName: __ZNSt12length_errorC1B7v160006EPKc, symObjAddr: 0x1ED4, symBinAddr: 0x1000029BC, symSize: 0x34 }
  - { offsetInCU: 0xB238, offset: 0xB238, size: 0x8, addend: 0x0, symName: __ZNSt12length_errorC2B7v160006EPKc, symObjAddr: 0x1F08, symBinAddr: 0x1000029F0, symSize: 0x4C }
  - { offsetInCU: 0xB26F, offset: 0xB26F, size: 0x8, addend: 0x0, symName: __ZNSt3__114__split_bufferIiRNS_9allocatorIiEEEC2EmmS3_, symObjAddr: 0x1FA8, symBinAddr: 0x100002A90, symSize: 0xD4 }
  - { offsetInCU: 0xB2E2, offset: 0xB2E2, size: 0x8, addend: 0x0, symName: __ZNSt3__117__compressed_pairIPiRNS_9allocatorIiEEEC1B7v160006IDnS4_EEOT_OT0_, symObjAddr: 0x207C, symBinAddr: 0x100002B64, symSize: 0x3C }
  - { offsetInCU: 0xB339, offset: 0xB339, size: 0x8, addend: 0x0, symName: __ZNSt3__114__split_bufferIiRNS_9allocatorIiEEE7__allocB7v160006Ev, symObjAddr: 0x20F8, symBinAddr: 0x100002BE0, symSize: 0x28 }
  - { offsetInCU: 0xB35E, offset: 0xB35E, size: 0x8, addend: 0x0, symName: __ZNSt3__114__split_bufferIiRNS_9allocatorIiEEE9__end_capB7v160006Ev, symObjAddr: 0x2120, symBinAddr: 0x100002C08, symSize: 0x28 }
  - { offsetInCU: 0xB383, offset: 0xB383, size: 0x8, addend: 0x0, symName: __ZNSt3__117__compressed_pairIPiRNS_9allocatorIiEEEC2B7v160006IDnS4_EEOT_OT0_, symObjAddr: 0x2148, symBinAddr: 0x100002C30, symSize: 0x48 }
  - { offsetInCU: 0xB3DA, offset: 0xB3DA, size: 0x8, addend: 0x0, symName: __ZNSt3__122__compressed_pair_elemIRNS_9allocatorIiEELi1ELb0EEC2B7v160006IS3_vEEOT_, symObjAddr: 0x2190, symBinAddr: 0x100002C78, symSize: 0x20 }
  - { offsetInCU: 0xB41B, offset: 0xB41B, size: 0x8, addend: 0x0, symName: __ZNSt3__19allocatorIiE8allocateB7v160006Em, symObjAddr: 0x21B0, symBinAddr: 0x100002C98, symSize: 0x84 }
  - { offsetInCU: 0xB44E, offset: 0xB44E, size: 0x8, addend: 0x0, symName: __ZNSt3__117__compressed_pairIPiRNS_9allocatorIiEEE6secondB7v160006Ev, symObjAddr: 0x22B4, symBinAddr: 0x100002D9C, symSize: 0x28 }
  - { offsetInCU: 0xB473, offset: 0xB473, size: 0x8, addend: 0x0, symName: __ZNSt3__122__compressed_pair_elemIRNS_9allocatorIiEELi1ELb0EE5__getB7v160006Ev, symObjAddr: 0x22DC, symBinAddr: 0x100002DC4, symSize: 0x18 }
  - { offsetInCU: 0xB498, offset: 0xB498, size: 0x8, addend: 0x0, symName: __ZNSt3__117__compressed_pairIPiRNS_9allocatorIiEEE5firstB7v160006Ev, symObjAddr: 0x22F4, symBinAddr: 0x100002DDC, symSize: 0x24 }
  - { offsetInCU: 0xB4BD, offset: 0xB4BD, size: 0x8, addend: 0x0, symName: __ZNSt3__116reverse_iteratorIPiEC1B7v160006ES1_, symObjAddr: 0x2400, symBinAddr: 0x100002EE8, symSize: 0x34 }
  - { offsetInCU: 0xB4F4, offset: 0xB4F4, size: 0x8, addend: 0x0, symName: __ZNKSt3__116reverse_iteratorIPiE4baseB7v160006Ev, symObjAddr: 0x2434, symBinAddr: 0x100002F1C, symSize: 0x18 }
  - { offsetInCU: 0xB519, offset: 0xB519, size: 0x8, addend: 0x0, symName: __ZNKSt3__16vectorIiNS_9allocatorIiEEE14__annotate_newB7v160006Em, symObjAddr: 0x2488, symBinAddr: 0x100002F70, symSize: 0xAC }
  - { offsetInCU: 0xB54D, offset: 0xB54D, size: 0x8, addend: 0x0, symName: __ZNKSt3__116reverse_iteratorIPiEdeB7v160006Ev, symObjAddr: 0x25DC, symBinAddr: 0x1000030C4, symSize: 0x28 }
  - { offsetInCU: 0xB580, offset: 0xB580, size: 0x8, addend: 0x0, symName: __ZNSt3__116reverse_iteratorIPiEppB7v160006Ev, symObjAddr: 0x2604, symBinAddr: 0x1000030EC, symSize: 0x20 }
  - { offsetInCU: 0xB5AA, offset: 0xB5AA, size: 0x8, addend: 0x0, symName: __ZNSt3__119__to_address_helperINS_16reverse_iteratorIPiEEvE6__callB7v160006ERKS3_, symObjAddr: 0x269C, symBinAddr: 0x100003184, symSize: 0x4C }
  - { offsetInCU: 0xB5CD, offset: 0xB5CD, size: 0x8, addend: 0x0, symName: __ZNKSt3__116reverse_iteratorIPiEptB7v160006Ev, symObjAddr: 0x26E8, symBinAddr: 0x1000031D0, symSize: 0x24 }
  - { offsetInCU: 0xB615, offset: 0xB615, size: 0x8, addend: 0x0, symName: __ZNKSt3__111__move_loopINS_17_ClassicAlgPolicyEEclB7v160006INS_16reverse_iteratorIPiEES6_S6_EENS_4pairIT_T1_EES8_T0_S9_, symObjAddr: 0x299C, symBinAddr: 0x100003484, symSize: 0xA0 }
  - { offsetInCU: 0xB684, offset: 0xB684, size: 0x8, addend: 0x0, symName: __ZNSt3__18_IterOpsINS_17_ClassicAlgPolicyEE11__iter_moveB7v160006IRNS_16reverse_iteratorIPiEEEENS_9enable_ifIXsr12is_referenceIDTdeclsr3stdE7declvalIRT_EEEEE5valueEDTclsr3stdE4movedeclsr3stdE7declvalISA_EEEEE4typeEOS9_, symObjAddr: 0x2B9C, symBinAddr: 0x100003684, symSize: 0x28 }
  - { offsetInCU: 0xB6B0, offset: 0xB6B0, size: 0x8, addend: 0x0, symName: __ZNSt3__18_IterOpsINS_17_ClassicAlgPolicyEE25__validate_iter_referenceB7v160006IRNS_16reverse_iteratorIPiEEEEvv, symObjAddr: 0x2BC4, symBinAddr: 0x1000036AC, symSize: 0x4 }
  - { offsetInCU: 0xB6CE, offset: 0xB6CE, size: 0x8, addend: 0x0, symName: __ZNSt3__118__unwrap_iter_implINS_16reverse_iteratorIPiEELb0EE8__unwrapB7v160006ES3_, symObjAddr: 0x2BC8, symBinAddr: 0x1000036B0, symSize: 0x24 }
  - { offsetInCU: 0xB6F1, offset: 0xB6F1, size: 0x8, addend: 0x0, symName: __ZNSt3__14pairINS_16reverse_iteratorIPiEES3_EC1B7v160006ERKS3_S6_, symObjAddr: 0x2BEC, symBinAddr: 0x1000036D4, symSize: 0x3C }
  - { offsetInCU: 0xB736, offset: 0xB736, size: 0x8, addend: 0x0, symName: __ZNSt3__14pairINS_16reverse_iteratorIPiEES3_EC2B7v160006ERKS3_S6_, symObjAddr: 0x2C28, symBinAddr: 0x100003710, symSize: 0x34 }
  - { offsetInCU: 0xB77B, offset: 0xB77B, size: 0x8, addend: 0x0, symName: __ZNSt3__118__unwrap_iter_implINS_16reverse_iteratorIPiEELb0EE8__rewrapB7v160006ES3_S3_, symObjAddr: 0x2C5C, symBinAddr: 0x100003744, symSize: 0x2C }
  - { offsetInCU: 0xB7A9, offset: 0xB7A9, size: 0x8, addend: 0x0, symName: __ZNSt3__116reverse_iteratorIPiEC2B7v160006ES1_, symObjAddr: 0x2C88, symBinAddr: 0x100003770, symSize: 0x28 }
  - { offsetInCU: 0xB7E0, offset: 0xB7E0, size: 0x8, addend: 0x0, symName: __ZNSt3__114__split_bufferIiRNS_9allocatorIiEEED2Ev, symObjAddr: 0x2CB0, symBinAddr: 0x100003798, symSize: 0x80 }
  - { offsetInCU: 0xB80B, offset: 0xB80B, size: 0x8, addend: 0x0, symName: __ZNSt3__114__split_bufferIiRNS_9allocatorIiEEE5clearB7v160006Ev, symObjAddr: 0x2D30, symBinAddr: 0x100003818, symSize: 0x28 }
  - { offsetInCU: 0xB830, offset: 0xB830, size: 0x8, addend: 0x0, symName: __ZNKSt3__114__split_bufferIiRNS_9allocatorIiEEE8capacityB7v160006Ev, symObjAddr: 0x2D58, symBinAddr: 0x100003840, symSize: 0x40 }
  - { offsetInCU: 0xB855, offset: 0xB855, size: 0x8, addend: 0x0, symName: __ZNSt3__114__split_bufferIiRNS_9allocatorIiEEE17__destruct_at_endB7v160006EPi, symObjAddr: 0x2D98, symBinAddr: 0x100003880, symSize: 0x2C }
  - { offsetInCU: 0xB887, offset: 0xB887, size: 0x8, addend: 0x0, symName: __ZNSt3__114__split_bufferIiRNS_9allocatorIiEEE17__destruct_at_endB7v160006EPiNS_17integral_constantIbLb0EEE, symObjAddr: 0x2DC4, symBinAddr: 0x1000038AC, symSize: 0x94 }
  - { offsetInCU: 0xB8C7, offset: 0xB8C7, size: 0x8, addend: 0x0, symName: __ZNKSt3__114__split_bufferIiRNS_9allocatorIiEEE9__end_capB7v160006Ev, symObjAddr: 0x2E58, symBinAddr: 0x100003940, symSize: 0x28 }
  - { offsetInCU: 0xB8EC, offset: 0xB8EC, size: 0x8, addend: 0x0, symName: __ZNKSt3__117__compressed_pairIPiRNS_9allocatorIiEEE5firstB7v160006Ev, symObjAddr: 0x2E80, symBinAddr: 0x100003968, symSize: 0x24 }
...
