---
triple:          'arm64-apple-darwin'
binary-path:     '/Users/spoofch/Documents/Lab_C++/Lab13/1'
relocations:
  - { offsetInCU: 0x47C3, offset: 0x47C3, size: 0x8, addend: 0x0, symName: __ZNSt3__124__put_character_sequenceB7v160006IcNS_11char_traitsIcEEEERNS_13basic_ostreamIT_T0_EES7_PKS4_m, symObjAddr: 0x2300, symBinAddr: 0x100006238, symSize: 0x1F4 }
  - { offsetInCU: 0x6306, offset: 0x6306, size: 0x8, addend: 0x0, symName: __ZNSt3__119__debug_db_insert_cB7v160006INS_6vectorIP11SpaceObjectNS_9allocatorIS3_EEEEEEvPT_, symObjAddr: 0x468, symBinAddr: 0x1000043A0, symSize: 0x10 }
  - { offsetInCU: 0x6337, offset: 0x6337, size: 0x8, addend: 0x0, symName: __ZNSt3__112__to_addressB7v160006IP11SpaceObjectEEPT_S4_, symObjAddr: 0x81C, symBinAddr: 0x100004754, symSize: 0x14 }
  - { offsetInCU: 0x636C, offset: 0x636C, size: 0x8, addend: 0x0, symName: __ZNSt3__13maxB7v160006ImEERKT_S3_S3_, symObjAddr: 0xC54, symBinAddr: 0x100004B8C, symSize: 0x2C }
  - { offsetInCU: 0x63AF, offset: 0x63AF, size: 0x8, addend: 0x0, symName: __ZNSt3__13minB7v160006ImEERKT_S3_S3_, symObjAddr: 0xC80, symBinAddr: 0x100004BB8, symSize: 0x2C }
  - { offsetInCU: 0x65F3, offset: 0x65F3, size: 0x8, addend: 0x0, symName: __ZNSt3__13minB7v160006ImNS_6__lessImmEEEERKT_S5_S5_T0_, symObjAddr: 0xD0C, symBinAddr: 0x100004C44, symSize: 0x54 }
  - { offsetInCU: 0x6688, offset: 0x6688, size: 0x8, addend: 0x0, symName: __ZNSt3__120__throw_length_errorB7v160006EPKc, symObjAddr: 0xDE8, symBinAddr: 0x100004D20, symSize: 0x64 }
  - { offsetInCU: 0x66B0, offset: 0x66B0, size: 0x8, addend: 0x0, symName: __ZNSt3__13maxB7v160006ImNS_6__lessImmEEEERKT_S5_S5_T0_, symObjAddr: 0xF2C, symBinAddr: 0x100004E64, symSize: 0x54 }
  - { offsetInCU: 0x670A, offset: 0x670A, size: 0x8, addend: 0x0, symName: __ZNSt3__119__allocate_at_leastB7v160006INS_9allocatorIP11SpaceObjectEEEENS_19__allocation_resultINS_16allocator_traitsIT_E7pointerEEERS7_m, symObjAddr: 0x1090, symBinAddr: 0x100004FC8, symSize: 0x40 }
  - { offsetInCU: 0x674D, offset: 0x674D, size: 0x8, addend: 0x0, symName: __ZNSt3__130__libcpp_is_constant_evaluatedB7v160006Ev, symObjAddr: 0x1240, symBinAddr: 0x100005178, symSize: 0xC }
  - { offsetInCU: 0x676A, offset: 0x676A, size: 0x8, addend: 0x0, symName: __ZNSt3__117__libcpp_allocateB7v160006Emm, symObjAddr: 0x124C, symBinAddr: 0x100005184, symSize: 0x28 }
  - { offsetInCU: 0x67A7, offset: 0x67A7, size: 0x8, addend: 0x0, symName: __ZNSt3__121__libcpp_operator_newB7v160006IJmEEEPvDpT_, symObjAddr: 0x1274, symBinAddr: 0x1000051AC, symSize: 0x24 }
  - { offsetInCU: 0x67E0, offset: 0x67E0, size: 0x8, addend: 0x0, symName: __ZNSt3__142__uninitialized_allocator_move_if_noexceptB7v160006INS_9allocatorIP11SpaceObjectEENS_16reverse_iteratorIPS3_EES7_S3_vEET1_RT_T0_SB_S8_, symObjAddr: 0x13B4, symBinAddr: 0x1000052EC, symSize: 0xE8 }
  - { offsetInCU: 0x685D, offset: 0x685D, size: 0x8, addend: 0x0, symName: __ZNSt3__14swapB7v160006IPP11SpaceObjectEEvRT_S5_, symObjAddr: 0x14E8, symBinAddr: 0x100005420, symSize: 0x3C }
  - { offsetInCU: 0x68AE, offset: 0x68AE, size: 0x8, addend: 0x0, symName: __ZNSt3__125__debug_db_invalidate_allB7v160006INS_6vectorIP11SpaceObjectNS_9allocatorIS3_EEEEEEvPT_, symObjAddr: 0x15D0, symBinAddr: 0x100005508, symSize: 0x10 }
  - { offsetInCU: 0x68DF, offset: 0x68DF, size: 0x8, addend: 0x0, symName: __ZNSt3__1neB7v160006IPP11SpaceObjectS3_EEbRKNS_16reverse_iteratorIT_EERKNS4_IT0_EE, symObjAddr: 0x1628, symBinAddr: 0x100005560, symSize: 0x48 }
  - { offsetInCU: 0x6950, offset: 0x6950, size: 0x8, addend: 0x0, symName: __ZNSt3__114__construct_atB7v160006IP11SpaceObjectJS2_EPS2_EEPT_S5_DpOT0_, symObjAddr: 0x1670, symBinAddr: 0x1000055A8, symSize: 0x2C }
  - { offsetInCU: 0x69C0, offset: 0x69C0, size: 0x8, addend: 0x0, symName: __ZNSt3__112__to_addressB7v160006INS_16reverse_iteratorIPP11SpaceObjectEEvEENS_5decayIDTclsr19__to_address_helperIT_EE6__callclsr3stdE7declvalIRKS7_EEEEE4typeES9_, symObjAddr: 0x169C, symBinAddr: 0x1000055D4, symSize: 0x24 }
  - { offsetInCU: 0x69F6, offset: 0x69F6, size: 0x8, addend: 0x0, symName: __ZNSt3__14moveB7v160006INS_16reverse_iteratorIPP11SpaceObjectEES5_EET0_T_S7_S6_, symObjAddr: 0x1708, symBinAddr: 0x100005640, symSize: 0x78 }
  - { offsetInCU: 0x6A79, offset: 0x6A79, size: 0x8, addend: 0x0, symName: __ZNSt3__16__moveB7v160006INS_17_ClassicAlgPolicyENS_16reverse_iteratorIPP11SpaceObjectEES6_S6_EENS_4pairIT0_T2_EES8_T1_S9_, symObjAddr: 0x17F0, symBinAddr: 0x100005728, symSize: 0x64 }
  - { offsetInCU: 0x6AE5, offset: 0x6AE5, size: 0x8, addend: 0x0, symName: __ZNSt3__123__dispatch_copy_or_moveB7v160006INS_17_ClassicAlgPolicyENS_11__move_loopIS1_EENS_14__move_trivialENS_16reverse_iteratorIPP11SpaceObjectEES9_S9_EENS_4pairIT2_T4_EESB_T3_SC_, symObjAddr: 0x1854, symBinAddr: 0x10000578C, symSize: 0x7C }
  - { offsetInCU: 0x6B63, offset: 0x6B63, size: 0x8, addend: 0x0, symName: __ZNSt3__121__unwrap_and_dispatchB7v160006INS_10__overloadINS_11__move_loopINS_17_ClassicAlgPolicyEEENS_14__move_trivialEEENS_16reverse_iteratorIPP11SpaceObjectEESB_SB_Li0EEENS_4pairIT0_T2_EESD_T1_SE_, symObjAddr: 0x18D0, symBinAddr: 0x100005808, symSize: 0x12C }
  - { offsetInCU: 0x6BF3, offset: 0x6BF3, size: 0x8, addend: 0x0, symName: __ZNSt3__114__unwrap_rangeB7v160006INS_16reverse_iteratorIPP11SpaceObjectEES5_EENS_4pairIT0_S7_EET_S9_, symObjAddr: 0x19FC, symBinAddr: 0x100005934, symSize: 0x84 }
  - { offsetInCU: 0x6D47, offset: 0x6D47, size: 0x8, addend: 0x0, symName: __ZNSt3__113__unwrap_iterB7v160006INS_16reverse_iteratorIPP11SpaceObjectEENS_18__unwrap_iter_implIS5_Lb0EEELi0EEEDTclsrT0_8__unwrapclsr3stdE7declvalIT_EEEES9_, symObjAddr: 0x1B20, symBinAddr: 0x100005A58, symSize: 0x44 }
  - { offsetInCU: 0x6D8B, offset: 0x6D8B, size: 0x8, addend: 0x0, symName: __ZNSt3__19make_pairB7v160006INS_16reverse_iteratorIPP11SpaceObjectEES5_EENS_4pairINS_18__unwrap_ref_decayIT_E4typeENS7_IT0_E4typeEEEOS8_OSB_, symObjAddr: 0x1B64, symBinAddr: 0x100005A9C, symSize: 0x38 }
  - { offsetInCU: 0x6DDA, offset: 0x6DDA, size: 0x8, addend: 0x0, symName: __ZNSt3__114__rewrap_rangeB7v160006INS_16reverse_iteratorIPP11SpaceObjectEES5_EET_S6_T0_, symObjAddr: 0x1B9C, symBinAddr: 0x100005AD4, symSize: 0x5C }
  - { offsetInCU: 0x6E26, offset: 0x6E26, size: 0x8, addend: 0x0, symName: __ZNSt3__113__rewrap_iterB7v160006INS_16reverse_iteratorIPP11SpaceObjectEES5_NS_18__unwrap_iter_implIS5_Lb0EEEEET_S8_T0_, symObjAddr: 0x1BF8, symBinAddr: 0x100005B30, symSize: 0x88 }
  - { offsetInCU: 0x6F2D, offset: 0x6F2D, size: 0x8, addend: 0x0, symName: __ZNSt3__119__libcpp_deallocateB7v160006EPvmm, symObjAddr: 0x2020, symBinAddr: 0x100005F58, symSize: 0x30 }
  - { offsetInCU: 0x6F75, offset: 0x6F75, size: 0x8, addend: 0x0, symName: __ZNSt3__127__do_deallocate_handle_sizeB7v160006IJEEEvPvmDpT_, symObjAddr: 0x2050, symBinAddr: 0x100005F88, symSize: 0x28 }
  - { offsetInCU: 0x6FB3, offset: 0x6FB3, size: 0x8, addend: 0x0, symName: __ZNSt3__124__libcpp_operator_deleteB7v160006IJPvEEEvDpT_, symObjAddr: 0x2078, symBinAddr: 0x100005FB0, symSize: 0x24 }
  - { offsetInCU: 0x6FE8, offset: 0x6FE8, size: 0x8, addend: 0x0, symName: __ZNSt3__1lsB7v160006INS_11char_traitsIcEEEERNS_13basic_ostreamIcT_EES6_PKc, symObjAddr: 0x22B8, symBinAddr: 0x1000061F0, symSize: 0x48 }
  - { offsetInCU: 0x702E, offset: 0x702E, size: 0x8, addend: 0x0, symName: __ZNSt3__116__pad_and_outputB7v160006IcNS_11char_traitsIcEEEENS_19ostreambuf_iteratorIT_T0_EES6_PKS4_S8_S8_RNS_8ios_baseES4_, symObjAddr: 0x2558, symBinAddr: 0x100006490, symSize: 0x248 }
  - { offsetInCU: 0x70FD, offset: 0x70FD, size: 0x8, addend: 0x0, symName: __ZNSt3__119__debug_db_insert_cB7v160006INS_12basic_stringIcNS_11char_traitsIcEENS_9allocatorIcEEEEEEvPT_, symObjAddr: 0x2A14, symBinAddr: 0x10000694C, symSize: 0x10 }
  - { offsetInCU: 0x712E, offset: 0x712E, size: 0x8, addend: 0x0, symName: __ZNSt3__112__to_addressB7v160006IKcEEPT_S3_, symObjAddr: 0x2AE0, symBinAddr: 0x100006A18, symSize: 0x14 }
  - { offsetInCU: 0x7196, offset: 0x7196, size: 0x8, addend: 0x0, symName: __ZNSt3__19use_facetB7v160006INS_5ctypeIcEEEERKT_RKNS_6localeE, symObjAddr: 0x2DB8, symBinAddr: 0x100006CF0, symSize: 0x2C }
  - { offsetInCU: 0x7665, offset: 0x7665, size: 0x8, addend: 0x0, symName: __ZNSt3__118__constexpr_strlenB7v160006EPKc, symObjAddr: 0x2E50, symBinAddr: 0x100006D88, symSize: 0x24 }
  - { offsetInCU: 0x7691, offset: 0x7691, size: 0x8, addend: 0x0, symName: __ZNSt3__1neB7v160006IPP11SpaceObjectEEbRKNS_11__wrap_iterIT_EES8_, symObjAddr: 0x34C8, symBinAddr: 0x100007400, symSize: 0x34 }
  - { offsetInCU: 0x76D4, offset: 0x76D4, size: 0x8, addend: 0x0, symName: __ZNSt3__1eqB7v160006IPP11SpaceObjectEEbRKNS_11__wrap_iterIT_EES8_, symObjAddr: 0x35C8, symBinAddr: 0x100007500, symSize: 0x48 }
  - { offsetInCU: 0x7717, offset: 0x7717, size: 0x8, addend: 0x0, symName: __ZNSt3__118__debug_db_erase_cB7v160006INS_6vectorIP11SpaceObjectNS_9allocatorIS3_EEEEEEvPT_, symObjAddr: 0x37AC, symBinAddr: 0x1000076E4, symSize: 0x10 }
  - { offsetInCU: 0x7926, offset: 0x7926, size: 0x8, addend: 0x0, symName: __ZSt28__throw_bad_array_new_lengthB7v160006v, symObjAddr: 0x120C, symBinAddr: 0x100005144, symSize: 0x34 }
  - { offsetInCU: 0x7E25, offset: 0x7E25, size: 0x8, addend: 0x0, symName: __ZNSt3__16vectorIP11SpaceObjectNS_9allocatorIS2_EEE26__swap_out_circular_bufferERNS_14__split_bufferIS2_RS4_EE, symObjAddr: 0xA40, symBinAddr: 0x100004978, symSize: 0x118 }
  - { offsetInCU: 0xA152, offset: 0xA152, size: 0x8, addend: 0x0, symName: _main, symObjAddr: 0x0, symBinAddr: 0x100003F38, symSize: 0x168 }
  - { offsetInCU: 0xA1D7, offset: 0xA1D7, size: 0x8, addend: 0x0, symName: __ZN13ScreenManagerC1Ev, symObjAddr: 0x168, symBinAddr: 0x1000040A0, symSize: 0x2C }
  - { offsetInCU: 0xA202, offset: 0xA202, size: 0x8, addend: 0x0, symName: __ZN13ScreenManager9addObjectEP11SpaceObject, symObjAddr: 0x194, symBinAddr: 0x1000040CC, symSize: 0x30 }
  - { offsetInCU: 0xA294, offset: 0xA294, size: 0x8, addend: 0x0, symName: __ZN7MartianC1Ev, symObjAddr: 0x1C4, symBinAddr: 0x1000040FC, symSize: 0x2C }
  - { offsetInCU: 0xA31E, offset: 0xA31E, size: 0x8, addend: 0x0, symName: __ZN8VenutianC1Ev, symObjAddr: 0x1F0, symBinAddr: 0x100004128, symSize: 0x2C }
  - { offsetInCU: 0xA3A8, offset: 0xA3A8, size: 0x8, addend: 0x0, symName: __ZN9PlutonianC1Ev, symObjAddr: 0x21C, symBinAddr: 0x100004154, symSize: 0x2C }
  - { offsetInCU: 0xA432, offset: 0xA432, size: 0x8, addend: 0x0, symName: __ZN9SpaceShipC1Ev, symObjAddr: 0x248, symBinAddr: 0x100004180, symSize: 0x2C }
  - { offsetInCU: 0xA4BC, offset: 0xA4BC, size: 0x8, addend: 0x0, symName: __ZN9LaserBeamC1Ev, symObjAddr: 0x274, symBinAddr: 0x1000041AC, symSize: 0x2C }
  - { offsetInCU: 0xA546, offset: 0xA546, size: 0x8, addend: 0x0, symName: __ZN9MercurianC1Ev, symObjAddr: 0x2A0, symBinAddr: 0x1000041D8, symSize: 0x2C }
  - { offsetInCU: 0xA571, offset: 0xA571, size: 0x8, addend: 0x0, symName: __ZN13ScreenManager13refreshScreenEv, symObjAddr: 0x2CC, symBinAddr: 0x100004204, symSize: 0x84 }
  - { offsetInCU: 0xA5E9, offset: 0xA5E9, size: 0x8, addend: 0x0, symName: __ZN13ScreenManagerD1Ev, symObjAddr: 0x350, symBinAddr: 0x100004288, symSize: 0x2C }
  - { offsetInCU: 0xA614, offset: 0xA614, size: 0x8, addend: 0x0, symName: __ZN13ScreenManagerC2Ev, symObjAddr: 0x388, symBinAddr: 0x1000042C0, symSize: 0x2C }
  - { offsetInCU: 0xA63F, offset: 0xA63F, size: 0x8, addend: 0x0, symName: __ZNSt3__16vectorIP11SpaceObjectNS_9allocatorIS2_EEEC1B7v160006Ev, symObjAddr: 0x3B4, symBinAddr: 0x1000042EC, symSize: 0x2C }
  - { offsetInCU: 0xA668, offset: 0xA668, size: 0x8, addend: 0x0, symName: __ZNSt3__16vectorIP11SpaceObjectNS_9allocatorIS2_EEEC2B7v160006Ev, symObjAddr: 0x3E0, symBinAddr: 0x100004318, symSize: 0x4C }
  - { offsetInCU: 0xA69B, offset: 0xA69B, size: 0x8, addend: 0x0, symName: __ZNSt3__117__compressed_pairIPP11SpaceObjectNS_9allocatorIS2_EEEC1B7v160006IDnNS_18__default_init_tagEEEOT_OT0_, symObjAddr: 0x42C, symBinAddr: 0x100004364, symSize: 0x3C }
  - { offsetInCU: 0xA6F2, offset: 0xA6F2, size: 0x8, addend: 0x0, symName: __ZNSt3__117__compressed_pairIPP11SpaceObjectNS_9allocatorIS2_EEEC2B7v160006IDnNS_18__default_init_tagEEEOT_OT0_, symObjAddr: 0x478, symBinAddr: 0x1000043B0, symSize: 0x40 }
  - { offsetInCU: 0xA749, offset: 0xA749, size: 0x8, addend: 0x0, symName: __ZNSt3__122__compressed_pair_elemIPP11SpaceObjectLi0ELb0EEC2B7v160006IDnvEEOT_, symObjAddr: 0x4B8, symBinAddr: 0x1000043F0, symSize: 0x1C }
  - { offsetInCU: 0xA78A, offset: 0xA78A, size: 0x8, addend: 0x0, symName: __ZNSt3__122__compressed_pair_elemINS_9allocatorIP11SpaceObjectEELi1ELb1EEC2B7v160006ENS_18__default_init_tagE, symObjAddr: 0x4D4, symBinAddr: 0x10000440C, symSize: 0x2C }
  - { offsetInCU: 0xA7BE, offset: 0xA7BE, size: 0x8, addend: 0x0, symName: __ZNSt3__19allocatorIP11SpaceObjectEC2B7v160006Ev, symObjAddr: 0x500, symBinAddr: 0x100004438, symSize: 0x2C }
  - { offsetInCU: 0xA7E7, offset: 0xA7E7, size: 0x8, addend: 0x0, symName: __ZNSt3__116__non_trivial_ifILb1ENS_9allocatorIP11SpaceObjectEEEC2B7v160006Ev, symObjAddr: 0x52C, symBinAddr: 0x100004464, symSize: 0x14 }
  - { offsetInCU: 0xA80F, offset: 0xA80F, size: 0x8, addend: 0x0, symName: __ZNSt3__16vectorIP11SpaceObjectNS_9allocatorIS2_EEE9push_backB7v160006ERKS2_, symObjAddr: 0x540, symBinAddr: 0x100004478, symSize: 0x6C }
  - { offsetInCU: 0xA845, offset: 0xA845, size: 0x8, addend: 0x0, symName: __ZNSt3__16vectorIP11SpaceObjectNS_9allocatorIS2_EEE9__end_capB7v160006Ev, symObjAddr: 0x5AC, symBinAddr: 0x1000044E4, symSize: 0x28 }
  - { offsetInCU: 0xA86A, offset: 0xA86A, size: 0x8, addend: 0x0, symName: __ZNSt3__16vectorIP11SpaceObjectNS_9allocatorIS2_EEE22__construct_one_at_endB7v160006IJRKS2_EEEvDpOT_, symObjAddr: 0x5D4, symBinAddr: 0x10000450C, symSize: 0x98 }
  - { offsetInCU: 0xA8B7, offset: 0xA8B7, size: 0x8, addend: 0x0, symName: __ZNSt3__16vectorIP11SpaceObjectNS_9allocatorIS2_EEE21__push_back_slow_pathIRKS2_EEvOT_, symObjAddr: 0x66C, symBinAddr: 0x1000045A4, symSize: 0xE0 }
  - { offsetInCU: 0xA914, offset: 0xA914, size: 0x8, addend: 0x0, symName: __ZNSt3__117__compressed_pairIPP11SpaceObjectNS_9allocatorIS2_EEE5firstB7v160006Ev, symObjAddr: 0x74C, symBinAddr: 0x100004684, symSize: 0x24 }
  - { offsetInCU: 0xA939, offset: 0xA939, size: 0x8, addend: 0x0, symName: __ZNSt3__122__compressed_pair_elemIPP11SpaceObjectLi0ELb0EE5__getB7v160006Ev, symObjAddr: 0x770, symBinAddr: 0x1000046A8, symSize: 0x14 }
  - { offsetInCU: 0xA977, offset: 0xA977, size: 0x8, addend: 0x0, symName: __ZNSt3__16vectorIP11SpaceObjectNS_9allocatorIS2_EEE21_ConstructTransactionC1B7v160006ERS5_m, symObjAddr: 0x784, symBinAddr: 0x1000046BC, symSize: 0x3C }
  - { offsetInCU: 0xA9BE, offset: 0xA9BE, size: 0x8, addend: 0x0, symName: __ZNSt3__116allocator_traitsINS_9allocatorIP11SpaceObjectEEE9constructB7v160006IS3_JRKS3_EvEEvRS4_PT_DpOT0_, symObjAddr: 0x7C0, symBinAddr: 0x1000046F8, symSize: 0x34 }
  - { offsetInCU: 0xAA15, offset: 0xAA15, size: 0x8, addend: 0x0, symName: __ZNSt3__16vectorIP11SpaceObjectNS_9allocatorIS2_EEE7__allocB7v160006Ev, symObjAddr: 0x7F4, symBinAddr: 0x10000472C, symSize: 0x28 }
  - { offsetInCU: 0xAA3A, offset: 0xAA3A, size: 0x8, addend: 0x0, symName: __ZNSt3__16vectorIP11SpaceObjectNS_9allocatorIS2_EEE21_ConstructTransactionD1B7v160006Ev, symObjAddr: 0x830, symBinAddr: 0x100004768, symSize: 0x2C }
  - { offsetInCU: 0xAA63, offset: 0xAA63, size: 0x8, addend: 0x0, symName: __ZNSt3__16vectorIP11SpaceObjectNS_9allocatorIS2_EEE21_ConstructTransactionC2B7v160006ERS5_m, symObjAddr: 0x85C, symBinAddr: 0x100004794, symSize: 0x44 }
  - { offsetInCU: 0xAAAA, offset: 0xAAAA, size: 0x8, addend: 0x0, symName: __ZNSt3__19allocatorIP11SpaceObjectE9constructB7v160006IS2_JRKS2_EEEvPT_DpOT0_, symObjAddr: 0x8A0, symBinAddr: 0x1000047D8, symSize: 0x28 }
  - { offsetInCU: 0xAAFF, offset: 0xAAFF, size: 0x8, addend: 0x0, symName: __ZNSt3__117__compressed_pairIPP11SpaceObjectNS_9allocatorIS2_EEE6secondB7v160006Ev, symObjAddr: 0x8C8, symBinAddr: 0x100004800, symSize: 0x24 }
  - { offsetInCU: 0xAB24, offset: 0xAB24, size: 0x8, addend: 0x0, symName: __ZNSt3__122__compressed_pair_elemINS_9allocatorIP11SpaceObjectEELi1ELb1EE5__getB7v160006Ev, symObjAddr: 0x8EC, symBinAddr: 0x100004824, symSize: 0x14 }
  - { offsetInCU: 0xAB49, offset: 0xAB49, size: 0x8, addend: 0x0, symName: __ZNSt3__16vectorIP11SpaceObjectNS_9allocatorIS2_EEE21_ConstructTransactionD2B7v160006Ev, symObjAddr: 0x900, symBinAddr: 0x100004838, symSize: 0x20 }
  - { offsetInCU: 0xAB71, offset: 0xAB71, size: 0x8, addend: 0x0, symName: __ZNKSt3__16vectorIP11SpaceObjectNS_9allocatorIS2_EEE11__recommendB7v160006Em, symObjAddr: 0x920, symBinAddr: 0x100004858, symSize: 0xB4 }
  - { offsetInCU: 0xABC5, offset: 0xABC5, size: 0x8, addend: 0x0, symName: __ZNKSt3__16vectorIP11SpaceObjectNS_9allocatorIS2_EEE4sizeB7v160006Ev, symObjAddr: 0x9D4, symBinAddr: 0x10000490C, symSize: 0x28 }
  - { offsetInCU: 0xABEA, offset: 0xABEA, size: 0x8, addend: 0x0, symName: __ZNSt3__114__split_bufferIP11SpaceObjectRNS_9allocatorIS2_EEEC1EmmS5_, symObjAddr: 0x9FC, symBinAddr: 0x100004934, symSize: 0x44 }
  - { offsetInCU: 0xAC3F, offset: 0xAC3F, size: 0x8, addend: 0x0, symName: __ZNSt3__114__split_bufferIP11SpaceObjectRNS_9allocatorIS2_EEED1Ev, symObjAddr: 0xB58, symBinAddr: 0x100004A90, symSize: 0x2C }
  - { offsetInCU: 0xAC69, offset: 0xAC69, size: 0x8, addend: 0x0, symName: __ZNKSt3__16vectorIP11SpaceObjectNS_9allocatorIS2_EEE8max_sizeEv, symObjAddr: 0xB84, symBinAddr: 0x100004ABC, symSize: 0x74 }
  - { offsetInCU: 0xAC90, offset: 0xAC90, size: 0x8, addend: 0x0, symName: __ZNKSt3__16vectorIP11SpaceObjectNS_9allocatorIS2_EEE20__throw_length_errorB7v160006Ev, symObjAddr: 0xBF8, symBinAddr: 0x100004B30, symSize: 0x1C }
  - { offsetInCU: 0xACB5, offset: 0xACB5, size: 0x8, addend: 0x0, symName: __ZNKSt3__16vectorIP11SpaceObjectNS_9allocatorIS2_EEE8capacityB7v160006Ev, symObjAddr: 0xC14, symBinAddr: 0x100004B4C, symSize: 0x40 }
  - { offsetInCU: 0xACE4, offset: 0xACE4, size: 0x8, addend: 0x0, symName: __ZNSt3__116allocator_traitsINS_9allocatorIP11SpaceObjectEEE8max_sizeB7v160006IS4_vEEmRKS4_, symObjAddr: 0xCAC, symBinAddr: 0x100004BE4, symSize: 0x24 }
  - { offsetInCU: 0xAD12, offset: 0xAD12, size: 0x8, addend: 0x0, symName: __ZNKSt3__16vectorIP11SpaceObjectNS_9allocatorIS2_EEE7__allocB7v160006Ev, symObjAddr: 0xCD0, symBinAddr: 0x100004C08, symSize: 0x28 }
  - { offsetInCU: 0xAD37, offset: 0xAD37, size: 0x8, addend: 0x0, symName: __ZNSt3__114numeric_limitsIlE3maxB7v160006Ev, symObjAddr: 0xCF8, symBinAddr: 0x100004C30, symSize: 0x14 }
  - { offsetInCU: 0xAD5F, offset: 0xAD5F, size: 0x8, addend: 0x0, symName: __ZNKSt3__16__lessImmEclB7v160006ERKmS3_, symObjAddr: 0xD60, symBinAddr: 0x100004C98, symSize: 0x34 }
  - { offsetInCU: 0xADA0, offset: 0xADA0, size: 0x8, addend: 0x0, symName: __ZNKSt3__19allocatorIP11SpaceObjectE8max_sizeB7v160006Ev, symObjAddr: 0xD94, symBinAddr: 0x100004CCC, symSize: 0x14 }
  - { offsetInCU: 0xADC5, offset: 0xADC5, size: 0x8, addend: 0x0, symName: __ZNKSt3__117__compressed_pairIPP11SpaceObjectNS_9allocatorIS2_EEE6secondB7v160006Ev, symObjAddr: 0xDA8, symBinAddr: 0x100004CE0, symSize: 0x24 }
  - { offsetInCU: 0xADEA, offset: 0xADEA, size: 0x8, addend: 0x0, symName: __ZNKSt3__122__compressed_pair_elemINS_9allocatorIP11SpaceObjectEELi1ELb1EE5__getB7v160006Ev, symObjAddr: 0xDCC, symBinAddr: 0x100004D04, symSize: 0x14 }
  - { offsetInCU: 0xAE0F, offset: 0xAE0F, size: 0x8, addend: 0x0, symName: __ZNSt3__123__libcpp_numeric_limitsIlLb1EE3maxB7v160006Ev, symObjAddr: 0xDE0, symBinAddr: 0x100004D18, symSize: 0x8 }
  - { offsetInCU: 0xAE23, offset: 0xAE23, size: 0x8, addend: 0x0, symName: __ZNSt12length_errorC1B7v160006EPKc, symObjAddr: 0xE4C, symBinAddr: 0x100004D84, symSize: 0x34 }
  - { offsetInCU: 0xAE5A, offset: 0xAE5A, size: 0x8, addend: 0x0, symName: __ZNSt12length_errorC2B7v160006EPKc, symObjAddr: 0xE80, symBinAddr: 0x100004DB8, symSize: 0x4C }
  - { offsetInCU: 0xAE91, offset: 0xAE91, size: 0x8, addend: 0x0, symName: __ZNKSt3__16vectorIP11SpaceObjectNS_9allocatorIS2_EEE9__end_capB7v160006Ev, symObjAddr: 0xECC, symBinAddr: 0x100004E04, symSize: 0x28 }
  - { offsetInCU: 0xAEB6, offset: 0xAEB6, size: 0x8, addend: 0x0, symName: __ZNKSt3__117__compressed_pairIPP11SpaceObjectNS_9allocatorIS2_EEE5firstB7v160006Ev, symObjAddr: 0xEF4, symBinAddr: 0x100004E2C, symSize: 0x24 }
  - { offsetInCU: 0xAEDB, offset: 0xAEDB, size: 0x8, addend: 0x0, symName: __ZNKSt3__122__compressed_pair_elemIPP11SpaceObjectLi0ELb0EE5__getB7v160006Ev, symObjAddr: 0xF18, symBinAddr: 0x100004E50, symSize: 0x14 }
  - { offsetInCU: 0xAF00, offset: 0xAF00, size: 0x8, addend: 0x0, symName: __ZNSt3__114__split_bufferIP11SpaceObjectRNS_9allocatorIS2_EEEC2EmmS5_, symObjAddr: 0xF80, symBinAddr: 0x100004EB8, symSize: 0xD4 }
  - { offsetInCU: 0xAF73, offset: 0xAF73, size: 0x8, addend: 0x0, symName: __ZNSt3__117__compressed_pairIPP11SpaceObjectRNS_9allocatorIS2_EEEC1B7v160006IDnS6_EEOT_OT0_, symObjAddr: 0x1054, symBinAddr: 0x100004F8C, symSize: 0x3C }
  - { offsetInCU: 0xAFCA, offset: 0xAFCA, size: 0x8, addend: 0x0, symName: __ZNSt3__114__split_bufferIP11SpaceObjectRNS_9allocatorIS2_EEE7__allocB7v160006Ev, symObjAddr: 0x10D0, symBinAddr: 0x100005008, symSize: 0x28 }
  - { offsetInCU: 0xAFEF, offset: 0xAFEF, size: 0x8, addend: 0x0, symName: __ZNSt3__114__split_bufferIP11SpaceObjectRNS_9allocatorIS2_EEE9__end_capB7v160006Ev, symObjAddr: 0x10F8, symBinAddr: 0x100005030, symSize: 0x28 }
  - { offsetInCU: 0xB014, offset: 0xB014, size: 0x8, addend: 0x0, symName: __ZNSt3__117__compressed_pairIPP11SpaceObjectRNS_9allocatorIS2_EEEC2B7v160006IDnS6_EEOT_OT0_, symObjAddr: 0x1120, symBinAddr: 0x100005058, symSize: 0x48 }
  - { offsetInCU: 0xB06B, offset: 0xB06B, size: 0x8, addend: 0x0, symName: __ZNSt3__122__compressed_pair_elemIRNS_9allocatorIP11SpaceObjectEELi1ELb0EEC2B7v160006IS5_vEEOT_, symObjAddr: 0x1168, symBinAddr: 0x1000050A0, symSize: 0x20 }
  - { offsetInCU: 0xB0AC, offset: 0xB0AC, size: 0x8, addend: 0x0, symName: __ZNSt3__19allocatorIP11SpaceObjectE8allocateB7v160006Em, symObjAddr: 0x1188, symBinAddr: 0x1000050C0, symSize: 0x84 }
  - { offsetInCU: 0xB0DF, offset: 0xB0DF, size: 0x8, addend: 0x0, symName: __ZNSt3__117__compressed_pairIPP11SpaceObjectRNS_9allocatorIS2_EEE6secondB7v160006Ev, symObjAddr: 0x1298, symBinAddr: 0x1000051D0, symSize: 0x28 }
  - { offsetInCU: 0xB104, offset: 0xB104, size: 0x8, addend: 0x0, symName: __ZNSt3__122__compressed_pair_elemIRNS_9allocatorIP11SpaceObjectEELi1ELb0EE5__getB7v160006Ev, symObjAddr: 0x12C0, symBinAddr: 0x1000051F8, symSize: 0x18 }
  - { offsetInCU: 0xB129, offset: 0xB129, size: 0x8, addend: 0x0, symName: __ZNSt3__117__compressed_pairIPP11SpaceObjectRNS_9allocatorIS2_EEE5firstB7v160006Ev, symObjAddr: 0x12D8, symBinAddr: 0x100005210, symSize: 0x24 }
  - { offsetInCU: 0xB14E, offset: 0xB14E, size: 0x8, addend: 0x0, symName: __ZNKSt3__16vectorIP11SpaceObjectNS_9allocatorIS2_EEE17__annotate_deleteB7v160006Ev, symObjAddr: 0x12FC, symBinAddr: 0x100005234, symSize: 0xB8 }
  - { offsetInCU: 0xB173, offset: 0xB173, size: 0x8, addend: 0x0, symName: __ZNSt3__116reverse_iteratorIPP11SpaceObjectEC1B7v160006ES3_, symObjAddr: 0x149C, symBinAddr: 0x1000053D4, symSize: 0x34 }
  - { offsetInCU: 0xB1AA, offset: 0xB1AA, size: 0x8, addend: 0x0, symName: __ZNKSt3__116reverse_iteratorIPP11SpaceObjectE4baseB7v160006Ev, symObjAddr: 0x14D0, symBinAddr: 0x100005408, symSize: 0x18 }
  - { offsetInCU: 0xB1CF, offset: 0xB1CF, size: 0x8, addend: 0x0, symName: __ZNKSt3__16vectorIP11SpaceObjectNS_9allocatorIS2_EEE14__annotate_newB7v160006Em, symObjAddr: 0x1524, symBinAddr: 0x10000545C, symSize: 0xAC }
  - { offsetInCU: 0xB203, offset: 0xB203, size: 0x8, addend: 0x0, symName: __ZNKSt3__16vectorIP11SpaceObjectNS_9allocatorIS2_EEE31__annotate_contiguous_containerB7v160006EPKvS7_S7_S7_, symObjAddr: 0x15E0, symBinAddr: 0x100005518, symSize: 0x20 }
  - { offsetInCU: 0xB254, offset: 0xB254, size: 0x8, addend: 0x0, symName: __ZNKSt3__16vectorIP11SpaceObjectNS_9allocatorIS2_EEE4dataB7v160006Ev, symObjAddr: 0x1600, symBinAddr: 0x100005538, symSize: 0x28 }
  - { offsetInCU: 0xB279, offset: 0xB279, size: 0x8, addend: 0x0, symName: __ZNKSt3__116reverse_iteratorIPP11SpaceObjectEdeB7v160006Ev, symObjAddr: 0x16C0, symBinAddr: 0x1000055F8, symSize: 0x28 }
  - { offsetInCU: 0xB2AC, offset: 0xB2AC, size: 0x8, addend: 0x0, symName: __ZNSt3__116reverse_iteratorIPP11SpaceObjectEppB7v160006Ev, symObjAddr: 0x16E8, symBinAddr: 0x100005620, symSize: 0x20 }
  - { offsetInCU: 0xB2D6, offset: 0xB2D6, size: 0x8, addend: 0x0, symName: __ZNSt3__119__to_address_helperINS_16reverse_iteratorIPP11SpaceObjectEEvE6__callB7v160006ERKS5_, symObjAddr: 0x1780, symBinAddr: 0x1000056B8, symSize: 0x4C }
  - { offsetInCU: 0xB2F9, offset: 0xB2F9, size: 0x8, addend: 0x0, symName: __ZNKSt3__116reverse_iteratorIPP11SpaceObjectEptB7v160006Ev, symObjAddr: 0x17CC, symBinAddr: 0x100005704, symSize: 0x24 }
  - { offsetInCU: 0xB341, offset: 0xB341, size: 0x8, addend: 0x0, symName: __ZNKSt3__111__move_loopINS_17_ClassicAlgPolicyEEclB7v160006INS_16reverse_iteratorIPP11SpaceObjectEES8_S8_EENS_4pairIT_T1_EESA_T0_SB_, symObjAddr: 0x1A80, symBinAddr: 0x1000059B8, symSize: 0xA0 }
  - { offsetInCU: 0xB3B0, offset: 0xB3B0, size: 0x8, addend: 0x0, symName: __ZNSt3__18_IterOpsINS_17_ClassicAlgPolicyEE11__iter_moveB7v160006IRNS_16reverse_iteratorIPP11SpaceObjectEEEENS_9enable_ifIXsr12is_referenceIDTdeclsr3stdE7declvalIRT_EEEEE5valueEDTclsr3stdE4movedeclsr3stdE7declvalISC_EEEEE4typeEOSB_, symObjAddr: 0x1C80, symBinAddr: 0x100005BB8, symSize: 0x28 }
  - { offsetInCU: 0xB3DC, offset: 0xB3DC, size: 0x8, addend: 0x0, symName: __ZNSt3__18_IterOpsINS_17_ClassicAlgPolicyEE25__validate_iter_referenceB7v160006IRNS_16reverse_iteratorIPP11SpaceObjectEEEEvv, symObjAddr: 0x1CA8, symBinAddr: 0x100005BE0, symSize: 0x4 }
  - { offsetInCU: 0xB3FA, offset: 0xB3FA, size: 0x8, addend: 0x0, symName: __ZNSt3__118__unwrap_iter_implINS_16reverse_iteratorIPP11SpaceObjectEELb0EE8__unwrapB7v160006ES5_, symObjAddr: 0x1CAC, symBinAddr: 0x100005BE4, symSize: 0x24 }
  - { offsetInCU: 0xB41D, offset: 0xB41D, size: 0x8, addend: 0x0, symName: __ZNSt3__14pairINS_16reverse_iteratorIPP11SpaceObjectEES5_EC1B7v160006ERKS5_S8_, symObjAddr: 0x1CD0, symBinAddr: 0x100005C08, symSize: 0x3C }
  - { offsetInCU: 0xB462, offset: 0xB462, size: 0x8, addend: 0x0, symName: __ZNSt3__14pairINS_16reverse_iteratorIPP11SpaceObjectEES5_EC2B7v160006ERKS5_S8_, symObjAddr: 0x1D0C, symBinAddr: 0x100005C44, symSize: 0x34 }
  - { offsetInCU: 0xB4A7, offset: 0xB4A7, size: 0x8, addend: 0x0, symName: __ZNSt3__118__unwrap_iter_implINS_16reverse_iteratorIPP11SpaceObjectEELb0EE8__rewrapB7v160006ES5_S5_, symObjAddr: 0x1D40, symBinAddr: 0x100005C78, symSize: 0x2C }
  - { offsetInCU: 0xB4D5, offset: 0xB4D5, size: 0x8, addend: 0x0, symName: __ZNSt3__116reverse_iteratorIPP11SpaceObjectEC2B7v160006ES3_, symObjAddr: 0x1D6C, symBinAddr: 0x100005CA4, symSize: 0x28 }
  - { offsetInCU: 0xB50C, offset: 0xB50C, size: 0x8, addend: 0x0, symName: __ZNSt3__114__split_bufferIP11SpaceObjectRNS_9allocatorIS2_EEED2Ev, symObjAddr: 0x1D94, symBinAddr: 0x100005CCC, symSize: 0x80 }
  - { offsetInCU: 0xB537, offset: 0xB537, size: 0x8, addend: 0x0, symName: __ZNSt3__114__split_bufferIP11SpaceObjectRNS_9allocatorIS2_EEE5clearB7v160006Ev, symObjAddr: 0x1E14, symBinAddr: 0x100005D4C, symSize: 0x28 }
  - { offsetInCU: 0xB55C, offset: 0xB55C, size: 0x8, addend: 0x0, symName: __ZNSt3__116allocator_traitsINS_9allocatorIP11SpaceObjectEEE10deallocateB7v160006ERS4_PS3_m, symObjAddr: 0x1E3C, symBinAddr: 0x100005D74, symSize: 0x34 }
  - { offsetInCU: 0xB59E, offset: 0xB59E, size: 0x8, addend: 0x0, symName: __ZNKSt3__114__split_bufferIP11SpaceObjectRNS_9allocatorIS2_EEE8capacityB7v160006Ev, symObjAddr: 0x1E70, symBinAddr: 0x100005DA8, symSize: 0x40 }
  - { offsetInCU: 0xB5C3, offset: 0xB5C3, size: 0x8, addend: 0x0, symName: __ZNSt3__114__split_bufferIP11SpaceObjectRNS_9allocatorIS2_EEE17__destruct_at_endB7v160006EPS2_, symObjAddr: 0x1EB0, symBinAddr: 0x100005DE8, symSize: 0x2C }
  - { offsetInCU: 0xB5F5, offset: 0xB5F5, size: 0x8, addend: 0x0, symName: __ZNSt3__114__split_bufferIP11SpaceObjectRNS_9allocatorIS2_EEE17__destruct_at_endB7v160006EPS2_NS_17integral_constantIbLb0EEE, symObjAddr: 0x1EDC, symBinAddr: 0x100005E14, symSize: 0x94 }
  - { offsetInCU: 0xB635, offset: 0xB635, size: 0x8, addend: 0x0, symName: __ZNSt3__116allocator_traitsINS_9allocatorIP11SpaceObjectEEE7destroyB7v160006IS3_vEEvRS4_PT_, symObjAddr: 0x1F70, symBinAddr: 0x100005EA8, symSize: 0x2C }
  - { offsetInCU: 0xB672, offset: 0xB672, size: 0x8, addend: 0x0, symName: __ZNSt3__19allocatorIP11SpaceObjectE7destroyB7v160006EPS2_, symObjAddr: 0x1F9C, symBinAddr: 0x100005ED4, symSize: 0x14 }
  - { offsetInCU: 0xB6A5, offset: 0xB6A5, size: 0x8, addend: 0x0, symName: __ZNSt3__19allocatorIP11SpaceObjectE10deallocateB7v160006EPS2_m, symObjAddr: 0x1FB0, symBinAddr: 0x100005EE8, symSize: 0x70 }
  - { offsetInCU: 0xB6E6, offset: 0xB6E6, size: 0x8, addend: 0x0, symName: __ZNKSt3__114__split_bufferIP11SpaceObjectRNS_9allocatorIS2_EEE9__end_capB7v160006Ev, symObjAddr: 0x209C, symBinAddr: 0x100005FD4, symSize: 0x28 }
  - { offsetInCU: 0xB70B, offset: 0xB70B, size: 0x8, addend: 0x0, symName: __ZNKSt3__117__compressed_pairIPP11SpaceObjectRNS_9allocatorIS2_EEE5firstB7v160006Ev, symObjAddr: 0x20C4, symBinAddr: 0x100005FFC, symSize: 0x24 }
  - { offsetInCU: 0xB730, offset: 0xB730, size: 0x8, addend: 0x0, symName: __ZN7MartianC2Ev, symObjAddr: 0x20E8, symBinAddr: 0x100006020, symSize: 0x44 }
  - { offsetInCU: 0xB75B, offset: 0xB75B, size: 0x8, addend: 0x0, symName: __ZN11SpaceObjectC2Ev, symObjAddr: 0x212C, symBinAddr: 0x100006064, symSize: 0x24 }
  - { offsetInCU: 0xB786, offset: 0xB786, size: 0x8, addend: 0x0, symName: __ZNK7Martian4drawEv, symObjAddr: 0x2150, symBinAddr: 0x100006088, symSize: 0x30 }
  - { offsetInCU: 0xB7AB, offset: 0xB7AB, size: 0x8, addend: 0x0, symName: __ZN7MartianD1Ev, symObjAddr: 0x2180, symBinAddr: 0x1000060B8, symSize: 0x2C }
  - { offsetInCU: 0xB7D6, offset: 0xB7D6, size: 0x8, addend: 0x0, symName: __ZN7MartianD0Ev, symObjAddr: 0x21AC, symBinAddr: 0x1000060E4, symSize: 0x58 }
  - { offsetInCU: 0xB801, offset: 0xB801, size: 0x8, addend: 0x0, symName: __ZNK11SpaceObject4drawEv, symObjAddr: 0x2204, symBinAddr: 0x10000613C, symSize: 0x30 }
  - { offsetInCU: 0xB826, offset: 0xB826, size: 0x8, addend: 0x0, symName: __ZN11SpaceObjectD1Ev, symObjAddr: 0x2234, symBinAddr: 0x10000616C, symSize: 0x2C }
  - { offsetInCU: 0xB84F, offset: 0xB84F, size: 0x8, addend: 0x0, symName: __ZN11SpaceObjectD0Ev, symObjAddr: 0x2260, symBinAddr: 0x100006198, symSize: 0x58 }
  - { offsetInCU: 0xB878, offset: 0xB878, size: 0x8, addend: 0x0, symName: __ZNSt3__111char_traitsIcE6lengthEPKc, symObjAddr: 0x24F4, symBinAddr: 0x10000642C, symSize: 0x48 }
  - { offsetInCU: 0xB8B9, offset: 0xB8B9, size: 0x8, addend: 0x0, symName: __ZNKSt3__113basic_ostreamIcNS_11char_traitsIcEEE6sentrycvbB7v160006Ev, symObjAddr: 0x253C, symBinAddr: 0x100006474, symSize: 0x1C }
  - { offsetInCU: 0xB8DE, offset: 0xB8DE, size: 0x8, addend: 0x0, symName: __ZNSt3__119ostreambuf_iteratorIcNS_11char_traitsIcEEEC1B7v160006ERNS_13basic_ostreamIcS2_EE, symObjAddr: 0x27A0, symBinAddr: 0x1000066D8, symSize: 0x34 }
  - { offsetInCU: 0xB915, offset: 0xB915, size: 0x8, addend: 0x0, symName: __ZNKSt3__18ios_base5flagsB7v160006Ev, symObjAddr: 0x27D4, symBinAddr: 0x10000670C, symSize: 0x18 }
  - { offsetInCU: 0xB93B, offset: 0xB93B, size: 0x8, addend: 0x0, symName: __ZNKSt3__19basic_iosIcNS_11char_traitsIcEEE4fillB7v160006Ev, symObjAddr: 0x27EC, symBinAddr: 0x100006724, symSize: 0x64 }
  - { offsetInCU: 0xB962, offset: 0xB962, size: 0x8, addend: 0x0, symName: __ZNKSt3__119ostreambuf_iteratorIcNS_11char_traitsIcEEE6failedB7v160006Ev, symObjAddr: 0x2850, symBinAddr: 0x100006788, symSize: 0x24 }
  - { offsetInCU: 0xB987, offset: 0xB987, size: 0x8, addend: 0x0, symName: __ZNSt3__19basic_iosIcNS_11char_traitsIcEEE8setstateB7v160006Ej, symObjAddr: 0x2874, symBinAddr: 0x1000067AC, symSize: 0x2C }
  - { offsetInCU: 0xB9BB, offset: 0xB9BB, size: 0x8, addend: 0x0, symName: __ZNKSt3__18ios_base5widthB7v160006Ev, symObjAddr: 0x28A0, symBinAddr: 0x1000067D8, symSize: 0x18 }
  - { offsetInCU: 0xB9E2, offset: 0xB9E2, size: 0x8, addend: 0x0, symName: __ZNSt3__115basic_streambufIcNS_11char_traitsIcEEE5sputnB7v160006EPKcl, symObjAddr: 0x28B8, symBinAddr: 0x1000067F0, symSize: 0x3C }
  - { offsetInCU: 0xBA23, offset: 0xBA23, size: 0x8, addend: 0x0, symName: __ZNSt3__112basic_stringIcNS_11char_traitsIcEENS_9allocatorIcEEEC1B7v160006Emc, symObjAddr: 0x28F4, symBinAddr: 0x10000682C, symSize: 0x3C }
  - { offsetInCU: 0xBA6A, offset: 0xBA6A, size: 0x8, addend: 0x0, symName: __ZNKSt3__112basic_stringIcNS_11char_traitsIcEENS_9allocatorIcEEE4dataB7v160006Ev, symObjAddr: 0x2930, symBinAddr: 0x100006868, symSize: 0x28 }
  - { offsetInCU: 0xBA8F, offset: 0xBA8F, size: 0x8, addend: 0x0, symName: __ZNSt3__18ios_base5widthB7v160006El, symObjAddr: 0x2958, symBinAddr: 0x100006890, symSize: 0x2C }
  - { offsetInCU: 0xBAD4, offset: 0xBAD4, size: 0x8, addend: 0x0, symName: __ZNSt3__112basic_stringIcNS_11char_traitsIcEENS_9allocatorIcEEEC2B7v160006Emc, symObjAddr: 0x2984, symBinAddr: 0x1000068BC, symSize: 0x54 }
  - { offsetInCU: 0xBB1B, offset: 0xBB1B, size: 0x8, addend: 0x0, symName: __ZNSt3__117__compressed_pairINS_12basic_stringIcNS_11char_traitsIcEENS_9allocatorIcEEE5__repES5_EC1B7v160006INS_18__default_init_tagESA_EEOT_OT0_, symObjAddr: 0x29D8, symBinAddr: 0x100006910, symSize: 0x3C }
  - { offsetInCU: 0xBB72, offset: 0xBB72, size: 0x8, addend: 0x0, symName: __ZNSt3__117__compressed_pairINS_12basic_stringIcNS_11char_traitsIcEENS_9allocatorIcEEE5__repES5_EC2B7v160006INS_18__default_init_tagESA_EEOT_OT0_, symObjAddr: 0x2A24, symBinAddr: 0x10000695C, symSize: 0x3C }
  - { offsetInCU: 0xBBC9, offset: 0xBBC9, size: 0x8, addend: 0x0, symName: __ZNSt3__122__compressed_pair_elemINS_12basic_stringIcNS_11char_traitsIcEENS_9allocatorIcEEE5__repELi0ELb0EEC2B7v160006ENS_18__default_init_tagE, symObjAddr: 0x2A60, symBinAddr: 0x100006998, symSize: 0x14 }
  - { offsetInCU: 0xBBFD, offset: 0xBBFD, size: 0x8, addend: 0x0, symName: __ZNSt3__122__compressed_pair_elemINS_9allocatorIcEELi1ELb1EEC2B7v160006ENS_18__default_init_tagE, symObjAddr: 0x2A74, symBinAddr: 0x1000069AC, symSize: 0x2C }
  - { offsetInCU: 0xBC31, offset: 0xBC31, size: 0x8, addend: 0x0, symName: __ZNSt3__19allocatorIcEC2B7v160006Ev, symObjAddr: 0x2AA0, symBinAddr: 0x1000069D8, symSize: 0x2C }
  - { offsetInCU: 0xBC5A, offset: 0xBC5A, size: 0x8, addend: 0x0, symName: __ZNSt3__116__non_trivial_ifILb1ENS_9allocatorIcEEEC2B7v160006Ev, symObjAddr: 0x2ACC, symBinAddr: 0x100006A04, symSize: 0x14 }
  - { offsetInCU: 0xBC83, offset: 0xBC83, size: 0x8, addend: 0x0, symName: __ZNKSt3__112basic_stringIcNS_11char_traitsIcEENS_9allocatorIcEEE13__get_pointerB7v160006Ev, symObjAddr: 0x2AF4, symBinAddr: 0x100006A2C, symSize: 0x54 }
  - { offsetInCU: 0xBCA8, offset: 0xBCA8, size: 0x8, addend: 0x0, symName: __ZNKSt3__112basic_stringIcNS_11char_traitsIcEENS_9allocatorIcEEE9__is_longB7v160006Ev, symObjAddr: 0x2B48, symBinAddr: 0x100006A80, symSize: 0x74 }
  - { offsetInCU: 0xBCCD, offset: 0xBCCD, size: 0x8, addend: 0x0, symName: __ZNKSt3__112basic_stringIcNS_11char_traitsIcEENS_9allocatorIcEEE18__get_long_pointerB7v160006Ev, symObjAddr: 0x2BBC, symBinAddr: 0x100006AF4, symSize: 0x28 }
  - { offsetInCU: 0xBCF2, offset: 0xBCF2, size: 0x8, addend: 0x0, symName: __ZNKSt3__112basic_stringIcNS_11char_traitsIcEENS_9allocatorIcEEE19__get_short_pointerB7v160006Ev, symObjAddr: 0x2BE4, symBinAddr: 0x100006B1C, symSize: 0x28 }
  - { offsetInCU: 0xBD17, offset: 0xBD17, size: 0x8, addend: 0x0, symName: __ZNKSt3__117__compressed_pairINS_12basic_stringIcNS_11char_traitsIcEENS_9allocatorIcEEE5__repES5_E5firstB7v160006Ev, symObjAddr: 0x2C0C, symBinAddr: 0x100006B44, symSize: 0x24 }
  - { offsetInCU: 0xBD3C, offset: 0xBD3C, size: 0x8, addend: 0x0, symName: __ZNKSt3__122__compressed_pair_elemINS_12basic_stringIcNS_11char_traitsIcEENS_9allocatorIcEEE5__repELi0ELb0EE5__getB7v160006Ev, symObjAddr: 0x2C30, symBinAddr: 0x100006B68, symSize: 0x14 }
  - { offsetInCU: 0xBD61, offset: 0xBD61, size: 0x8, addend: 0x0, symName: __ZNSt3__114pointer_traitsIPKcE10pointer_toB7v160006ERS1_, symObjAddr: 0x2C44, symBinAddr: 0x100006B7C, symSize: 0x14 }
  - { offsetInCU: 0xBD84, offset: 0xBD84, size: 0x8, addend: 0x0, symName: __ZNSt3__119ostreambuf_iteratorIcNS_11char_traitsIcEEEC2B7v160006ERNS_13basic_ostreamIcS2_EE, symObjAddr: 0x2C58, symBinAddr: 0x100006B90, symSize: 0x68 }
  - { offsetInCU: 0xBDBA, offset: 0xBDBA, size: 0x8, addend: 0x0, symName: __ZNKSt3__19basic_iosIcNS_11char_traitsIcEEE5rdbufB7v160006Ev, symObjAddr: 0x2CC0, symBinAddr: 0x100006BF8, symSize: 0x24 }
  - { offsetInCU: 0xBDE1, offset: 0xBDE1, size: 0x8, addend: 0x0, symName: __ZNKSt3__18ios_base5rdbufB7v160006Ev, symObjAddr: 0x2CE4, symBinAddr: 0x100006C1C, symSize: 0x18 }
  - { offsetInCU: 0xBE06, offset: 0xBE06, size: 0x8, addend: 0x0, symName: __ZNSt3__111char_traitsIcE11eq_int_typeEii, symObjAddr: 0x2CFC, symBinAddr: 0x100006C34, symSize: 0x28 }
  - { offsetInCU: 0xBE37, offset: 0xBE37, size: 0x8, addend: 0x0, symName: __ZNSt3__111char_traitsIcE3eofEv, symObjAddr: 0x2D24, symBinAddr: 0x100006C5C, symSize: 0x8 }
  - { offsetInCU: 0xBE4A, offset: 0xBE4A, size: 0x8, addend: 0x0, symName: __ZNKSt3__19basic_iosIcNS_11char_traitsIcEEE5widenB7v160006Ec, symObjAddr: 0x2D2C, symBinAddr: 0x100006C64, symSize: 0x8C }
  - { offsetInCU: 0xBEB7, offset: 0xBEB7, size: 0x8, addend: 0x0, symName: __ZNKSt3__15ctypeIcE5widenB7v160006Ec, symObjAddr: 0x2DE4, symBinAddr: 0x100006D1C, symSize: 0x38 }
  - { offsetInCU: 0xBEEA, offset: 0xBEEA, size: 0x8, addend: 0x0, symName: __ZNSt3__18ios_base8setstateB7v160006Ej, symObjAddr: 0x2E1C, symBinAddr: 0x100006D54, symSize: 0x34 }
  - { offsetInCU: 0xBF20, offset: 0xBF20, size: 0x8, addend: 0x0, symName: __ZN11SpaceObjectD2Ev, symObjAddr: 0x2E74, symBinAddr: 0x100006DAC, symSize: 0x14 }
  - { offsetInCU: 0xBF49, offset: 0xBF49, size: 0x8, addend: 0x0, symName: __ZN7MartianD2Ev, symObjAddr: 0x2E88, symBinAddr: 0x100006DC0, symSize: 0x2C }
  - { offsetInCU: 0xBF74, offset: 0xBF74, size: 0x8, addend: 0x0, symName: __ZN8VenutianC2Ev, symObjAddr: 0x2EB4, symBinAddr: 0x100006DEC, symSize: 0x44 }
  - { offsetInCU: 0xBF9F, offset: 0xBF9F, size: 0x8, addend: 0x0, symName: __ZNK8Venutian4drawEv, symObjAddr: 0x2EF8, symBinAddr: 0x100006E30, symSize: 0x30 }
  - { offsetInCU: 0xBFC4, offset: 0xBFC4, size: 0x8, addend: 0x0, symName: __ZN8VenutianD1Ev, symObjAddr: 0x2F28, symBinAddr: 0x100006E60, symSize: 0x2C }
  - { offsetInCU: 0xBFEF, offset: 0xBFEF, size: 0x8, addend: 0x0, symName: __ZN8VenutianD0Ev, symObjAddr: 0x2F54, symBinAddr: 0x100006E8C, symSize: 0x58 }
  - { offsetInCU: 0xC01A, offset: 0xC01A, size: 0x8, addend: 0x0, symName: __ZN8VenutianD2Ev, symObjAddr: 0x2FAC, symBinAddr: 0x100006EE4, symSize: 0x2C }
  - { offsetInCU: 0xC045, offset: 0xC045, size: 0x8, addend: 0x0, symName: __ZN9PlutonianC2Ev, symObjAddr: 0x2FD8, symBinAddr: 0x100006F10, symSize: 0x44 }
  - { offsetInCU: 0xC070, offset: 0xC070, size: 0x8, addend: 0x0, symName: __ZNK9Plutonian4drawEv, symObjAddr: 0x301C, symBinAddr: 0x100006F54, symSize: 0x30 }
  - { offsetInCU: 0xC095, offset: 0xC095, size: 0x8, addend: 0x0, symName: __ZN9PlutonianD1Ev, symObjAddr: 0x304C, symBinAddr: 0x100006F84, symSize: 0x2C }
  - { offsetInCU: 0xC0C0, offset: 0xC0C0, size: 0x8, addend: 0x0, symName: __ZN9PlutonianD0Ev, symObjAddr: 0x3078, symBinAddr: 0x100006FB0, symSize: 0x58 }
  - { offsetInCU: 0xC0EB, offset: 0xC0EB, size: 0x8, addend: 0x0, symName: __ZN9PlutonianD2Ev, symObjAddr: 0x30D0, symBinAddr: 0x100007008, symSize: 0x2C }
  - { offsetInCU: 0xC116, offset: 0xC116, size: 0x8, addend: 0x0, symName: __ZN9SpaceShipC2Ev, symObjAddr: 0x30FC, symBinAddr: 0x100007034, symSize: 0x44 }
  - { offsetInCU: 0xC141, offset: 0xC141, size: 0x8, addend: 0x0, symName: __ZNK9SpaceShip4drawEv, symObjAddr: 0x3140, symBinAddr: 0x100007078, symSize: 0x30 }
  - { offsetInCU: 0xC166, offset: 0xC166, size: 0x8, addend: 0x0, symName: __ZN9SpaceShipD1Ev, symObjAddr: 0x3170, symBinAddr: 0x1000070A8, symSize: 0x2C }
  - { offsetInCU: 0xC191, offset: 0xC191, size: 0x8, addend: 0x0, symName: __ZN9SpaceShipD0Ev, symObjAddr: 0x319C, symBinAddr: 0x1000070D4, symSize: 0x58 }
  - { offsetInCU: 0xC1BC, offset: 0xC1BC, size: 0x8, addend: 0x0, symName: __ZN9SpaceShipD2Ev, symObjAddr: 0x31F4, symBinAddr: 0x10000712C, symSize: 0x2C }
  - { offsetInCU: 0xC1E7, offset: 0xC1E7, size: 0x8, addend: 0x0, symName: __ZN9LaserBeamC2Ev, symObjAddr: 0x3220, symBinAddr: 0x100007158, symSize: 0x44 }
  - { offsetInCU: 0xC212, offset: 0xC212, size: 0x8, addend: 0x0, symName: __ZNK9LaserBeam4drawEv, symObjAddr: 0x3264, symBinAddr: 0x10000719C, symSize: 0x30 }
  - { offsetInCU: 0xC237, offset: 0xC237, size: 0x8, addend: 0x0, symName: __ZN9LaserBeamD1Ev, symObjAddr: 0x3294, symBinAddr: 0x1000071CC, symSize: 0x2C }
  - { offsetInCU: 0xC262, offset: 0xC262, size: 0x8, addend: 0x0, symName: __ZN9LaserBeamD0Ev, symObjAddr: 0x32C0, symBinAddr: 0x1000071F8, symSize: 0x58 }
  - { offsetInCU: 0xC28D, offset: 0xC28D, size: 0x8, addend: 0x0, symName: __ZN9LaserBeamD2Ev, symObjAddr: 0x3318, symBinAddr: 0x100007250, symSize: 0x2C }
  - { offsetInCU: 0xC2B8, offset: 0xC2B8, size: 0x8, addend: 0x0, symName: __ZN9MercurianC2Ev, symObjAddr: 0x3344, symBinAddr: 0x10000727C, symSize: 0x44 }
  - { offsetInCU: 0xC2E3, offset: 0xC2E3, size: 0x8, addend: 0x0, symName: __ZNK9Mercurian4drawEv, symObjAddr: 0x3388, symBinAddr: 0x1000072C0, symSize: 0x30 }
  - { offsetInCU: 0xC308, offset: 0xC308, size: 0x8, addend: 0x0, symName: __ZN9MercurianD1Ev, symObjAddr: 0x33B8, symBinAddr: 0x1000072F0, symSize: 0x2C }
  - { offsetInCU: 0xC333, offset: 0xC333, size: 0x8, addend: 0x0, symName: __ZN9MercurianD0Ev, symObjAddr: 0x33E4, symBinAddr: 0x10000731C, symSize: 0x58 }
  - { offsetInCU: 0xC35E, offset: 0xC35E, size: 0x8, addend: 0x0, symName: __ZN9MercurianD2Ev, symObjAddr: 0x343C, symBinAddr: 0x100007374, symSize: 0x2C }
  - { offsetInCU: 0xC388, offset: 0xC388, size: 0x8, addend: 0x0, symName: __ZNSt3__16vectorIP11SpaceObjectNS_9allocatorIS2_EEE5beginB7v160006Ev, symObjAddr: 0x3468, symBinAddr: 0x1000073A0, symSize: 0x30 }
  - { offsetInCU: 0xC3AE, offset: 0xC3AE, size: 0x8, addend: 0x0, symName: __ZNSt3__16vectorIP11SpaceObjectNS_9allocatorIS2_EEE3endB7v160006Ev, symObjAddr: 0x3498, symBinAddr: 0x1000073D0, symSize: 0x30 }
  - { offsetInCU: 0xC3D5, offset: 0xC3D5, size: 0x8, addend: 0x0, symName: __ZNKSt3__111__wrap_iterIPP11SpaceObjectEdeB7v160006Ev, symObjAddr: 0x34FC, symBinAddr: 0x100007434, symSize: 0x18 }
  - { offsetInCU: 0xC3FA, offset: 0xC3FA, size: 0x8, addend: 0x0, symName: __ZNSt3__111__wrap_iterIPP11SpaceObjectEppB7v160006Ev, symObjAddr: 0x3514, symBinAddr: 0x10000744C, symSize: 0x20 }
  - { offsetInCU: 0xC41F, offset: 0xC41F, size: 0x8, addend: 0x0, symName: __ZNSt3__16vectorIP11SpaceObjectNS_9allocatorIS2_EEE11__make_iterB7v160006EPS2_, symObjAddr: 0x3534, symBinAddr: 0x10000746C, symSize: 0x34 }
  - { offsetInCU: 0xC453, offset: 0xC453, size: 0x8, addend: 0x0, symName: __ZNSt3__111__wrap_iterIPP11SpaceObjectEC1B7v160006EPKvS3_, symObjAddr: 0x3568, symBinAddr: 0x1000074A0, symSize: 0x3C }
  - { offsetInCU: 0xC498, offset: 0xC498, size: 0x8, addend: 0x0, symName: __ZNSt3__111__wrap_iterIPP11SpaceObjectEC2B7v160006EPKvS3_, symObjAddr: 0x35A4, symBinAddr: 0x1000074DC, symSize: 0x24 }
  - { offsetInCU: 0xC4DD, offset: 0xC4DD, size: 0x8, addend: 0x0, symName: __ZNKSt3__111__wrap_iterIPP11SpaceObjectE4baseB7v160006Ev, symObjAddr: 0x3610, symBinAddr: 0x100007548, symSize: 0x18 }
  - { offsetInCU: 0xC502, offset: 0xC502, size: 0x8, addend: 0x0, symName: __ZN13ScreenManagerD2Ev, symObjAddr: 0x3628, symBinAddr: 0x100007560, symSize: 0x2C }
  - { offsetInCU: 0xC52D, offset: 0xC52D, size: 0x8, addend: 0x0, symName: __ZNSt3__16vectorIP11SpaceObjectNS_9allocatorIS2_EEED1B7v160006Ev, symObjAddr: 0x3654, symBinAddr: 0x10000758C, symSize: 0x2C }
  - { offsetInCU: 0xC556, offset: 0xC556, size: 0x8, addend: 0x0, symName: __ZNSt3__16vectorIP11SpaceObjectNS_9allocatorIS2_EEED2B7v160006Ev, symObjAddr: 0x3680, symBinAddr: 0x1000075B8, symSize: 0x3C }
  - { offsetInCU: 0xC57F, offset: 0xC57F, size: 0x8, addend: 0x0, symName: __ZNSt3__16vectorIP11SpaceObjectNS_9allocatorIS2_EEE16__destroy_vectorC1ERS5_, symObjAddr: 0x36BC, symBinAddr: 0x1000075F4, symSize: 0x34 }
  - { offsetInCU: 0xC5B7, offset: 0xC5B7, size: 0x8, addend: 0x0, symName: __ZNSt3__16vectorIP11SpaceObjectNS_9allocatorIS2_EEE16__destroy_vectorclB7v160006Ev, symObjAddr: 0x36F0, symBinAddr: 0x100007628, symSize: 0x9C }
  - { offsetInCU: 0xC5DC, offset: 0xC5DC, size: 0x8, addend: 0x0, symName: __ZNSt3__16vectorIP11SpaceObjectNS_9allocatorIS2_EEE16__destroy_vectorC2ERS5_, symObjAddr: 0x378C, symBinAddr: 0x1000076C4, symSize: 0x20 }
  - { offsetInCU: 0xC614, offset: 0xC614, size: 0x8, addend: 0x0, symName: __ZNSt3__16vectorIP11SpaceObjectNS_9allocatorIS2_EEE7__clearB7v160006Ev, symObjAddr: 0x37BC, symBinAddr: 0x1000076F4, symSize: 0x28 }
  - { offsetInCU: 0xC639, offset: 0xC639, size: 0x8, addend: 0x0, symName: __ZNSt3__16vectorIP11SpaceObjectNS_9allocatorIS2_EEE22__base_destruct_at_endB7v160006EPS2_, symObjAddr: 0x37E4, symBinAddr: 0x10000771C, symSize: 0xA0 }
...
