---
triple:          'arm64-apple-darwin'
binary-path:     '/Users/spoofch/Documents/Lab_C++/Lab5/2'
relocations:
  - { offsetInCU: 0x3360, offset: 0x3360, size: 0x8, addend: 0x0, symName: __ZNSt3__124__put_character_sequenceB7v160006IcNS_11char_traitsIcEEEERNS_13basic_ostreamIT_T0_EES7_PKS4_m, symObjAddr: 0xAF0, symBinAddr: 0x100003148, symSize: 0x1F4 }
  - { offsetInCU: 0x46F5, offset: 0x46F5, size: 0x8, addend: 0x0, symName: __ZNSt3__1lsB7v160006INS_11char_traitsIcEEEERNS_13basic_ostreamIcT_EES6_PKc, symObjAddr: 0x98, symBinAddr: 0x1000026F0, symSize: 0x48 }
  - { offsetInCU: 0x4746, offset: 0x4746, size: 0x8, addend: 0x0, symName: __ZNSt3__1lsB7v160006IcNS_11char_traitsIcEEEERNS_13basic_ostreamIT_T0_EES7_RKNS_8__iom_t6E, symObjAddr: 0x5D4, symBinAddr: 0x100002C2C, symSize: 0x40 }
  - { offsetInCU: 0x4795, offset: 0x4795, size: 0x8, addend: 0x0, symName: __ZNSt3__14setwB7v160006Ei, symObjAddr: 0x614, symBinAddr: 0x100002C6C, symSize: 0x2C }
  - { offsetInCU: 0x47C3, offset: 0x47C3, size: 0x8, addend: 0x0, symName: __ZNSt3__14endlB7v160006IcNS_11char_traitsIcEEEERNS_13basic_ostreamIT_T0_EES7_, symObjAddr: 0x66C, symBinAddr: 0x100002CC4, symSize: 0x58 }
  - { offsetInCU: 0x4803, offset: 0x4803, size: 0x8, addend: 0x0, symName: __ZNSt3__1lsB7v160006IcNS_11char_traitsIcEEEERNS_13basic_ostreamIT_T0_EES7_RKNS_8__iom_t5E, symObjAddr: 0x6C4, symBinAddr: 0x100002D1C, symSize: 0x40 }
  - { offsetInCU: 0x484F, offset: 0x484F, size: 0x8, addend: 0x0, symName: __ZNSt3__15fixedB7v160006ERNS_8ios_baseE, symObjAddr: 0x744, symBinAddr: 0x100002D9C, symSize: 0x30 }
  - { offsetInCU: 0x487D, offset: 0x487D, size: 0x8, addend: 0x0, symName: __ZNSt3__112setprecisionB7v160006Ei, symObjAddr: 0x774, symBinAddr: 0x100002DCC, symSize: 0x2C }
  - { offsetInCU: 0x48A9, offset: 0x48A9, size: 0x8, addend: 0x0, symName: __ZNSt3__19use_facetB7v160006INS_5ctypeIcEEEERKT_RKNS_6localeE, symObjAddr: 0x988, symBinAddr: 0x100002FE0, symSize: 0x2C }
  - { offsetInCU: 0x4D78, offset: 0x4D78, size: 0x8, addend: 0x0, symName: __ZNSt3__116__pad_and_outputB7v160006IcNS_11char_traitsIcEEEENS_19ostreambuf_iteratorIT_T0_EES6_PKS4_S8_S8_RNS_8ios_baseES4_, symObjAddr: 0xD48, symBinAddr: 0x1000033A0, symSize: 0x248 }
  - { offsetInCU: 0x4E47, offset: 0x4E47, size: 0x8, addend: 0x0, symName: __ZNSt3__119__debug_db_insert_cB7v160006INS_12basic_stringIcNS_11char_traitsIcEENS_9allocatorIcEEEEEEvPT_, symObjAddr: 0x11D8, symBinAddr: 0x100003830, symSize: 0x10 }
  - { offsetInCU: 0x4E78, offset: 0x4E78, size: 0x8, addend: 0x0, symName: __ZNSt3__112__to_addressB7v160006IKcEEPT_S3_, symObjAddr: 0x12A4, symBinAddr: 0x1000038FC, symSize: 0x14 }
  - { offsetInCU: 0x4EAD, offset: 0x4EAD, size: 0x8, addend: 0x0, symName: __ZNSt3__130__libcpp_is_constant_evaluatedB7v160006Ev, symObjAddr: 0x13D0, symBinAddr: 0x100003A28, symSize: 0xC }
  - { offsetInCU: 0x4EFD, offset: 0x4EFD, size: 0x8, addend: 0x0, symName: __ZNSt3__118__constexpr_strlenB7v160006EPKc, symObjAddr: 0x14F4, symBinAddr: 0x100003B4C, symSize: 0x24 }
  - { offsetInCU: 0x7386, offset: 0x7386, size: 0x8, addend: 0x0, symName: _main, symObjAddr: 0x0, symBinAddr: 0x100002658, symSize: 0x98 }
  - { offsetInCU: 0x742E, offset: 0x742E, size: 0x8, addend: 0x0, symName: __ZN16PopulationGrowthC1Edd, symObjAddr: 0xE0, symBinAddr: 0x100002738, symSize: 0x3C }
  - { offsetInCU: 0x7472, offset: 0x7472, size: 0x8, addend: 0x0, symName: __ZN16PopulationGrowth15calculateGrowthEi, symObjAddr: 0x11C, symBinAddr: 0x100002774, symSize: 0x36C }
  - { offsetInCU: 0x74EC, offset: 0x74EC, size: 0x8, addend: 0x0, symName: __ZN16PopulationGrowthC2Edd, symObjAddr: 0x488, symBinAddr: 0x100002AE0, symSize: 0x2C }
  - { offsetInCU: 0x7530, offset: 0x7530, size: 0x8, addend: 0x0, symName: __ZNSt3__19basic_iosIcNS_11char_traitsIcEEE5imbueB7v160006ERKNS_6localeE, symObjAddr: 0x4B4, symBinAddr: 0x100002B0C, symSize: 0x114 }
  - { offsetInCU: 0x7575, offset: 0x7575, size: 0x8, addend: 0x0, symName: __ZNSt3__113basic_ostreamIcNS_11char_traitsIcEEElsB7v160006EPFRS3_S4_E, symObjAddr: 0x640, symBinAddr: 0x100002C98, symSize: 0x2C }
  - { offsetInCU: 0x75A7, offset: 0x75A7, size: 0x8, addend: 0x0, symName: __ZNSt3__113basic_ostreamIcNS_11char_traitsIcEEElsB7v160006EPFRNS_8ios_baseES5_E, symObjAddr: 0x704, symBinAddr: 0x100002D5C, symSize: 0x40 }
  - { offsetInCU: 0x75D9, offset: 0x75D9, size: 0x8, addend: 0x0, symName: __ZNKSt3__19basic_iosIcNS_11char_traitsIcEEE5rdbufB7v160006Ev, symObjAddr: 0x7A0, symBinAddr: 0x100002DF8, symSize: 0x24 }
  - { offsetInCU: 0x75FF, offset: 0x75FF, size: 0x8, addend: 0x0, symName: __ZNSt3__115basic_streambufIcNS_11char_traitsIcEEE8pubimbueB7v160006ERKNS_6localeE, symObjAddr: 0x7C4, symBinAddr: 0x100002E1C, symSize: 0xA0 }
  - { offsetInCU: 0x7640, offset: 0x7640, size: 0x8, addend: 0x0, symName: __ZNKSt3__18ios_base5rdbufB7v160006Ev, symObjAddr: 0x864, symBinAddr: 0x100002EBC, symSize: 0x18 }
  - { offsetInCU: 0x7664, offset: 0x7664, size: 0x8, addend: 0x0, symName: __ZNSt3__18ios_base5widthB7v160006El, symObjAddr: 0x87C, symBinAddr: 0x100002ED4, symSize: 0x2C }
  - { offsetInCU: 0x76A8, offset: 0x76A8, size: 0x8, addend: 0x0, symName: __ZNSt3__18__iom_t6C1B7v160006Ei, symObjAddr: 0x8A8, symBinAddr: 0x100002F00, symSize: 0x34 }
  - { offsetInCU: 0x76DE, offset: 0x76DE, size: 0x8, addend: 0x0, symName: __ZNSt3__18__iom_t6C2B7v160006Ei, symObjAddr: 0x8DC, symBinAddr: 0x100002F34, symSize: 0x20 }
  - { offsetInCU: 0x7714, offset: 0x7714, size: 0x8, addend: 0x0, symName: __ZNKSt3__19basic_iosIcNS_11char_traitsIcEEE5widenB7v160006Ec, symObjAddr: 0x8FC, symBinAddr: 0x100002F54, symSize: 0x8C }
  - { offsetInCU: 0x7780, offset: 0x7780, size: 0x8, addend: 0x0, symName: __ZNKSt3__15ctypeIcE5widenB7v160006Ec, symObjAddr: 0x9B4, symBinAddr: 0x10000300C, symSize: 0x38 }
  - { offsetInCU: 0x77B3, offset: 0x77B3, size: 0x8, addend: 0x0, symName: __ZNSt3__18ios_base9precisionB7v160006El, symObjAddr: 0x9EC, symBinAddr: 0x100003044, symSize: 0x2C }
  - { offsetInCU: 0x77F7, offset: 0x77F7, size: 0x8, addend: 0x0, symName: __ZNSt3__18ios_base4setfB7v160006Ejj, symObjAddr: 0xA18, symBinAddr: 0x100003070, symSize: 0x5C }
  - { offsetInCU: 0x784A, offset: 0x784A, size: 0x8, addend: 0x0, symName: __ZNSt3__18ios_base6unsetfB7v160006Ej, symObjAddr: 0xA74, symBinAddr: 0x1000030CC, symSize: 0x28 }
  - { offsetInCU: 0x787F, offset: 0x787F, size: 0x8, addend: 0x0, symName: __ZNSt3__18__iom_t5C1B7v160006Ei, symObjAddr: 0xA9C, symBinAddr: 0x1000030F4, symSize: 0x34 }
  - { offsetInCU: 0x78B5, offset: 0x78B5, size: 0x8, addend: 0x0, symName: __ZNSt3__18__iom_t5C2B7v160006Ei, symObjAddr: 0xAD0, symBinAddr: 0x100003128, symSize: 0x20 }
  - { offsetInCU: 0x78EB, offset: 0x78EB, size: 0x8, addend: 0x0, symName: __ZNSt3__111char_traitsIcE6lengthEPKc, symObjAddr: 0xCE4, symBinAddr: 0x10000333C, symSize: 0x48 }
  - { offsetInCU: 0x792B, offset: 0x792B, size: 0x8, addend: 0x0, symName: __ZNKSt3__113basic_ostreamIcNS_11char_traitsIcEEE6sentrycvbB7v160006Ev, symObjAddr: 0xD2C, symBinAddr: 0x100003384, symSize: 0x1C }
  - { offsetInCU: 0x794F, offset: 0x794F, size: 0x8, addend: 0x0, symName: __ZNSt3__119ostreambuf_iteratorIcNS_11char_traitsIcEEEC1B7v160006ERNS_13basic_ostreamIcS2_EE, symObjAddr: 0xF90, symBinAddr: 0x1000035E8, symSize: 0x34 }
  - { offsetInCU: 0x7985, offset: 0x7985, size: 0x8, addend: 0x0, symName: __ZNKSt3__18ios_base5flagsB7v160006Ev, symObjAddr: 0xFC4, symBinAddr: 0x10000361C, symSize: 0x18 }
  - { offsetInCU: 0x79AB, offset: 0x79AB, size: 0x8, addend: 0x0, symName: __ZNKSt3__19basic_iosIcNS_11char_traitsIcEEE4fillB7v160006Ev, symObjAddr: 0xFDC, symBinAddr: 0x100003634, symSize: 0x64 }
  - { offsetInCU: 0x79D1, offset: 0x79D1, size: 0x8, addend: 0x0, symName: __ZNKSt3__119ostreambuf_iteratorIcNS_11char_traitsIcEEE6failedB7v160006Ev, symObjAddr: 0x1040, symBinAddr: 0x100003698, symSize: 0x24 }
  - { offsetInCU: 0x79F5, offset: 0x79F5, size: 0x8, addend: 0x0, symName: __ZNSt3__19basic_iosIcNS_11char_traitsIcEEE8setstateB7v160006Ej, symObjAddr: 0x1064, symBinAddr: 0x1000036BC, symSize: 0x2C }
  - { offsetInCU: 0x7A28, offset: 0x7A28, size: 0x8, addend: 0x0, symName: __ZNKSt3__18ios_base5widthB7v160006Ev, symObjAddr: 0x1090, symBinAddr: 0x1000036E8, symSize: 0x18 }
  - { offsetInCU: 0x7A4E, offset: 0x7A4E, size: 0x8, addend: 0x0, symName: __ZNSt3__115basic_streambufIcNS_11char_traitsIcEEE5sputnB7v160006EPKcl, symObjAddr: 0x10A8, symBinAddr: 0x100003700, symSize: 0x3C }
  - { offsetInCU: 0x7A8E, offset: 0x7A8E, size: 0x8, addend: 0x0, symName: __ZNSt3__112basic_stringIcNS_11char_traitsIcEENS_9allocatorIcEEEC1B7v160006Emc, symObjAddr: 0x10E4, symBinAddr: 0x10000373C, symSize: 0x3C }
  - { offsetInCU: 0x7AD4, offset: 0x7AD4, size: 0x8, addend: 0x0, symName: __ZNKSt3__112basic_stringIcNS_11char_traitsIcEENS_9allocatorIcEEE4dataB7v160006Ev, symObjAddr: 0x1120, symBinAddr: 0x100003778, symSize: 0x28 }
  - { offsetInCU: 0x7AF8, offset: 0x7AF8, size: 0x8, addend: 0x0, symName: __ZNSt3__112basic_stringIcNS_11char_traitsIcEENS_9allocatorIcEEEC2B7v160006Emc, symObjAddr: 0x1148, symBinAddr: 0x1000037A0, symSize: 0x54 }
  - { offsetInCU: 0x7B43, offset: 0x7B43, size: 0x8, addend: 0x0, symName: __ZNSt3__117__compressed_pairINS_12basic_stringIcNS_11char_traitsIcEENS_9allocatorIcEEE5__repES5_EC1B7v160006INS_18__default_init_tagESA_EEOT_OT0_, symObjAddr: 0x119C, symBinAddr: 0x1000037F4, symSize: 0x3C }
  - { offsetInCU: 0x7B99, offset: 0x7B99, size: 0x8, addend: 0x0, symName: __ZNSt3__117__compressed_pairINS_12basic_stringIcNS_11char_traitsIcEENS_9allocatorIcEEE5__repES5_EC2B7v160006INS_18__default_init_tagESA_EEOT_OT0_, symObjAddr: 0x11E8, symBinAddr: 0x100003840, symSize: 0x3C }
  - { offsetInCU: 0x7BEF, offset: 0x7BEF, size: 0x8, addend: 0x0, symName: __ZNSt3__122__compressed_pair_elemINS_12basic_stringIcNS_11char_traitsIcEENS_9allocatorIcEEE5__repELi0ELb0EEC2B7v160006ENS_18__default_init_tagE, symObjAddr: 0x1224, symBinAddr: 0x10000387C, symSize: 0x14 }
  - { offsetInCU: 0x7C21, offset: 0x7C21, size: 0x8, addend: 0x0, symName: __ZNSt3__122__compressed_pair_elemINS_9allocatorIcEELi1ELb1EEC2B7v160006ENS_18__default_init_tagE, symObjAddr: 0x1238, symBinAddr: 0x100003890, symSize: 0x2C }
  - { offsetInCU: 0x7C53, offset: 0x7C53, size: 0x8, addend: 0x0, symName: __ZNSt3__19allocatorIcEC2B7v160006Ev, symObjAddr: 0x1264, symBinAddr: 0x1000038BC, symSize: 0x2C }
  - { offsetInCU: 0x7C7B, offset: 0x7C7B, size: 0x8, addend: 0x0, symName: __ZNSt3__116__non_trivial_ifILb1ENS_9allocatorIcEEEC2B7v160006Ev, symObjAddr: 0x1290, symBinAddr: 0x1000038E8, symSize: 0x14 }
  - { offsetInCU: 0x7CA3, offset: 0x7CA3, size: 0x8, addend: 0x0, symName: __ZNKSt3__112basic_stringIcNS_11char_traitsIcEENS_9allocatorIcEEE13__get_pointerB7v160006Ev, symObjAddr: 0x12B8, symBinAddr: 0x100003910, symSize: 0x54 }
  - { offsetInCU: 0x7CC7, offset: 0x7CC7, size: 0x8, addend: 0x0, symName: __ZNKSt3__112basic_stringIcNS_11char_traitsIcEENS_9allocatorIcEEE9__is_longB7v160006Ev, symObjAddr: 0x130C, symBinAddr: 0x100003964, symSize: 0x74 }
  - { offsetInCU: 0x7CEB, offset: 0x7CEB, size: 0x8, addend: 0x0, symName: __ZNKSt3__112basic_stringIcNS_11char_traitsIcEENS_9allocatorIcEEE18__get_long_pointerB7v160006Ev, symObjAddr: 0x1380, symBinAddr: 0x1000039D8, symSize: 0x28 }
  - { offsetInCU: 0x7D0F, offset: 0x7D0F, size: 0x8, addend: 0x0, symName: __ZNKSt3__112basic_stringIcNS_11char_traitsIcEENS_9allocatorIcEEE19__get_short_pointerB7v160006Ev, symObjAddr: 0x13A8, symBinAddr: 0x100003A00, symSize: 0x28 }
  - { offsetInCU: 0x7D33, offset: 0x7D33, size: 0x8, addend: 0x0, symName: __ZNKSt3__117__compressed_pairINS_12basic_stringIcNS_11char_traitsIcEENS_9allocatorIcEEE5__repES5_E5firstB7v160006Ev, symObjAddr: 0x13DC, symBinAddr: 0x100003A34, symSize: 0x24 }
  - { offsetInCU: 0x7D57, offset: 0x7D57, size: 0x8, addend: 0x0, symName: __ZNKSt3__122__compressed_pair_elemINS_12basic_stringIcNS_11char_traitsIcEENS_9allocatorIcEEE5__repELi0ELb0EE5__getB7v160006Ev, symObjAddr: 0x1400, symBinAddr: 0x100003A58, symSize: 0x14 }
  - { offsetInCU: 0x7D7B, offset: 0x7D7B, size: 0x8, addend: 0x0, symName: __ZNSt3__114pointer_traitsIPKcE10pointer_toB7v160006ERS1_, symObjAddr: 0x1414, symBinAddr: 0x100003A6C, symSize: 0x14 }
  - { offsetInCU: 0x7D9D, offset: 0x7D9D, size: 0x8, addend: 0x0, symName: __ZNSt3__119ostreambuf_iteratorIcNS_11char_traitsIcEEEC2B7v160006ERNS_13basic_ostreamIcS2_EE, symObjAddr: 0x1428, symBinAddr: 0x100003A80, symSize: 0x68 }
  - { offsetInCU: 0x7DD3, offset: 0x7DD3, size: 0x8, addend: 0x0, symName: __ZNSt3__111char_traitsIcE11eq_int_typeEii, symObjAddr: 0x1490, symBinAddr: 0x100003AE8, symSize: 0x28 }
  - { offsetInCU: 0x7E03, offset: 0x7E03, size: 0x8, addend: 0x0, symName: __ZNSt3__111char_traitsIcE3eofEv, symObjAddr: 0x14B8, symBinAddr: 0x100003B10, symSize: 0x8 }
  - { offsetInCU: 0x7E16, offset: 0x7E16, size: 0x8, addend: 0x0, symName: __ZNSt3__18ios_base8setstateB7v160006Ej, symObjAddr: 0x14C0, symBinAddr: 0x100003B18, symSize: 0x34 }
...
