---
triple:          'arm64-apple-darwin'
binary-path:     '/Users/spoofch/Documents/Lab_C++/Lab14/2'
relocations:
  - { offsetInCU: 0x45FD, offset: 0x45FD, size: 0x8, addend: 0x0, symName: __ZNSt3__124__put_character_sequenceB8ue170006IcNS_11char_traitsIcEEEERNS_13basic_ostreamIT_T0_EES7_PKS4_m, symObjAddr: 0x1B4C, symBinAddr: 0x100003B24, symSize: 0x1F4 }
  - { offsetInCU: 0x56FE, offset: 0x56FE, size: 0x8, addend: 0x0, symName: __ZNSt3__111__sift_downB8ue170006INS_17_ClassicAlgPolicyERNS_6__lessIvvEEPdEEvT1_OT0_NS_15iterator_traitsIS6_E15difference_typeES6_, symObjAddr: 0x4CE8, symBinAddr: 0x100006CC0, symSize: 0x20C }
  - { offsetInCU: 0x57AB, offset: 0x57AB, size: 0x8, addend: 0x0, symName: __ZNSt3__117__floyd_sift_downB8ue170006INS_17_ClassicAlgPolicyERNS_6__lessIvvEEPdEET1_S6_OT0_NS_15iterator_traitsIS6_E15difference_typeE, symObjAddr: 0x5124, symBinAddr: 0x1000070FC, symSize: 0x100 }
  - { offsetInCU: 0x6777, offset: 0x6777, size: 0x8, addend: 0x0, symName: __ZNSt3__1lsB8ue170006INS_11char_traitsIcEEEERNS_13basic_ostreamIcT_EES6_PKc, symObjAddr: 0x650, symBinAddr: 0x100002628, symSize: 0x48 }
  - { offsetInCU: 0x67BD, offset: 0x67BD, size: 0x8, addend: 0x0, symName: __ZNSt3__17getlineB8ue170006IcNS_11char_traitsIcEENS_9allocatorIcEEEERNS_13basic_istreamIT_T0_EES9_RNS_12basic_stringIS6_S7_T1_EE, symObjAddr: 0x698, symBinAddr: 0x100002670, symSize: 0x5C }
  - { offsetInCU: 0x7127, offset: 0x7127, size: 0x8, addend: 0x0, symName: __ZNSt3__1neB8ue170006IPdEEbRKNS_11__wrap_iterIT_EES6_, symObjAddr: 0x914, symBinAddr: 0x1000028EC, symSize: 0x34 }
  - { offsetInCU: 0x716A, offset: 0x716A, size: 0x8, addend: 0x0, symName: __ZNSt3__14sortB8ue170006INS_11__wrap_iterIPdEEEEvT_S4_, symObjAddr: 0x9A8, symBinAddr: 0x100002980, symSize: 0x3C }
  - { offsetInCU: 0x71AC, offset: 0x71AC, size: 0x8, addend: 0x0, symName: __ZNSt3__111min_elementB8ue170006INS_11__wrap_iterIPdEEEET_S4_S4_, symObjAddr: 0xA40, symBinAddr: 0x100002A18, symSize: 0x44 }
  - { offsetInCU: 0x71EF, offset: 0x71EF, size: 0x8, addend: 0x0, symName: __ZNSt3__111max_elementB8ue170006INS_11__wrap_iterIPdEEEET_S4_S4_, symObjAddr: 0xA84, symBinAddr: 0x100002A5C, symSize: 0x44 }
  - { offsetInCU: 0x7232, offset: 0x7232, size: 0x8, addend: 0x0, symName: __ZNSt3__1lsB8ue170006IcNS_11char_traitsIcEEEERNS_13basic_ostreamIT_T0_EES7_RKNS_8__iom_t5E, symObjAddr: 0xAC8, symBinAddr: 0x100002AA0, symSize: 0x40 }
  - { offsetInCU: 0x727E, offset: 0x727E, size: 0x8, addend: 0x0, symName: __ZNSt3__15fixedB8ue170006ERNS_8ios_baseE, symObjAddr: 0xB48, symBinAddr: 0x100002B20, symSize: 0x30 }
  - { offsetInCU: 0x72AC, offset: 0x72AC, size: 0x8, addend: 0x0, symName: __ZNSt3__112setprecisionB8ue170006Ei, symObjAddr: 0xB78, symBinAddr: 0x100002B50, symSize: 0x2C }
  - { offsetInCU: 0x72D8, offset: 0x72D8, size: 0x8, addend: 0x0, symName: __ZNSt3__14endlB8ue170006IcNS_11char_traitsIcEEEERNS_13basic_ostreamIT_T0_EES7_, symObjAddr: 0xBD0, symBinAddr: 0x100002BA8, symSize: 0x58 }
  - { offsetInCU: 0x7323, offset: 0x7323, size: 0x8, addend: 0x0, symName: __ZNSt3__112__to_addressB8ue170006IdEEPT_S2_, symObjAddr: 0x13C0, symBinAddr: 0x100003398, symSize: 0x14 }
  - { offsetInCU: 0x7358, offset: 0x7358, size: 0x8, addend: 0x0, symName: __ZNSt3__130__libcpp_is_constant_evaluatedB8ue170006Ev, symObjAddr: 0x14A0, symBinAddr: 0x100003478, symSize: 0xC }
  - { offsetInCU: 0x7375, offset: 0x7375, size: 0x8, addend: 0x0, symName: __ZNSt3__119__libcpp_deallocateB8ue170006EPvmm, symObjAddr: 0x14AC, symBinAddr: 0x100003484, symSize: 0x30 }
  - { offsetInCU: 0x73BD, offset: 0x73BD, size: 0x8, addend: 0x0, symName: __ZNSt3__127__do_deallocate_handle_sizeB8ue170006IJEEEvPvmDpT_, symObjAddr: 0x14DC, symBinAddr: 0x1000034B4, symSize: 0x28 }
  - { offsetInCU: 0x73FB, offset: 0x73FB, size: 0x8, addend: 0x0, symName: __ZNSt3__124__libcpp_operator_deleteB8ue170006IJPvEEEvDpT_, symObjAddr: 0x1504, symBinAddr: 0x1000034DC, symSize: 0x24 }
  - { offsetInCU: 0x7430, offset: 0x7430, size: 0x8, addend: 0x0, symName: __ZNSt3__117__libcpp_allocateB8ue170006Emm, symObjAddr: 0x1AB4, symBinAddr: 0x100003A8C, symSize: 0x28 }
  - { offsetInCU: 0x746D, offset: 0x746D, size: 0x8, addend: 0x0, symName: __ZNSt3__121__libcpp_operator_newB8ue170006IJmEEEPvDpT_, symObjAddr: 0x1AF0, symBinAddr: 0x100003AC8, symSize: 0x24 }
  - { offsetInCU: 0x74A6, offset: 0x74A6, size: 0x8, addend: 0x0, symName: __ZNSt3__116__pad_and_outputB8ue170006IcNS_11char_traitsIcEEEENS_19ostreambuf_iteratorIT_T0_EES6_PKS4_S8_S8_RNS_8ios_baseES4_, symObjAddr: 0x1DA4, symBinAddr: 0x100003D7C, symSize: 0x248 }
  - { offsetInCU: 0x7575, offset: 0x7575, size: 0x8, addend: 0x0, symName: __ZNSt3__112__to_addressB8ue170006IKcEEPT_S3_, symObjAddr: 0x221C, symBinAddr: 0x1000041F4, symSize: 0x14 }
  - { offsetInCU: 0x75DD, offset: 0x75DD, size: 0x8, addend: 0x0, symName: __ZNSt3__19use_facetB8ue170006INS_5ctypeIcEEEERKT_RKNS_6localeE, symObjAddr: 0x24F4, symBinAddr: 0x1000044CC, symSize: 0x2C }
  - { offsetInCU: 0x7AAA, offset: 0x7AAA, size: 0x8, addend: 0x0, symName: __ZNSt3__118__constexpr_strlenB8ue170006EPKc, symObjAddr: 0x258C, symBinAddr: 0x100004564, symSize: 0x24 }
  - { offsetInCU: 0x7AD6, offset: 0x7AD6, size: 0x8, addend: 0x0, symName: __ZNSt3__17getlineB8ue170006IcNS_11char_traitsIcEENS_9allocatorIcEEEERNS_13basic_istreamIT_T0_EES9_RNS_12basic_stringIS6_S7_T1_EES6_, symObjAddr: 0x25B0, symBinAddr: 0x100004588, symSize: 0x238 }
  - { offsetInCU: 0x7DC9, offset: 0x7DC9, size: 0x8, addend: 0x0, symName: __ZNSt3__13maxB8ue170006ImEERKT_S3_S3_, symObjAddr: 0x3620, symBinAddr: 0x1000055F8, symSize: 0x2C }
  - { offsetInCU: 0x7E0C, offset: 0x7E0C, size: 0x8, addend: 0x0, symName: __ZNSt3__13minB8ue170006ImEERKT_S3_S3_, symObjAddr: 0x364C, symBinAddr: 0x100005624, symSize: 0x2C }
  - { offsetInCU: 0x8050, offset: 0x8050, size: 0x8, addend: 0x0, symName: __ZNSt3__13minB8ue170006ImNS_6__lessIvvEEEERKT_S5_S5_T0_, symObjAddr: 0x36D8, symBinAddr: 0x1000056B0, symSize: 0x54 }
  - { offsetInCU: 0x8120, offset: 0x8120, size: 0x8, addend: 0x0, symName: __ZNSt3__120__throw_length_errorB8ue170006EPKc, symObjAddr: 0x37B4, symBinAddr: 0x10000578C, symSize: 0x64 }
  - { offsetInCU: 0x814A, offset: 0x814A, size: 0x8, addend: 0x0, symName: __ZNSt3__13maxB8ue170006ImNS_6__lessIvvEEEERKT_S5_S5_T0_, symObjAddr: 0x3898, symBinAddr: 0x100005870, symSize: 0x54 }
  - { offsetInCU: 0x81A4, offset: 0x81A4, size: 0x8, addend: 0x0, symName: __ZNSt3__119__allocate_at_leastB8ue170006INS_9allocatorIdEEEENS_19__allocation_resultINS_16allocator_traitsIT_E7pointerEEERS5_m, symObjAddr: 0x39FC, symBinAddr: 0x1000059D4, symSize: 0x40 }
  - { offsetInCU: 0x81E7, offset: 0x81E7, size: 0x8, addend: 0x0, symName: __ZNSt3__142__uninitialized_allocator_move_if_noexceptB8ue170006INS_9allocatorIdEENS_16reverse_iteratorIPdEES5_dvEET1_RT_T0_S9_S6_, symObjAddr: 0x3BDC, symBinAddr: 0x100005BB4, symSize: 0xE8 }
  - { offsetInCU: 0x8264, offset: 0x8264, size: 0x8, addend: 0x0, symName: __ZNSt3__14swapB8ue170006IPdEEvRT_S3_, symObjAddr: 0x3D10, symBinAddr: 0x100005CE8, symSize: 0x3C }
  - { offsetInCU: 0x82B5, offset: 0x82B5, size: 0x8, addend: 0x0, symName: __ZNSt3__1neB8ue170006IPdS1_EEbRKNS_16reverse_iteratorIT_EERKNS2_IT0_EE, symObjAddr: 0x3DF8, symBinAddr: 0x100005DD0, symSize: 0x48 }
  - { offsetInCU: 0x8326, offset: 0x8326, size: 0x8, addend: 0x0, symName: __ZNSt3__114__construct_atB8ue170006IdJdEPdEEPT_S3_DpOT0_, symObjAddr: 0x3E40, symBinAddr: 0x100005E18, symSize: 0x2C }
  - { offsetInCU: 0x8396, offset: 0x8396, size: 0x8, addend: 0x0, symName: __ZNSt3__112__to_addressB8ue170006INS_16reverse_iteratorIPdEEvEEu7__decayIDTclsr19__to_address_helperIT_EE6__callclsr3stdE7declvalIRKS4_EEEEES6_, symObjAddr: 0x3E6C, symBinAddr: 0x100005E44, symSize: 0x24 }
  - { offsetInCU: 0x83CC, offset: 0x83CC, size: 0x8, addend: 0x0, symName: __ZNSt3__14moveB8ue170006INS_16reverse_iteratorIPdEES3_EET0_T_S5_S4_, symObjAddr: 0x3ED8, symBinAddr: 0x100005EB0, symSize: 0x78 }
  - { offsetInCU: 0x844F, offset: 0x844F, size: 0x8, addend: 0x0, symName: __ZNSt3__16__moveB8ue170006INS_17_ClassicAlgPolicyENS_16reverse_iteratorIPdEES4_S4_EENS_4pairIT0_T2_EES6_T1_S7_, symObjAddr: 0x3FC0, symBinAddr: 0x100005F98, symSize: 0x64 }
  - { offsetInCU: 0x84BB, offset: 0x84BB, size: 0x8, addend: 0x0, symName: __ZNSt3__123__dispatch_copy_or_moveB8ue170006INS_17_ClassicAlgPolicyENS_11__move_loopIS1_EENS_14__move_trivialENS_16reverse_iteratorIPdEES7_S7_EENS_4pairIT2_T4_EES9_T3_SA_, symObjAddr: 0x4024, symBinAddr: 0x100005FFC, symSize: 0x64 }
  - { offsetInCU: 0x8539, offset: 0x8539, size: 0x8, addend: 0x0, symName: __ZNSt3__121__unwrap_and_dispatchB8ue170006INS_10__overloadINS_11__move_loopINS_17_ClassicAlgPolicyEEENS_14__move_trivialEEENS_16reverse_iteratorIPdEES9_S9_Li0EEENS_4pairIT0_T2_EESB_T1_SC_, symObjAddr: 0x4088, symBinAddr: 0x100006060, symSize: 0x12C }
  - { offsetInCU: 0x85C9, offset: 0x85C9, size: 0x8, addend: 0x0, symName: __ZNSt3__114__unwrap_rangeB8ue170006INS_16reverse_iteratorIPdEES3_EENS_4pairIT0_S5_EET_S7_, symObjAddr: 0x41B4, symBinAddr: 0x10000618C, symSize: 0x84 }
  - { offsetInCU: 0x871D, offset: 0x871D, size: 0x8, addend: 0x0, symName: __ZNSt3__113__unwrap_iterB8ue170006INS_16reverse_iteratorIPdEENS_18__unwrap_iter_implIS3_Lb0EEELi0EEEDTclsrT0_8__unwrapclsr3stdE7declvalIT_EEEES7_, symObjAddr: 0x42D8, symBinAddr: 0x1000062B0, symSize: 0x44 }
  - { offsetInCU: 0x8761, offset: 0x8761, size: 0x8, addend: 0x0, symName: __ZNSt3__19make_pairB8ue170006INS_16reverse_iteratorIPdEES3_EENS_4pairINS_18__unwrap_ref_decayIT_E4typeENS5_IT0_E4typeEEEOS6_OS9_, symObjAddr: 0x431C, symBinAddr: 0x1000062F4, symSize: 0x38 }
  - { offsetInCU: 0x87B0, offset: 0x87B0, size: 0x8, addend: 0x0, symName: __ZNSt3__114__rewrap_rangeB8ue170006INS_16reverse_iteratorIPdEES3_EET_S4_T0_, symObjAddr: 0x4354, symBinAddr: 0x10000632C, symSize: 0x5C }
  - { offsetInCU: 0x87FC, offset: 0x87FC, size: 0x8, addend: 0x0, symName: __ZNSt3__113__rewrap_iterB8ue170006INS_16reverse_iteratorIPdEES3_NS_18__unwrap_iter_implIS3_Lb0EEEEET_S6_T0_, symObjAddr: 0x43B0, symBinAddr: 0x100006388, symSize: 0x88 }
  - { offsetInCU: 0x8981, offset: 0x8981, size: 0x8, addend: 0x0, symName: __ZNSt3__1eqB8ue170006IPdEEbRKNS_11__wrap_iterIT_EES6_, symObjAddr: 0x47C4, symBinAddr: 0x10000679C, symSize: 0x48 }
  - { offsetInCU: 0x89C4, offset: 0x89C4, size: 0x8, addend: 0x0, symName: __ZNSt3__14sortB8ue170006INS_11__wrap_iterIPdEENS_6__lessIvvEEEEvT_S6_T0_, symObjAddr: 0x4824, symBinAddr: 0x1000067FC, symSize: 0x40 }
  - { offsetInCU: 0x8A1E, offset: 0x8A1E, size: 0x8, addend: 0x0, symName: __ZNSt3__111__sort_implB8ue170006INS_17_ClassicAlgPolicyENS_11__wrap_iterIPdEENS_6__lessIvvEEEEvT0_S7_RT1_, symObjAddr: 0x4864, symBinAddr: 0x10000683C, symSize: 0x108 }
  - { offsetInCU: 0x8A81, offset: 0x8A81, size: 0x8, addend: 0x0, symName: __ZNSt3__123__debug_randomize_rangeB8ue170006INS_17_ClassicAlgPolicyENS_11__wrap_iterIPdEES4_EEvT0_T1_, symObjAddr: 0x496C, symBinAddr: 0x100006944, symSize: 0x14 }
  - { offsetInCU: 0x8AD2, offset: 0x8AD2, size: 0x8, addend: 0x0, symName: __ZNSt3__114__partial_sortB8ue170006INS_17_ClassicAlgPolicyENS_6__lessIvvEEPdS4_EET1_S5_S5_T2_RT0_, symObjAddr: 0x4980, symBinAddr: 0x100006958, symSize: 0x94 }
  - { offsetInCU: 0x8B5A, offset: 0x8B5A, size: 0x8, addend: 0x0, symName: __ZNSt3__113__unwrap_iterB8ue170006INS_11__wrap_iterIPdEENS_18__unwrap_iter_implIS3_Lb1EEELi0EEEDTclsrT0_8__unwrapclsr3stdE7declvalIT_EEEES7_, symObjAddr: 0x4A14, symBinAddr: 0x1000069EC, symSize: 0x2C }
  - { offsetInCU: 0x8B9E, offset: 0x8B9E, size: 0x8, addend: 0x0, symName: __ZNSt3__115__sort_dispatchB8ue170006INS_17_ClassicAlgPolicyEdLi0EEEvPT0_S3_RNS_6__lessIvvEE, symObjAddr: 0x4A40, symBinAddr: 0x100006A18, symSize: 0x34 }
  - { offsetInCU: 0x8C09, offset: 0x8C09, size: 0x8, addend: 0x0, symName: __ZNSt3__135__check_strict_weak_ordering_sortedB8ue170006IPdNS_6__lessIvvEEEEvT_S4_RT0_, symObjAddr: 0x4A74, symBinAddr: 0x100006A4C, symSize: 0x18 }
  - { offsetInCU: 0x8C5F, offset: 0x8C5F, size: 0x8, addend: 0x0, symName: __ZNSt3__123__debug_randomize_rangeB8ue170006INS_17_ClassicAlgPolicyEPdS2_EEvT0_T1_, symObjAddr: 0x4AA4, symBinAddr: 0x100006A7C, symSize: 0x14 }
  - { offsetInCU: 0x8CB0, offset: 0x8CB0, size: 0x8, addend: 0x0, symName: __ZNSt3__119__partial_sort_implB8ue170006INS_17_ClassicAlgPolicyERNS_6__lessIvvEEPdS5_EET1_S6_S6_T2_OT0_, symObjAddr: 0x4AB8, symBinAddr: 0x100006A90, symSize: 0x110 }
  - { offsetInCU: 0x8D46, offset: 0x8D46, size: 0x8, addend: 0x0, symName: __ZNSt3__111__make_heapB8ue170006INS_17_ClassicAlgPolicyERNS_6__lessIvvEEPdEEvT1_S6_OT0_, symObjAddr: 0x4BC8, symBinAddr: 0x100006BA0, symSize: 0xB8 }
  - { offsetInCU: 0x8DE8, offset: 0x8DE8, size: 0x8, addend: 0x0, symName: __ZNSt3__111__sort_heapB8ue170006INS_17_ClassicAlgPolicyERNS_6__lessIvvEEPdEEvT1_S6_OT0_, symObjAddr: 0x4EF4, symBinAddr: 0x100006ECC, symSize: 0xA8 }
  - { offsetInCU: 0x8E8A, offset: 0x8E8A, size: 0x8, addend: 0x0, symName: __ZNSt3__19iter_swapB8ue170006IPdS1_EEvT_T0_, symObjAddr: 0x4F9C, symBinAddr: 0x100006F74, symSize: 0x2C }
  - { offsetInCU: 0x8ED2, offset: 0x8ED2, size: 0x8, addend: 0x0, symName: __ZNSt3__14swapB8ue170006IdEEvRT_S2_, symObjAddr: 0x4FC8, symBinAddr: 0x100006FA0, symSize: 0x3C }
  - { offsetInCU: 0x8F23, offset: 0x8F23, size: 0x8, addend: 0x0, symName: __ZNSt3__110__pop_heapB8ue170006INS_17_ClassicAlgPolicyENS_6__lessIvvEEPdEEvT1_S5_RT0_NS_15iterator_traitsIS5_E15difference_typeE, symObjAddr: 0x5030, symBinAddr: 0x100007008, symSize: 0xF4 }
  - { offsetInCU: 0x8FD3, offset: 0x8FD3, size: 0x8, addend: 0x0, symName: __ZNSt3__19__sift_upB8ue170006INS_17_ClassicAlgPolicyERNS_6__lessIvvEEPdEEvT1_S6_OT0_NS_15iterator_traitsIS6_E15difference_typeE, symObjAddr: 0x5224, symBinAddr: 0x1000071FC, symSize: 0x11C }
  - { offsetInCU: 0x90D6, offset: 0x90D6, size: 0x8, addend: 0x0, symName: __ZNSt3__112__to_addressB8ue170006INS_11__wrap_iterIPdEEvEEu7__decayIDTclsr19__to_address_helperIT_EE6__callclsr3stdE7declvalIRKS4_EEEEES6_, symObjAddr: 0x5368, symBinAddr: 0x100007340, symSize: 0x24 }
  - { offsetInCU: 0x91B1, offset: 0x91B1, size: 0x8, addend: 0x0, symName: __ZNSt3__111min_elementB8ue170006INS_11__wrap_iterIPdEENS_6__lessIvvEEEET_S6_S6_T0_, symObjAddr: 0x53E8, symBinAddr: 0x1000073C0, symSize: 0x48 }
  - { offsetInCU: 0x920B, offset: 0x920B, size: 0x8, addend: 0x0, symName: __ZNSt3__113__min_elementB8ue170006IRNS_6__lessIvvEENS_11__wrap_iterIPdEES6_EET0_S7_T1_T_, symObjAddr: 0x5430, symBinAddr: 0x100007408, symSize: 0x54 }
  - { offsetInCU: 0x927C, offset: 0x927C, size: 0x8, addend: 0x0, symName: __ZNSt3__113__min_elementB8ue170006IRNS_6__lessIvvEENS_11__wrap_iterIPdEES6_NS_10__identityEEET0_S8_T1_T_RT2_, symObjAddr: 0x5484, symBinAddr: 0x10000745C, symSize: 0xF0 }
  - { offsetInCU: 0x9304, offset: 0x9304, size: 0x8, addend: 0x0, symName: __ZNSt3__18__invokeB8ue170006IRNS_6__lessIvvEEJRdS4_EEEDTclclsr3stdE7declvalIT_EEspclsr3stdE7declvalIT0_EEEEOS5_DpOS6_, symObjAddr: 0x5574, symBinAddr: 0x10000754C, symSize: 0x38 }
  - { offsetInCU: 0x9369, offset: 0x9369, size: 0x8, addend: 0x0, symName: __ZNSt3__18__invokeB8ue170006IRNS_10__identityEJRdEEEDTclclsr3stdE7declvalIT_EEspclsr3stdE7declvalIT0_EEEEOS4_DpOS5_, symObjAddr: 0x55AC, symBinAddr: 0x100007584, symSize: 0x2C }
  - { offsetInCU: 0x93E7, offset: 0x93E7, size: 0x8, addend: 0x0, symName: __ZNSt3__111max_elementB8ue170006INS_11__wrap_iterIPdEENS_6__lessIvvEEEET_S6_S6_T0_, symObjAddr: 0x55F0, symBinAddr: 0x1000075C8, symSize: 0x48 }
  - { offsetInCU: 0x9441, offset: 0x9441, size: 0x8, addend: 0x0, symName: __ZNSt3__113__max_elementB8ue170006IRNS_6__lessIvvEENS_11__wrap_iterIPdEEEET0_S7_S7_T_, symObjAddr: 0x5638, symBinAddr: 0x100007610, symSize: 0xB8 }
  - { offsetInCU: 0x96E4, offset: 0x96E4, size: 0x8, addend: 0x0, symName: __ZSt28__throw_bad_array_new_lengthB8ue170006v, symObjAddr: 0x1A80, symBinAddr: 0x100003A58, symSize: 0x34 }
  - { offsetInCU: 0x9C80, offset: 0x9C80, size: 0x8, addend: 0x0, symName: __ZNSt3__16vectorIdNS_9allocatorIdEEE26__swap_out_circular_bufferERNS_14__split_bufferIdRS2_EE, symObjAddr: 0x3454, symBinAddr: 0x10000542C, symSize: 0x110 }
  - { offsetInCU: 0x9CD6, offset: 0x9CD6, size: 0x8, addend: 0x0, symName: __Z3powB8ue170006IdiENSt3__19enable_ifIXaasr3std13is_arithmeticIT_EE5valuesr3std13is_arithmeticIT0_EE5valueENS0_9__promoteIS2_S3_vEEE4type4typeES2_S3_, symObjAddr: 0xA08, symBinAddr: 0x1000029E0, symSize: 0x38 }
  - { offsetInCU: 0xC06D, offset: 0xC06D, size: 0x8, addend: 0x0, symName: _main, symObjAddr: 0x0, symBinAddr: 0x100001FD8, symSize: 0x5F8 }
  - { offsetInCU: 0xC1D5, offset: 0xC1D5, size: 0x8, addend: 0x0, symName: __ZNSt3__16vectorIdNS_9allocatorIdEEEC1B8ue170006Ev, symObjAddr: 0x5F8, symBinAddr: 0x1000025D0, symSize: 0x2C }
  - { offsetInCU: 0xC1FF, offset: 0xC1FF, size: 0x8, addend: 0x0, symName: __ZNSt3__112basic_stringIcNS_11char_traitsIcEENS_9allocatorIcEEEC1B8ue170006Ev, symObjAddr: 0x624, symBinAddr: 0x1000025FC, symSize: 0x2C }
  - { offsetInCU: 0xC2FF, offset: 0xC2FF, size: 0x8, addend: 0x0, symName: __ZNSt3__119basic_istringstreamIcNS_11char_traitsIcEENS_9allocatorIcEEEC1B8ue170006ERKNS_12basic_stringIcS2_S4_EEj, symObjAddr: 0x6F4, symBinAddr: 0x1000026CC, symSize: 0x108 }
  - { offsetInCU: 0xC347, offset: 0xC347, size: 0x8, addend: 0x0, symName: __ZNKSt3__19basic_iosIcNS_11char_traitsIcEEEcvPvB8ue170006Ev, symObjAddr: 0x7FC, symBinAddr: 0x1000027D4, symSize: 0x4C }
  - { offsetInCU: 0xC36D, offset: 0xC36D, size: 0x8, addend: 0x0, symName: __ZNSt3__16vectorIdNS_9allocatorIdEEE9push_backB8ue170006ERKd, symObjAddr: 0x848, symBinAddr: 0x100002820, symSize: 0x6C }
  - { offsetInCU: 0xC3A4, offset: 0xC3A4, size: 0x8, addend: 0x0, symName: __ZNSt3__16vectorIdNS_9allocatorIdEEE5beginB8ue170006Ev, symObjAddr: 0x8B4, symBinAddr: 0x10000288C, symSize: 0x30 }
  - { offsetInCU: 0xC3CC, offset: 0xC3CC, size: 0x8, addend: 0x0, symName: __ZNSt3__16vectorIdNS_9allocatorIdEEE3endB8ue170006Ev, symObjAddr: 0x8E4, symBinAddr: 0x1000028BC, symSize: 0x30 }
  - { offsetInCU: 0xC3F4, offset: 0xC3F4, size: 0x8, addend: 0x0, symName: __ZNKSt3__111__wrap_iterIPdEdeB8ue170006Ev, symObjAddr: 0x948, symBinAddr: 0x100002920, symSize: 0x18 }
  - { offsetInCU: 0xC41A, offset: 0xC41A, size: 0x8, addend: 0x0, symName: __ZNSt3__111__wrap_iterIPdEppB8ue170006Ev, symObjAddr: 0x960, symBinAddr: 0x100002938, symSize: 0x20 }
  - { offsetInCU: 0xC440, offset: 0xC440, size: 0x8, addend: 0x0, symName: __ZNKSt3__16vectorIdNS_9allocatorIdEEE4sizeB8ue170006Ev, symObjAddr: 0x980, symBinAddr: 0x100002958, symSize: 0x28 }
  - { offsetInCU: 0xC466, offset: 0xC466, size: 0x8, addend: 0x0, symName: __ZNSt3__16vectorIdNS_9allocatorIdEEEixB8ue170006Em, symObjAddr: 0x9E4, symBinAddr: 0x1000029BC, symSize: 0x24 }
  - { offsetInCU: 0xC49D, offset: 0xC49D, size: 0x8, addend: 0x0, symName: __ZNSt3__113basic_ostreamIcNS_11char_traitsIcEEElsB8ue170006EPFRNS_8ios_baseES5_E, symObjAddr: 0xB08, symBinAddr: 0x100002AE0, symSize: 0x40 }
  - { offsetInCU: 0xC4D1, offset: 0xC4D1, size: 0x8, addend: 0x0, symName: __ZNSt3__113basic_ostreamIcNS_11char_traitsIcEEElsB8ue170006EPFRS3_S4_E, symObjAddr: 0xBA4, symBinAddr: 0x100002B7C, symSize: 0x2C }
  - { offsetInCU: 0xC50A, offset: 0xC50A, size: 0x8, addend: 0x0, symName: __ZNSt3__119basic_istringstreamIcNS_11char_traitsIcEENS_9allocatorIcEEED1Ev, symObjAddr: 0xC28, symBinAddr: 0x100002C00, symSize: 0x70 }
  - { offsetInCU: 0xC537, offset: 0xC537, size: 0x8, addend: 0x0, symName: __ZNSt3__16vectorIdNS_9allocatorIdEEED1B8ue170006Ev, symObjAddr: 0xCA4, symBinAddr: 0x100002C7C, symSize: 0x2C }
  - { offsetInCU: 0xC561, offset: 0xC561, size: 0x8, addend: 0x0, symName: __ZNSt3__18ios_base4setfB8ue170006Ejj, symObjAddr: 0xCD0, symBinAddr: 0x100002CA8, symSize: 0x5C }
  - { offsetInCU: 0xC5B6, offset: 0xC5B6, size: 0x8, addend: 0x0, symName: __ZNSt3__18ios_base6unsetfB8ue170006Ej, symObjAddr: 0xD2C, symBinAddr: 0x100002D04, symSize: 0x28 }
  - { offsetInCU: 0xC5ED, offset: 0xC5ED, size: 0x8, addend: 0x0, symName: __ZNSt3__18__iom_t5C1B8ue170006Ei, symObjAddr: 0xD54, symBinAddr: 0x100002D2C, symSize: 0x34 }
  - { offsetInCU: 0xC625, offset: 0xC625, size: 0x8, addend: 0x0, symName: __ZNSt3__18__iom_t5C2B8ue170006Ei, symObjAddr: 0xD88, symBinAddr: 0x100002D60, symSize: 0x20 }
  - { offsetInCU: 0xC65D, offset: 0xC65D, size: 0x8, addend: 0x0, symName: __ZNSt3__119basic_istringstreamIcNS_11char_traitsIcEENS_9allocatorIcEEED2Ev, symObjAddr: 0xDA8, symBinAddr: 0x100002D80, symSize: 0x9C }
  - { offsetInCU: 0xC697, offset: 0xC697, size: 0x8, addend: 0x0, symName: __ZTv0_n24_NSt3__119basic_istringstreamIcNS_11char_traitsIcEENS_9allocatorIcEEED1Ev, symObjAddr: 0xE44, symBinAddr: 0x100002E1C, symSize: 0x28 }
  - { offsetInCU: 0xC6B3, offset: 0xC6B3, size: 0x8, addend: 0x0, symName: __ZNSt3__115basic_stringbufIcNS_11char_traitsIcEENS_9allocatorIcEEED1Ev, symObjAddr: 0xE6C, symBinAddr: 0x100002E44, symSize: 0x2C }
  - { offsetInCU: 0xC6E0, offset: 0xC6E0, size: 0x8, addend: 0x0, symName: __ZNSt3__115basic_stringbufIcNS_11char_traitsIcEENS_9allocatorIcEEED2Ev, symObjAddr: 0xE98, symBinAddr: 0x100002E70, symSize: 0x78 }
  - { offsetInCU: 0xC70D, offset: 0xC70D, size: 0x8, addend: 0x0, symName: __ZNSt3__16vectorIdNS_9allocatorIdEEEC2B8ue170006Ev, symObjAddr: 0xF10, symBinAddr: 0x100002EE8, symSize: 0x44 }
  - { offsetInCU: 0xC741, offset: 0xC741, size: 0x8, addend: 0x0, symName: __ZNSt3__117__compressed_pairIPdNS_9allocatorIdEEEC1B8ue170006IDnNS_18__default_init_tagEEEOT_OT0_, symObjAddr: 0xF54, symBinAddr: 0x100002F2C, symSize: 0x3C }
  - { offsetInCU: 0xC799, offset: 0xC799, size: 0x8, addend: 0x0, symName: __ZNSt3__117__compressed_pairIPdNS_9allocatorIdEEEC2B8ue170006IDnNS_18__default_init_tagEEEOT_OT0_, symObjAddr: 0xF90, symBinAddr: 0x100002F68, symSize: 0x40 }
  - { offsetInCU: 0xC7F1, offset: 0xC7F1, size: 0x8, addend: 0x0, symName: __ZNSt3__122__compressed_pair_elemIPdLi0ELb0EEC2B8ue170006IDnvEEOT_, symObjAddr: 0xFD0, symBinAddr: 0x100002FA8, symSize: 0x1C }
  - { offsetInCU: 0xC833, offset: 0xC833, size: 0x8, addend: 0x0, symName: __ZNSt3__122__compressed_pair_elemINS_9allocatorIdEELi1ELb1EEC2B8ue170006ENS_18__default_init_tagE, symObjAddr: 0xFEC, symBinAddr: 0x100002FC4, symSize: 0x2C }
  - { offsetInCU: 0xC868, offset: 0xC868, size: 0x8, addend: 0x0, symName: __ZNSt3__19allocatorIdEC2B8ue170006Ev, symObjAddr: 0x1018, symBinAddr: 0x100002FF0, symSize: 0x2C }
  - { offsetInCU: 0xC892, offset: 0xC892, size: 0x8, addend: 0x0, symName: __ZNSt3__116__non_trivial_ifILb1ENS_9allocatorIdEEEC2B8ue170006Ev, symObjAddr: 0x1044, symBinAddr: 0x10000301C, symSize: 0x14 }
  - { offsetInCU: 0xC8BC, offset: 0xC8BC, size: 0x8, addend: 0x0, symName: __ZNSt3__16vectorIdNS_9allocatorIdEEED2B8ue170006Ev, symObjAddr: 0x1058, symBinAddr: 0x100003030, symSize: 0x3C }
  - { offsetInCU: 0xC8E6, offset: 0xC8E6, size: 0x8, addend: 0x0, symName: __ZNSt3__16vectorIdNS_9allocatorIdEEE16__destroy_vectorC1B8ue170006ERS3_, symObjAddr: 0x1094, symBinAddr: 0x10000306C, symSize: 0x34 }
  - { offsetInCU: 0xC91F, offset: 0xC91F, size: 0x8, addend: 0x0, symName: __ZNSt3__16vectorIdNS_9allocatorIdEEE16__destroy_vectorclB8ue170006Ev, symObjAddr: 0x10C8, symBinAddr: 0x1000030A0, symSize: 0x90 }
  - { offsetInCU: 0xC945, offset: 0xC945, size: 0x8, addend: 0x0, symName: __ZNSt3__16vectorIdNS_9allocatorIdEEE16__destroy_vectorC2B8ue170006ERS3_, symObjAddr: 0x1158, symBinAddr: 0x100003130, symSize: 0x20 }
  - { offsetInCU: 0xC97E, offset: 0xC97E, size: 0x8, addend: 0x0, symName: __ZNSt3__16vectorIdNS_9allocatorIdEEE7__clearB8ue170006Ev, symObjAddr: 0x1178, symBinAddr: 0x100003150, symSize: 0x28 }
  - { offsetInCU: 0xC9A4, offset: 0xC9A4, size: 0x8, addend: 0x0, symName: __ZNKSt3__16vectorIdNS_9allocatorIdEEE17__annotate_deleteB8ue170006Ev, symObjAddr: 0x11A0, symBinAddr: 0x100003178, symSize: 0xB8 }
  - { offsetInCU: 0xC9CA, offset: 0xC9CA, size: 0x8, addend: 0x0, symName: __ZNSt3__116allocator_traitsINS_9allocatorIdEEE10deallocateB8ue170006ERS2_Pdm, symObjAddr: 0x1258, symBinAddr: 0x100003230, symSize: 0x34 }
  - { offsetInCU: 0xCA0C, offset: 0xCA0C, size: 0x8, addend: 0x0, symName: __ZNSt3__16vectorIdNS_9allocatorIdEEE7__allocB8ue170006Ev, symObjAddr: 0x128C, symBinAddr: 0x100003264, symSize: 0x28 }
  - { offsetInCU: 0xCA32, offset: 0xCA32, size: 0x8, addend: 0x0, symName: __ZNKSt3__16vectorIdNS_9allocatorIdEEE8capacityB8ue170006Ev, symObjAddr: 0x12B4, symBinAddr: 0x10000328C, symSize: 0x40 }
  - { offsetInCU: 0xCA58, offset: 0xCA58, size: 0x8, addend: 0x0, symName: __ZNSt3__16vectorIdNS_9allocatorIdEEE22__base_destruct_at_endB8ue170006EPd, symObjAddr: 0x12F4, symBinAddr: 0x1000032CC, symSize: 0xA0 }
  - { offsetInCU: 0xCA9C, offset: 0xCA9C, size: 0x8, addend: 0x0, symName: __ZNSt3__116allocator_traitsINS_9allocatorIdEEE7destroyB8ue170006IdvEEvRS2_PT_, symObjAddr: 0x1394, symBinAddr: 0x10000336C, symSize: 0x2C }
  - { offsetInCU: 0xCAD9, offset: 0xCAD9, size: 0x8, addend: 0x0, symName: __ZNSt3__19allocatorIdE7destroyB8ue170006EPd, symObjAddr: 0x13D4, symBinAddr: 0x1000033AC, symSize: 0x14 }
  - { offsetInCU: 0xCB0D, offset: 0xCB0D, size: 0x8, addend: 0x0, symName: __ZNKSt3__16vectorIdNS_9allocatorIdEEE31__annotate_contiguous_containerB8ue170006EPKvS5_S5_S5_, symObjAddr: 0x13E8, symBinAddr: 0x1000033C0, symSize: 0x20 }
  - { offsetInCU: 0xCB5F, offset: 0xCB5F, size: 0x8, addend: 0x0, symName: __ZNKSt3__16vectorIdNS_9allocatorIdEEE4dataB8ue170006Ev, symObjAddr: 0x1408, symBinAddr: 0x1000033E0, symSize: 0x28 }
  - { offsetInCU: 0xCB85, offset: 0xCB85, size: 0x8, addend: 0x0, symName: __ZNSt3__19allocatorIdE10deallocateB8ue170006EPdm, symObjAddr: 0x1430, symBinAddr: 0x100003408, symSize: 0x70 }
  - { offsetInCU: 0xCBC7, offset: 0xCBC7, size: 0x8, addend: 0x0, symName: __ZNSt3__117__compressed_pairIPdNS_9allocatorIdEEE6secondB8ue170006Ev, symObjAddr: 0x1528, symBinAddr: 0x100003500, symSize: 0x24 }
  - { offsetInCU: 0xCBED, offset: 0xCBED, size: 0x8, addend: 0x0, symName: __ZNSt3__122__compressed_pair_elemINS_9allocatorIdEELi1ELb1EE5__getB8ue170006Ev, symObjAddr: 0x154C, symBinAddr: 0x100003524, symSize: 0x14 }
  - { offsetInCU: 0xCC13, offset: 0xCC13, size: 0x8, addend: 0x0, symName: __ZNKSt3__16vectorIdNS_9allocatorIdEEE9__end_capB8ue170006Ev, symObjAddr: 0x1560, symBinAddr: 0x100003538, symSize: 0x28 }
  - { offsetInCU: 0xCC39, offset: 0xCC39, size: 0x8, addend: 0x0, symName: __ZNKSt3__117__compressed_pairIPdNS_9allocatorIdEEE5firstB8ue170006Ev, symObjAddr: 0x1588, symBinAddr: 0x100003560, symSize: 0x24 }
  - { offsetInCU: 0xCC5F, offset: 0xCC5F, size: 0x8, addend: 0x0, symName: __ZNKSt3__122__compressed_pair_elemIPdLi0ELb0EE5__getB8ue170006Ev, symObjAddr: 0x15AC, symBinAddr: 0x100003584, symSize: 0x14 }
  - { offsetInCU: 0xCC85, offset: 0xCC85, size: 0x8, addend: 0x0, symName: __ZNSt3__112basic_stringIcNS_11char_traitsIcEENS_9allocatorIcEEEC2B8ue170006Ev, symObjAddr: 0x15C0, symBinAddr: 0x100003598, symSize: 0x3C }
  - { offsetInCU: 0xCCAF, offset: 0xCCAF, size: 0x8, addend: 0x0, symName: __ZNSt3__117__compressed_pairINS_12basic_stringIcNS_11char_traitsIcEENS_9allocatorIcEEE5__repES5_EC1B8ue170006INS_18__default_init_tagESA_EEOT_OT0_, symObjAddr: 0x15FC, symBinAddr: 0x1000035D4, symSize: 0x3C }
  - { offsetInCU: 0xCD07, offset: 0xCD07, size: 0x8, addend: 0x0, symName: __ZNSt3__112basic_stringIcNS_11char_traitsIcEENS_9allocatorIcEEE14__default_initB8ue170006Ev, symObjAddr: 0x1638, symBinAddr: 0x100003610, symSize: 0xB0 }
  - { offsetInCU: 0xCD59, offset: 0xCD59, size: 0x8, addend: 0x0, symName: __ZNSt3__117__compressed_pairINS_12basic_stringIcNS_11char_traitsIcEENS_9allocatorIcEEE5__repES5_EC2B8ue170006INS_18__default_init_tagESA_EEOT_OT0_, symObjAddr: 0x16E8, symBinAddr: 0x1000036C0, symSize: 0x3C }
  - { offsetInCU: 0xCDB1, offset: 0xCDB1, size: 0x8, addend: 0x0, symName: __ZNSt3__122__compressed_pair_elemINS_12basic_stringIcNS_11char_traitsIcEENS_9allocatorIcEEE5__repELi0ELb0EEC2B8ue170006ENS_18__default_init_tagE, symObjAddr: 0x1724, symBinAddr: 0x1000036FC, symSize: 0x14 }
  - { offsetInCU: 0xCDE6, offset: 0xCDE6, size: 0x8, addend: 0x0, symName: __ZNSt3__122__compressed_pair_elemINS_9allocatorIcEELi1ELb1EEC2B8ue170006ENS_18__default_init_tagE, symObjAddr: 0x1738, symBinAddr: 0x100003710, symSize: 0x2C }
  - { offsetInCU: 0xCE1B, offset: 0xCE1B, size: 0x8, addend: 0x0, symName: __ZNSt3__19allocatorIcEC2B8ue170006Ev, symObjAddr: 0x1764, symBinAddr: 0x10000373C, symSize: 0x2C }
  - { offsetInCU: 0xCE45, offset: 0xCE45, size: 0x8, addend: 0x0, symName: __ZNSt3__116__non_trivial_ifILb1ENS_9allocatorIcEEEC2B8ue170006Ev, symObjAddr: 0x1790, symBinAddr: 0x100003768, symSize: 0x14 }
  - { offsetInCU: 0xCE6F, offset: 0xCE6F, size: 0x8, addend: 0x0, symName: __ZNSt3__117__compressed_pairINS_12basic_stringIcNS_11char_traitsIcEENS_9allocatorIcEEE5__repES5_E5firstB8ue170006Ev, symObjAddr: 0x17A4, symBinAddr: 0x10000377C, symSize: 0x24 }
  - { offsetInCU: 0xCE95, offset: 0xCE95, size: 0x8, addend: 0x0, symName: __ZNSt3__112basic_stringIcNS_11char_traitsIcEENS_9allocatorIcEEE11__recommendB8ue170006Em, symObjAddr: 0x17C8, symBinAddr: 0x1000037A0, symSize: 0x9C }
  - { offsetInCU: 0xCEC8, offset: 0xCEC8, size: 0x8, addend: 0x0, symName: __ZNSt3__116allocator_traitsINS_9allocatorIcEEE8allocateB8ue170006ERS2_m, symObjAddr: 0x1864, symBinAddr: 0x10000383C, symSize: 0x2C }
  - { offsetInCU: 0xCEFB, offset: 0xCEFB, size: 0x8, addend: 0x0, symName: __ZNSt3__112basic_stringIcNS_11char_traitsIcEENS_9allocatorIcEEE7__allocB8ue170006Ev, symObjAddr: 0x1890, symBinAddr: 0x100003868, symSize: 0x24 }
  - { offsetInCU: 0xCF21, offset: 0xCF21, size: 0x8, addend: 0x0, symName: __ZNSt3__112basic_stringIcNS_11char_traitsIcEENS_9allocatorIcEEE16__begin_lifetimeB8ue170006EPcm, symObjAddr: 0x18B4, symBinAddr: 0x10000388C, symSize: 0x14 }
  - { offsetInCU: 0xCF54, offset: 0xCF54, size: 0x8, addend: 0x0, symName: __ZNSt3__112basic_stringIcNS_11char_traitsIcEENS_9allocatorIcEEE18__set_long_pointerB8ue170006EPc, symObjAddr: 0x18C8, symBinAddr: 0x1000038A0, symSize: 0x38 }
  - { offsetInCU: 0xCF89, offset: 0xCF89, size: 0x8, addend: 0x0, symName: __ZNSt3__112basic_stringIcNS_11char_traitsIcEENS_9allocatorIcEEE14__set_long_capB8ue170006Em, symObjAddr: 0x1900, symBinAddr: 0x1000038D8, symSize: 0x70 }
  - { offsetInCU: 0xCFBE, offset: 0xCFBE, size: 0x8, addend: 0x0, symName: __ZNSt3__112basic_stringIcNS_11char_traitsIcEENS_9allocatorIcEEE15__set_long_sizeB8ue170006Em, symObjAddr: 0x1970, symBinAddr: 0x100003948, symSize: 0x38 }
  - { offsetInCU: 0xCFF3, offset: 0xCFF3, size: 0x8, addend: 0x0, symName: __ZNSt3__122__compressed_pair_elemINS_12basic_stringIcNS_11char_traitsIcEENS_9allocatorIcEEE5__repELi0ELb0EE5__getB8ue170006Ev, symObjAddr: 0x19A8, symBinAddr: 0x100003980, symSize: 0x14 }
  - { offsetInCU: 0xD019, offset: 0xD019, size: 0x8, addend: 0x0, symName: __ZNSt3__112basic_stringIcNS_11char_traitsIcEENS_9allocatorIcEEE10__align_itB8ue170006ILm16EEEmm, symObjAddr: 0x19BC, symBinAddr: 0x100003994, symSize: 0x1C }
  - { offsetInCU: 0xD047, offset: 0xD047, size: 0x8, addend: 0x0, symName: __ZNSt3__19allocatorIcE8allocateB8ue170006Em, symObjAddr: 0x19D8, symBinAddr: 0x1000039B0, symSize: 0x84 }
  - { offsetInCU: 0xD085, offset: 0xD085, size: 0x8, addend: 0x0, symName: __ZNSt3__116allocator_traitsINS_9allocatorIcEEE8max_sizeB8ue170006IS2_vEEmRKS2_, symObjAddr: 0x1A5C, symBinAddr: 0x100003A34, symSize: 0x24 }
  - { offsetInCU: 0xD0B3, offset: 0xD0B3, size: 0x8, addend: 0x0, symName: __ZNKSt3__19allocatorIcE8max_sizeB8ue170006Ev, symObjAddr: 0x1ADC, symBinAddr: 0x100003AB4, symSize: 0x14 }
  - { offsetInCU: 0xD0D9, offset: 0xD0D9, size: 0x8, addend: 0x0, symName: __ZNSt3__117__compressed_pairINS_12basic_stringIcNS_11char_traitsIcEENS_9allocatorIcEEE5__repES5_E6secondB8ue170006Ev, symObjAddr: 0x1B14, symBinAddr: 0x100003AEC, symSize: 0x24 }
  - { offsetInCU: 0xD0FF, offset: 0xD0FF, size: 0x8, addend: 0x0, symName: __ZNSt3__122__compressed_pair_elemINS_9allocatorIcEELi1ELb1EE5__getB8ue170006Ev, symObjAddr: 0x1B38, symBinAddr: 0x100003B10, symSize: 0x14 }
  - { offsetInCU: 0xD125, offset: 0xD125, size: 0x8, addend: 0x0, symName: __ZNSt3__111char_traitsIcE6lengthB8ue170006EPKc, symObjAddr: 0x1D40, symBinAddr: 0x100003D18, symSize: 0x48 }
  - { offsetInCU: 0xD166, offset: 0xD166, size: 0x8, addend: 0x0, symName: __ZNKSt3__113basic_ostreamIcNS_11char_traitsIcEEE6sentrycvbB8ue170006Ev, symObjAddr: 0x1D88, symBinAddr: 0x100003D60, symSize: 0x1C }
  - { offsetInCU: 0xD18C, offset: 0xD18C, size: 0x8, addend: 0x0, symName: __ZNSt3__119ostreambuf_iteratorIcNS_11char_traitsIcEEEC1B8ue170006ERNS_13basic_ostreamIcS2_EE, symObjAddr: 0x1FEC, symBinAddr: 0x100003FC4, symSize: 0x34 }
  - { offsetInCU: 0xD1C4, offset: 0xD1C4, size: 0x8, addend: 0x0, symName: __ZNKSt3__18ios_base5flagsB8ue170006Ev, symObjAddr: 0x2020, symBinAddr: 0x100003FF8, symSize: 0x18 }
  - { offsetInCU: 0xD1EC, offset: 0xD1EC, size: 0x8, addend: 0x0, symName: __ZNKSt3__19basic_iosIcNS_11char_traitsIcEEE4fillB8ue170006Ev, symObjAddr: 0x2038, symBinAddr: 0x100004010, symSize: 0x64 }
  - { offsetInCU: 0xD214, offset: 0xD214, size: 0x8, addend: 0x0, symName: __ZNKSt3__119ostreambuf_iteratorIcNS_11char_traitsIcEEE6failedB8ue170006Ev, symObjAddr: 0x209C, symBinAddr: 0x100004074, symSize: 0x24 }
  - { offsetInCU: 0xD23A, offset: 0xD23A, size: 0x8, addend: 0x0, symName: __ZNSt3__19basic_iosIcNS_11char_traitsIcEEE8setstateB8ue170006Ej, symObjAddr: 0x20C0, symBinAddr: 0x100004098, symSize: 0x2C }
  - { offsetInCU: 0xD26F, offset: 0xD26F, size: 0x8, addend: 0x0, symName: __ZNKSt3__18ios_base5widthB8ue170006Ev, symObjAddr: 0x20EC, symBinAddr: 0x1000040C4, symSize: 0x18 }
  - { offsetInCU: 0xD297, offset: 0xD297, size: 0x8, addend: 0x0, symName: __ZNSt3__115basic_streambufIcNS_11char_traitsIcEEE5sputnB8ue170006EPKcl, symObjAddr: 0x2104, symBinAddr: 0x1000040DC, symSize: 0x3C }
  - { offsetInCU: 0xD2D9, offset: 0xD2D9, size: 0x8, addend: 0x0, symName: __ZNSt3__112basic_stringIcNS_11char_traitsIcEENS_9allocatorIcEEEC1B8ue170006Emc, symObjAddr: 0x2140, symBinAddr: 0x100004118, symSize: 0x3C }
  - { offsetInCU: 0xD321, offset: 0xD321, size: 0x8, addend: 0x0, symName: __ZNKSt3__112basic_stringIcNS_11char_traitsIcEENS_9allocatorIcEEE4dataB8ue170006Ev, symObjAddr: 0x217C, symBinAddr: 0x100004154, symSize: 0x28 }
  - { offsetInCU: 0xD347, offset: 0xD347, size: 0x8, addend: 0x0, symName: __ZNSt3__18ios_base5widthB8ue170006El, symObjAddr: 0x21A4, symBinAddr: 0x10000417C, symSize: 0x2C }
  - { offsetInCU: 0xD38D, offset: 0xD38D, size: 0x8, addend: 0x0, symName: __ZNSt3__112basic_stringIcNS_11char_traitsIcEENS_9allocatorIcEEEC2B8ue170006Emc, symObjAddr: 0x21D0, symBinAddr: 0x1000041A8, symSize: 0x4C }
  - { offsetInCU: 0xD3D5, offset: 0xD3D5, size: 0x8, addend: 0x0, symName: __ZNKSt3__112basic_stringIcNS_11char_traitsIcEENS_9allocatorIcEEE13__get_pointerB8ue170006Ev, symObjAddr: 0x2230, symBinAddr: 0x100004208, symSize: 0x54 }
  - { offsetInCU: 0xD3FB, offset: 0xD3FB, size: 0x8, addend: 0x0, symName: __ZNKSt3__112basic_stringIcNS_11char_traitsIcEENS_9allocatorIcEEE9__is_longB8ue170006Ev, symObjAddr: 0x2284, symBinAddr: 0x10000425C, symSize: 0x74 }
  - { offsetInCU: 0xD421, offset: 0xD421, size: 0x8, addend: 0x0, symName: __ZNKSt3__112basic_stringIcNS_11char_traitsIcEENS_9allocatorIcEEE18__get_long_pointerB8ue170006Ev, symObjAddr: 0x22F8, symBinAddr: 0x1000042D0, symSize: 0x28 }
  - { offsetInCU: 0xD447, offset: 0xD447, size: 0x8, addend: 0x0, symName: __ZNKSt3__112basic_stringIcNS_11char_traitsIcEENS_9allocatorIcEEE19__get_short_pointerB8ue170006Ev, symObjAddr: 0x2320, symBinAddr: 0x1000042F8, symSize: 0x28 }
  - { offsetInCU: 0xD46D, offset: 0xD46D, size: 0x8, addend: 0x0, symName: __ZNKSt3__117__compressed_pairINS_12basic_stringIcNS_11char_traitsIcEENS_9allocatorIcEEE5__repES5_E5firstB8ue170006Ev, symObjAddr: 0x2348, symBinAddr: 0x100004320, symSize: 0x24 }
  - { offsetInCU: 0xD493, offset: 0xD493, size: 0x8, addend: 0x0, symName: __ZNKSt3__122__compressed_pair_elemINS_12basic_stringIcNS_11char_traitsIcEENS_9allocatorIcEEE5__repELi0ELb0EE5__getB8ue170006Ev, symObjAddr: 0x236C, symBinAddr: 0x100004344, symSize: 0x14 }
  - { offsetInCU: 0xD4B9, offset: 0xD4B9, size: 0x8, addend: 0x0, symName: __ZNSt3__114pointer_traitsIPKcE10pointer_toB8ue170006ERS1_, symObjAddr: 0x2380, symBinAddr: 0x100004358, symSize: 0x14 }
  - { offsetInCU: 0xD4DC, offset: 0xD4DC, size: 0x8, addend: 0x0, symName: __ZNSt3__119ostreambuf_iteratorIcNS_11char_traitsIcEEEC2B8ue170006ERNS_13basic_ostreamIcS2_EE, symObjAddr: 0x2394, symBinAddr: 0x10000436C, symSize: 0x68 }
  - { offsetInCU: 0xD514, offset: 0xD514, size: 0x8, addend: 0x0, symName: __ZNKSt3__19basic_iosIcNS_11char_traitsIcEEE5rdbufB8ue170006Ev, symObjAddr: 0x23FC, symBinAddr: 0x1000043D4, symSize: 0x24 }
  - { offsetInCU: 0xD53C, offset: 0xD53C, size: 0x8, addend: 0x0, symName: __ZNKSt3__18ios_base5rdbufB8ue170006Ev, symObjAddr: 0x2420, symBinAddr: 0x1000043F8, symSize: 0x18 }
  - { offsetInCU: 0xD562, offset: 0xD562, size: 0x8, addend: 0x0, symName: __ZNSt3__111char_traitsIcE11eq_int_typeB8ue170006Eii, symObjAddr: 0x2438, symBinAddr: 0x100004410, symSize: 0x28 }
  - { offsetInCU: 0xD595, offset: 0xD595, size: 0x8, addend: 0x0, symName: __ZNSt3__111char_traitsIcE3eofB8ue170006Ev, symObjAddr: 0x2460, symBinAddr: 0x100004438, symSize: 0x8 }
  - { offsetInCU: 0xD5A9, offset: 0xD5A9, size: 0x8, addend: 0x0, symName: __ZNKSt3__19basic_iosIcNS_11char_traitsIcEEE5widenB8ue170006Ec, symObjAddr: 0x2468, symBinAddr: 0x100004440, symSize: 0x8C }
  - { offsetInCU: 0xD617, offset: 0xD617, size: 0x8, addend: 0x0, symName: __ZNKSt3__15ctypeIcE5widenB8ue170006Ec, symObjAddr: 0x2520, symBinAddr: 0x1000044F8, symSize: 0x38 }
  - { offsetInCU: 0xD64C, offset: 0xD64C, size: 0x8, addend: 0x0, symName: __ZNSt3__18ios_base8setstateB8ue170006Ej, symObjAddr: 0x2558, symBinAddr: 0x100004530, symSize: 0x34 }
  - { offsetInCU: 0xD6A1, offset: 0xD6A1, size: 0x8, addend: 0x0, symName: __ZNKSt3__113basic_istreamIcNS_11char_traitsIcEEE6sentrycvbB8ue170006Ev, symObjAddr: 0x27E8, symBinAddr: 0x1000047C0, symSize: 0x1C }
  - { offsetInCU: 0xD6C7, offset: 0xD6C7, size: 0x8, addend: 0x0, symName: __ZNSt3__112basic_stringIcNS_11char_traitsIcEENS_9allocatorIcEEE5clearB8ue170006Ev, symObjAddr: 0x2804, symBinAddr: 0x1000047DC, symSize: 0x78 }
  - { offsetInCU: 0xD6EF, offset: 0xD6EF, size: 0x8, addend: 0x0, symName: __ZNSt3__115basic_streambufIcNS_11char_traitsIcEEE6sbumpcB8ue170006Ev, symObjAddr: 0x287C, symBinAddr: 0x100004854, symSize: 0x78 }
  - { offsetInCU: 0xD715, offset: 0xD715, size: 0x8, addend: 0x0, symName: __ZNSt3__111char_traitsIcE12to_char_typeB8ue170006Ei, symObjAddr: 0x28F4, symBinAddr: 0x1000048CC, symSize: 0x18 }
  - { offsetInCU: 0xD738, offset: 0xD738, size: 0x8, addend: 0x0, symName: __ZNSt3__111char_traitsIcE2eqEcc, symObjAddr: 0x290C, symBinAddr: 0x1000048E4, symSize: 0x28 }
  - { offsetInCU: 0xD769, offset: 0xD769, size: 0x8, addend: 0x0, symName: __ZNKSt3__112basic_stringIcNS_11char_traitsIcEENS_9allocatorIcEEE4sizeB8ue170006Ev, symObjAddr: 0x2934, symBinAddr: 0x10000490C, symSize: 0x54 }
  - { offsetInCU: 0xD78F, offset: 0xD78F, size: 0x8, addend: 0x0, symName: __ZNKSt3__112basic_stringIcNS_11char_traitsIcEENS_9allocatorIcEEE8max_sizeB8ue170006Ev, symObjAddr: 0x2988, symBinAddr: 0x100004960, symSize: 0xAC }
  - { offsetInCU: 0xD7E1, offset: 0xD7E1, size: 0x8, addend: 0x0, symName: __ZNSt3__18ios_base18__setstate_nothrowB8ue170006Ej, symObjAddr: 0x2A34, symBinAddr: 0x100004A0C, symSize: 0x64 }
  - { offsetInCU: 0xD816, offset: 0xD816, size: 0x8, addend: 0x0, symName: __ZNKSt3__19basic_iosIcNS_11char_traitsIcEEE10exceptionsB8ue170006Ev, symObjAddr: 0x2A98, symBinAddr: 0x100004A70, symSize: 0x24 }
  - { offsetInCU: 0xD83C, offset: 0xD83C, size: 0x8, addend: 0x0, symName: __ZNSt3__111char_traitsIcE6assignB8ue170006ERcRKc, symObjAddr: 0x2ABC, symBinAddr: 0x100004A94, symSize: 0x24 }
  - { offsetInCU: 0xD86D, offset: 0xD86D, size: 0x8, addend: 0x0, symName: __ZNSt3__112basic_stringIcNS_11char_traitsIcEENS_9allocatorIcEEE18__get_long_pointerB8ue170006Ev, symObjAddr: 0x2AE0, symBinAddr: 0x100004AB8, symSize: 0x28 }
  - { offsetInCU: 0xD893, offset: 0xD893, size: 0x8, addend: 0x0, symName: __ZNSt3__112basic_stringIcNS_11char_traitsIcEENS_9allocatorIcEEE19__get_short_pointerB8ue170006Ev, symObjAddr: 0x2B08, symBinAddr: 0x100004AE0, symSize: 0x28 }
  - { offsetInCU: 0xD8B9, offset: 0xD8B9, size: 0x8, addend: 0x0, symName: __ZNSt3__112basic_stringIcNS_11char_traitsIcEENS_9allocatorIcEEE16__set_short_sizeB8ue170006Em, symObjAddr: 0x2B30, symBinAddr: 0x100004B08, symSize: 0x78 }
  - { offsetInCU: 0xD8EE, offset: 0xD8EE, size: 0x8, addend: 0x0, symName: __ZNSt3__114pointer_traitsIPcE10pointer_toB8ue170006ERc, symObjAddr: 0x2BA8, symBinAddr: 0x100004B80, symSize: 0x14 }
  - { offsetInCU: 0xD911, offset: 0xD911, size: 0x8, addend: 0x0, symName: __ZNSt3__111char_traitsIcE11to_int_typeB8ue170006Ec, symObjAddr: 0x2BBC, symBinAddr: 0x100004B94, symSize: 0x14 }
  - { offsetInCU: 0xD935, offset: 0xD935, size: 0x8, addend: 0x0, symName: __ZNKSt3__112basic_stringIcNS_11char_traitsIcEENS_9allocatorIcEEE15__get_long_sizeB8ue170006Ev, symObjAddr: 0x2BD0, symBinAddr: 0x100004BA8, symSize: 0x28 }
  - { offsetInCU: 0xD95B, offset: 0xD95B, size: 0x8, addend: 0x0, symName: __ZNKSt3__112basic_stringIcNS_11char_traitsIcEENS_9allocatorIcEEE16__get_short_sizeB8ue170006Ev, symObjAddr: 0x2BF8, symBinAddr: 0x100004BD0, symSize: 0x34 }
  - { offsetInCU: 0xD981, offset: 0xD981, size: 0x8, addend: 0x0, symName: __ZNKSt3__112basic_stringIcNS_11char_traitsIcEENS_9allocatorIcEEE7__allocB8ue170006Ev, symObjAddr: 0x2C2C, symBinAddr: 0x100004C04, symSize: 0x24 }
  - { offsetInCU: 0xD9A7, offset: 0xD9A7, size: 0x8, addend: 0x0, symName: __ZNSt3__114numeric_limitsImE3maxB8ue170006Ev, symObjAddr: 0x2C50, symBinAddr: 0x100004C28, symSize: 0x14 }
  - { offsetInCU: 0xD9BB, offset: 0xD9BB, size: 0x8, addend: 0x0, symName: __ZNKSt3__117__compressed_pairINS_12basic_stringIcNS_11char_traitsIcEENS_9allocatorIcEEE5__repES5_E6secondB8ue170006Ev, symObjAddr: 0x2C64, symBinAddr: 0x100004C3C, symSize: 0x24 }
  - { offsetInCU: 0xD9E1, offset: 0xD9E1, size: 0x8, addend: 0x0, symName: __ZNKSt3__122__compressed_pair_elemINS_9allocatorIcEELi1ELb1EE5__getB8ue170006Ev, symObjAddr: 0x2C88, symBinAddr: 0x100004C60, symSize: 0x14 }
  - { offsetInCU: 0xDA07, offset: 0xDA07, size: 0x8, addend: 0x0, symName: __ZNSt3__123__libcpp_numeric_limitsImLb1EE3maxB8ue170006Ev, symObjAddr: 0x2C9C, symBinAddr: 0x100004C74, symSize: 0x8 }
  - { offsetInCU: 0xDA1B, offset: 0xDA1B, size: 0x8, addend: 0x0, symName: __ZNKSt3__18ios_base10exceptionsB8ue170006Ev, symObjAddr: 0x2CA4, symBinAddr: 0x100004C7C, symSize: 0x18 }
  - { offsetInCU: 0xDA43, offset: 0xDA43, size: 0x8, addend: 0x0, symName: __ZNSt3__19basic_iosIcNS_11char_traitsIcEEEC2B8ue170006Ev, symObjAddr: 0x2CBC, symBinAddr: 0x100004C94, symSize: 0x44 }
  - { offsetInCU: 0xDA6D, offset: 0xDA6D, size: 0x8, addend: 0x0, symName: __ZNSt3__113basic_istreamIcNS_11char_traitsIcEEEC2B8ue170006EPNS_15basic_streambufIcS2_EE, symObjAddr: 0x2D00, symBinAddr: 0x100004CD8, symSize: 0x64 }
  - { offsetInCU: 0xDAB2, offset: 0xDAB2, size: 0x8, addend: 0x0, symName: __ZNSt3__115basic_stringbufIcNS_11char_traitsIcEENS_9allocatorIcEEEC1B8ue170006ERKNS_12basic_stringIcS2_S4_EEj, symObjAddr: 0x2D64, symBinAddr: 0x100004D3C, symSize: 0x3C }
  - { offsetInCU: 0xDAFA, offset: 0xDAFA, size: 0x8, addend: 0x0, symName: __ZNSt3__18ios_baseC2B8ue170006Ev, symObjAddr: 0x2DA0, symBinAddr: 0x100004D78, symSize: 0x24 }
  - { offsetInCU: 0xDB24, offset: 0xDB24, size: 0x8, addend: 0x0, symName: __ZNSt3__19basic_iosIcNS_11char_traitsIcEEE4initB8ue170006EPNS_15basic_streambufIcS2_EE, symObjAddr: 0x2DC4, symBinAddr: 0x100004D9C, symSize: 0x44 }
  - { offsetInCU: 0xDB5B, offset: 0xDB5B, size: 0x8, addend: 0x0, symName: __ZNSt3__115basic_stringbufIcNS_11char_traitsIcEENS_9allocatorIcEEEC2B8ue170006ERKNS_12basic_stringIcS2_S4_EEj, symObjAddr: 0x2E08, symBinAddr: 0x100004DE0, symSize: 0xD8 }
  - { offsetInCU: 0xDBA3, offset: 0xDBA3, size: 0x8, addend: 0x0, symName: __ZNKSt3__112basic_stringIcNS_11char_traitsIcEENS_9allocatorIcEEE13get_allocatorB8ue170006Ev, symObjAddr: 0x2EE0, symBinAddr: 0x100004EB8, symSize: 0x24 }
  - { offsetInCU: 0xDBC9, offset: 0xDBC9, size: 0x8, addend: 0x0, symName: __ZNSt3__112basic_stringIcNS_11char_traitsIcEENS_9allocatorIcEEEC1B8ue170006ERKS4_, symObjAddr: 0x2F04, symBinAddr: 0x100004EDC, symSize: 0x34 }
  - { offsetInCU: 0xDC02, offset: 0xDC02, size: 0x8, addend: 0x0, symName: __ZNSt3__112basic_stringIcNS_11char_traitsIcEENS_9allocatorIcEEEC2B8ue170006ERKS4_, symObjAddr: 0x2F38, symBinAddr: 0x100004F10, symSize: 0x40 }
  - { offsetInCU: 0xDC3B, offset: 0xDC3B, size: 0x8, addend: 0x0, symName: __ZNSt3__117__compressed_pairINS_12basic_stringIcNS_11char_traitsIcEENS_9allocatorIcEEE5__repES5_EC1B8ue170006INS_18__default_init_tagERKS5_EEOT_OT0_, symObjAddr: 0x2F78, symBinAddr: 0x100004F50, symSize: 0x3C }
  - { offsetInCU: 0xDC93, offset: 0xDC93, size: 0x8, addend: 0x0, symName: __ZNSt3__117__compressed_pairINS_12basic_stringIcNS_11char_traitsIcEENS_9allocatorIcEEE5__repES5_EC2B8ue170006INS_18__default_init_tagERKS5_EEOT_OT0_, symObjAddr: 0x2FB4, symBinAddr: 0x100004F8C, symSize: 0x40 }
  - { offsetInCU: 0xDCEB, offset: 0xDCEB, size: 0x8, addend: 0x0, symName: __ZNSt3__122__compressed_pair_elemINS_9allocatorIcEELi1ELb1EEC2B8ue170006IRKS2_vEEOT_, symObjAddr: 0x2FF4, symBinAddr: 0x100004FCC, symSize: 0x18 }
  - { offsetInCU: 0xDD2D, offset: 0xDD2D, size: 0x8, addend: 0x0, symName: __ZNKSt3__19basic_iosIcNS_11char_traitsIcEEE4failB8ue170006Ev, symObjAddr: 0x300C, symBinAddr: 0x100004FE4, symSize: 0x28 }
  - { offsetInCU: 0xDD53, offset: 0xDD53, size: 0x8, addend: 0x0, symName: __ZNKSt3__18ios_base4failB8ue170006Ev, symObjAddr: 0x3034, symBinAddr: 0x10000500C, symSize: 0x28 }
  - { offsetInCU: 0xDD7B, offset: 0xDD7B, size: 0x8, addend: 0x0, symName: __ZNSt3__16vectorIdNS_9allocatorIdEEE9__end_capB8ue170006Ev, symObjAddr: 0x305C, symBinAddr: 0x100005034, symSize: 0x28 }
  - { offsetInCU: 0xDDA1, offset: 0xDDA1, size: 0x8, addend: 0x0, symName: __ZNSt3__16vectorIdNS_9allocatorIdEEE22__construct_one_at_endB8ue170006IJRKdEEEvDpOT_, symObjAddr: 0x3084, symBinAddr: 0x10000505C, symSize: 0x98 }
  - { offsetInCU: 0xDDF0, offset: 0xDDF0, size: 0x8, addend: 0x0, symName: __ZNSt3__16vectorIdNS_9allocatorIdEEE21__push_back_slow_pathIRKdEEvOT_, symObjAddr: 0x311C, symBinAddr: 0x1000050F4, symSize: 0xE0 }
  - { offsetInCU: 0xDE4E, offset: 0xDE4E, size: 0x8, addend: 0x0, symName: __ZNSt3__117__compressed_pairIPdNS_9allocatorIdEEE5firstB8ue170006Ev, symObjAddr: 0x31FC, symBinAddr: 0x1000051D4, symSize: 0x24 }
  - { offsetInCU: 0xDE74, offset: 0xDE74, size: 0x8, addend: 0x0, symName: __ZNSt3__122__compressed_pair_elemIPdLi0ELb0EE5__getB8ue170006Ev, symObjAddr: 0x3220, symBinAddr: 0x1000051F8, symSize: 0x14 }
  - { offsetInCU: 0xDEB3, offset: 0xDEB3, size: 0x8, addend: 0x0, symName: __ZNSt3__16vectorIdNS_9allocatorIdEEE21_ConstructTransactionC1B8ue170006ERS3_m, symObjAddr: 0x3234, symBinAddr: 0x10000520C, symSize: 0x3C }
  - { offsetInCU: 0xDEFB, offset: 0xDEFB, size: 0x8, addend: 0x0, symName: __ZNSt3__116allocator_traitsINS_9allocatorIdEEE9constructB8ue170006IdJRKdEvEEvRS2_PT_DpOT0_, symObjAddr: 0x3270, symBinAddr: 0x100005248, symSize: 0x34 }
  - { offsetInCU: 0xDF52, offset: 0xDF52, size: 0x8, addend: 0x0, symName: __ZNSt3__16vectorIdNS_9allocatorIdEEE21_ConstructTransactionD1B8ue170006Ev, symObjAddr: 0x32A4, symBinAddr: 0x10000527C, symSize: 0x2C }
  - { offsetInCU: 0xDF7C, offset: 0xDF7C, size: 0x8, addend: 0x0, symName: __ZNSt3__16vectorIdNS_9allocatorIdEEE21_ConstructTransactionC2B8ue170006ERS3_m, symObjAddr: 0x32D0, symBinAddr: 0x1000052A8, symSize: 0x44 }
  - { offsetInCU: 0xDFC4, offset: 0xDFC4, size: 0x8, addend: 0x0, symName: __ZNSt3__19allocatorIdE9constructB8ue170006IdJRKdEEEvPT_DpOT0_, symObjAddr: 0x3314, symBinAddr: 0x1000052EC, symSize: 0x28 }
  - { offsetInCU: 0xE01A, offset: 0xE01A, size: 0x8, addend: 0x0, symName: __ZNSt3__16vectorIdNS_9allocatorIdEEE21_ConstructTransactionD2B8ue170006Ev, symObjAddr: 0x333C, symBinAddr: 0x100005314, symSize: 0x20 }
  - { offsetInCU: 0xE044, offset: 0xE044, size: 0x8, addend: 0x0, symName: __ZNKSt3__16vectorIdNS_9allocatorIdEEE11__recommendB8ue170006Em, symObjAddr: 0x335C, symBinAddr: 0x100005334, symSize: 0xB4 }
  - { offsetInCU: 0xE099, offset: 0xE099, size: 0x8, addend: 0x0, symName: __ZNSt3__114__split_bufferIdRNS_9allocatorIdEEEC1EmmS3_, symObjAddr: 0x3410, symBinAddr: 0x1000053E8, symSize: 0x44 }
  - { offsetInCU: 0xE0EF, offset: 0xE0EF, size: 0x8, addend: 0x0, symName: __ZNSt3__114__split_bufferIdRNS_9allocatorIdEEED1Ev, symObjAddr: 0x3564, symBinAddr: 0x10000553C, symSize: 0x2C }
  - { offsetInCU: 0xE11B, offset: 0xE11B, size: 0x8, addend: 0x0, symName: __ZNKSt3__16vectorIdNS_9allocatorIdEEE8max_sizeEv, symObjAddr: 0x3590, symBinAddr: 0x100005568, symSize: 0x74 }
  - { offsetInCU: 0xE143, offset: 0xE143, size: 0x8, addend: 0x0, symName: __ZNKSt3__16vectorIdNS_9allocatorIdEEE20__throw_length_errorB8ue170006Ev, symObjAddr: 0x3604, symBinAddr: 0x1000055DC, symSize: 0x1C }
  - { offsetInCU: 0xE173, offset: 0xE173, size: 0x8, addend: 0x0, symName: __ZNSt3__116allocator_traitsINS_9allocatorIdEEE8max_sizeB8ue170006IS2_vEEmRKS2_, symObjAddr: 0x3678, symBinAddr: 0x100005650, symSize: 0x24 }
  - { offsetInCU: 0xE1A1, offset: 0xE1A1, size: 0x8, addend: 0x0, symName: __ZNKSt3__16vectorIdNS_9allocatorIdEEE7__allocB8ue170006Ev, symObjAddr: 0x369C, symBinAddr: 0x100005674, symSize: 0x28 }
  - { offsetInCU: 0xE1C7, offset: 0xE1C7, size: 0x8, addend: 0x0, symName: __ZNSt3__114numeric_limitsIlE3maxB8ue170006Ev, symObjAddr: 0x36C4, symBinAddr: 0x10000569C, symSize: 0x14 }
  - { offsetInCU: 0xE1EF, offset: 0xE1EF, size: 0x8, addend: 0x0, symName: __ZNKSt3__16__lessIvvEclB8ue170006ImmEEbRKT_RKT0_, symObjAddr: 0x372C, symBinAddr: 0x100005704, symSize: 0x34 }
  - { offsetInCU: 0xE243, offset: 0xE243, size: 0x8, addend: 0x0, symName: __ZNKSt3__19allocatorIdE8max_sizeB8ue170006Ev, symObjAddr: 0x3760, symBinAddr: 0x100005738, symSize: 0x14 }
  - { offsetInCU: 0xE269, offset: 0xE269, size: 0x8, addend: 0x0, symName: __ZNKSt3__117__compressed_pairIPdNS_9allocatorIdEEE6secondB8ue170006Ev, symObjAddr: 0x3774, symBinAddr: 0x10000574C, symSize: 0x24 }
  - { offsetInCU: 0xE28F, offset: 0xE28F, size: 0x8, addend: 0x0, symName: __ZNKSt3__122__compressed_pair_elemINS_9allocatorIdEELi1ELb1EE5__getB8ue170006Ev, symObjAddr: 0x3798, symBinAddr: 0x100005770, symSize: 0x14 }
  - { offsetInCU: 0xE2B5, offset: 0xE2B5, size: 0x8, addend: 0x0, symName: __ZNSt3__123__libcpp_numeric_limitsIlLb1EE3maxB8ue170006Ev, symObjAddr: 0x37AC, symBinAddr: 0x100005784, symSize: 0x8 }
  - { offsetInCU: 0xE2C9, offset: 0xE2C9, size: 0x8, addend: 0x0, symName: __ZNSt12length_errorC1B8ue170006EPKc, symObjAddr: 0x3818, symBinAddr: 0x1000057F0, symSize: 0x34 }
  - { offsetInCU: 0xE301, offset: 0xE301, size: 0x8, addend: 0x0, symName: __ZNSt12length_errorC2B8ue170006EPKc, symObjAddr: 0x384C, symBinAddr: 0x100005824, symSize: 0x4C }
  - { offsetInCU: 0xE339, offset: 0xE339, size: 0x8, addend: 0x0, symName: __ZNSt3__114__split_bufferIdRNS_9allocatorIdEEEC2EmmS3_, symObjAddr: 0x38EC, symBinAddr: 0x1000058C4, symSize: 0xD4 }
  - { offsetInCU: 0xE3AC, offset: 0xE3AC, size: 0x8, addend: 0x0, symName: __ZNSt3__117__compressed_pairIPdRNS_9allocatorIdEEEC1B8ue170006IDnS4_EEOT_OT0_, symObjAddr: 0x39C0, symBinAddr: 0x100005998, symSize: 0x3C }
  - { offsetInCU: 0xE404, offset: 0xE404, size: 0x8, addend: 0x0, symName: __ZNSt3__114__split_bufferIdRNS_9allocatorIdEEE7__allocB8ue170006Ev, symObjAddr: 0x3A3C, symBinAddr: 0x100005A14, symSize: 0x28 }
  - { offsetInCU: 0xE42A, offset: 0xE42A, size: 0x8, addend: 0x0, symName: __ZNSt3__114__split_bufferIdRNS_9allocatorIdEEE9__end_capB8ue170006Ev, symObjAddr: 0x3A64, symBinAddr: 0x100005A3C, symSize: 0x28 }
  - { offsetInCU: 0xE450, offset: 0xE450, size: 0x8, addend: 0x0, symName: __ZNSt3__117__compressed_pairIPdRNS_9allocatorIdEEEC2B8ue170006IDnS4_EEOT_OT0_, symObjAddr: 0x3A8C, symBinAddr: 0x100005A64, symSize: 0x48 }
  - { offsetInCU: 0xE4A8, offset: 0xE4A8, size: 0x8, addend: 0x0, symName: __ZNSt3__122__compressed_pair_elemIRNS_9allocatorIdEELi1ELb0EEC2B8ue170006IS3_vEEOT_, symObjAddr: 0x3AD4, symBinAddr: 0x100005AAC, symSize: 0x20 }
  - { offsetInCU: 0xE4EA, offset: 0xE4EA, size: 0x8, addend: 0x0, symName: __ZNSt3__19allocatorIdE8allocateB8ue170006Em, symObjAddr: 0x3AF4, symBinAddr: 0x100005ACC, symSize: 0x84 }
  - { offsetInCU: 0xE51E, offset: 0xE51E, size: 0x8, addend: 0x0, symName: __ZNSt3__117__compressed_pairIPdRNS_9allocatorIdEEE6secondB8ue170006Ev, symObjAddr: 0x3B78, symBinAddr: 0x100005B50, symSize: 0x28 }
  - { offsetInCU: 0xE544, offset: 0xE544, size: 0x8, addend: 0x0, symName: __ZNSt3__122__compressed_pair_elemIRNS_9allocatorIdEELi1ELb0EE5__getB8ue170006Ev, symObjAddr: 0x3BA0, symBinAddr: 0x100005B78, symSize: 0x18 }
  - { offsetInCU: 0xE56A, offset: 0xE56A, size: 0x8, addend: 0x0, symName: __ZNSt3__117__compressed_pairIPdRNS_9allocatorIdEEE5firstB8ue170006Ev, symObjAddr: 0x3BB8, symBinAddr: 0x100005B90, symSize: 0x24 }
  - { offsetInCU: 0xE590, offset: 0xE590, size: 0x8, addend: 0x0, symName: __ZNSt3__116reverse_iteratorIPdEC1B8ue170006ES1_, symObjAddr: 0x3CC4, symBinAddr: 0x100005C9C, symSize: 0x34 }
  - { offsetInCU: 0xE5C8, offset: 0xE5C8, size: 0x8, addend: 0x0, symName: __ZNKSt3__116reverse_iteratorIPdE4baseB8ue170006Ev, symObjAddr: 0x3CF8, symBinAddr: 0x100005CD0, symSize: 0x18 }
  - { offsetInCU: 0xE5EE, offset: 0xE5EE, size: 0x8, addend: 0x0, symName: __ZNKSt3__16vectorIdNS_9allocatorIdEEE14__annotate_newB8ue170006Em, symObjAddr: 0x3D4C, symBinAddr: 0x100005D24, symSize: 0xAC }
  - { offsetInCU: 0xE623, offset: 0xE623, size: 0x8, addend: 0x0, symName: __ZNKSt3__116reverse_iteratorIPdEdeB8ue170006Ev, symObjAddr: 0x3E90, symBinAddr: 0x100005E68, symSize: 0x28 }
  - { offsetInCU: 0xE657, offset: 0xE657, size: 0x8, addend: 0x0, symName: __ZNSt3__116reverse_iteratorIPdEppB8ue170006Ev, symObjAddr: 0x3EB8, symBinAddr: 0x100005E90, symSize: 0x20 }
  - { offsetInCU: 0xE682, offset: 0xE682, size: 0x8, addend: 0x0, symName: __ZNSt3__119__to_address_helperINS_16reverse_iteratorIPdEEvE6__callB8ue170006ERKS3_, symObjAddr: 0x3F50, symBinAddr: 0x100005F28, symSize: 0x4C }
  - { offsetInCU: 0xE6A5, offset: 0xE6A5, size: 0x8, addend: 0x0, symName: __ZNKSt3__116reverse_iteratorIPdEptB8ue170006Ev, symObjAddr: 0x3F9C, symBinAddr: 0x100005F74, symSize: 0x24 }
  - { offsetInCU: 0xE6EE, offset: 0xE6EE, size: 0x8, addend: 0x0, symName: __ZNKSt3__111__move_loopINS_17_ClassicAlgPolicyEEclB8ue170006INS_16reverse_iteratorIPdEES6_S6_EENS_4pairIT_T1_EES8_T0_S9_, symObjAddr: 0x4238, symBinAddr: 0x100006210, symSize: 0xA0 }
  - { offsetInCU: 0xE75E, offset: 0xE75E, size: 0x8, addend: 0x0, symName: __ZNSt3__18_IterOpsINS_17_ClassicAlgPolicyEE11__iter_moveB8ue170006IRNS_16reverse_iteratorIPdEEEENS_9enable_ifIXsr12is_referenceIDTdeclsr3stdE7declvalIRT_EEEEE5valueEDTclsr3stdE4movedeclsr3stdE7declvalISA_EEEEE4typeEOS9_, symObjAddr: 0x4438, symBinAddr: 0x100006410, symSize: 0x28 }
  - { offsetInCU: 0xE78A, offset: 0xE78A, size: 0x8, addend: 0x0, symName: __ZNSt3__18_IterOpsINS_17_ClassicAlgPolicyEE25__validate_iter_referenceB8ue170006IRNS_16reverse_iteratorIPdEEEEvv, symObjAddr: 0x4460, symBinAddr: 0x100006438, symSize: 0x4 }
  - { offsetInCU: 0xE7A8, offset: 0xE7A8, size: 0x8, addend: 0x0, symName: __ZNSt3__118__unwrap_iter_implINS_16reverse_iteratorIPdEELb0EE8__unwrapB8ue170006ES3_, symObjAddr: 0x4464, symBinAddr: 0x10000643C, symSize: 0x24 }
  - { offsetInCU: 0xE7CB, offset: 0xE7CB, size: 0x8, addend: 0x0, symName: __ZNSt3__14pairINS_16reverse_iteratorIPdEES3_EC1B8ue170006ERKS3_S6_, symObjAddr: 0x4488, symBinAddr: 0x100006460, symSize: 0x3C }
  - { offsetInCU: 0xE811, offset: 0xE811, size: 0x8, addend: 0x0, symName: __ZNSt3__14pairINS_16reverse_iteratorIPdEES3_EC2B8ue170006ERKS3_S6_, symObjAddr: 0x44C4, symBinAddr: 0x10000649C, symSize: 0x34 }
  - { offsetInCU: 0xE857, offset: 0xE857, size: 0x8, addend: 0x0, symName: __ZNSt3__118__unwrap_iter_implINS_16reverse_iteratorIPdEELb0EE8__rewrapB8ue170006ES3_S3_, symObjAddr: 0x44F8, symBinAddr: 0x1000064D0, symSize: 0x2C }
  - { offsetInCU: 0xE885, offset: 0xE885, size: 0x8, addend: 0x0, symName: __ZNSt3__116reverse_iteratorIPdEC2B8ue170006ES1_, symObjAddr: 0x4524, symBinAddr: 0x1000064FC, symSize: 0x28 }
  - { offsetInCU: 0xE8BD, offset: 0xE8BD, size: 0x8, addend: 0x0, symName: __ZNSt3__114__split_bufferIdRNS_9allocatorIdEEED2Ev, symObjAddr: 0x454C, symBinAddr: 0x100006524, symSize: 0x80 }
  - { offsetInCU: 0xE8E9, offset: 0xE8E9, size: 0x8, addend: 0x0, symName: __ZNSt3__114__split_bufferIdRNS_9allocatorIdEEE5clearB8ue170006Ev, symObjAddr: 0x45CC, symBinAddr: 0x1000065A4, symSize: 0x28 }
  - { offsetInCU: 0xE90F, offset: 0xE90F, size: 0x8, addend: 0x0, symName: __ZNKSt3__114__split_bufferIdRNS_9allocatorIdEEE8capacityB8ue170006Ev, symObjAddr: 0x45F4, symBinAddr: 0x1000065CC, symSize: 0x40 }
  - { offsetInCU: 0xE935, offset: 0xE935, size: 0x8, addend: 0x0, symName: __ZNSt3__114__split_bufferIdRNS_9allocatorIdEEE17__destruct_at_endB8ue170006EPd, symObjAddr: 0x4634, symBinAddr: 0x10000660C, symSize: 0x2C }
  - { offsetInCU: 0xE969, offset: 0xE969, size: 0x8, addend: 0x0, symName: __ZNSt3__114__split_bufferIdRNS_9allocatorIdEEE17__destruct_at_endB8ue170006EPdNS_17integral_constantIbLb0EEE, symObjAddr: 0x4660, symBinAddr: 0x100006638, symSize: 0x94 }
  - { offsetInCU: 0xE9AA, offset: 0xE9AA, size: 0x8, addend: 0x0, symName: __ZNKSt3__114__split_bufferIdRNS_9allocatorIdEEE9__end_capB8ue170006Ev, symObjAddr: 0x46F4, symBinAddr: 0x1000066CC, symSize: 0x28 }
  - { offsetInCU: 0xE9D0, offset: 0xE9D0, size: 0x8, addend: 0x0, symName: __ZNKSt3__117__compressed_pairIPdRNS_9allocatorIdEEE5firstB8ue170006Ev, symObjAddr: 0x471C, symBinAddr: 0x1000066F4, symSize: 0x24 }
  - { offsetInCU: 0xE9F6, offset: 0xE9F6, size: 0x8, addend: 0x0, symName: __ZNSt3__16vectorIdNS_9allocatorIdEEE11__make_iterB8ue170006EPd, symObjAddr: 0x4740, symBinAddr: 0x100006718, symSize: 0x30 }
  - { offsetInCU: 0xEA2B, offset: 0xEA2B, size: 0x8, addend: 0x0, symName: __ZNSt3__111__wrap_iterIPdEC1B8ue170006ES1_, symObjAddr: 0x4770, symBinAddr: 0x100006748, symSize: 0x34 }
  - { offsetInCU: 0xEA63, offset: 0xEA63, size: 0x8, addend: 0x0, symName: __ZNSt3__111__wrap_iterIPdEC2B8ue170006ES1_, symObjAddr: 0x47A4, symBinAddr: 0x10000677C, symSize: 0x20 }
  - { offsetInCU: 0xEA9B, offset: 0xEA9B, size: 0x8, addend: 0x0, symName: __ZNKSt3__111__wrap_iterIPdE4baseB8ue170006Ev, symObjAddr: 0x480C, symBinAddr: 0x1000067E4, symSize: 0x18 }
  - { offsetInCU: 0xEAC1, offset: 0xEAC1, size: 0x8, addend: 0x0, symName: __ZNSt3__18_IterOpsINS_17_ClassicAlgPolicyEE4nextB8ue170006IPdEET_S5_S5_, symObjAddr: 0x4A8C, symBinAddr: 0x100006A64, symSize: 0x18 }
  - { offsetInCU: 0xEAF8, offset: 0xEAF8, size: 0x8, addend: 0x0, symName: __ZNKSt3__16__lessIvvEclB8ue170006IddEEbRKT_RKT0_, symObjAddr: 0x4C80, symBinAddr: 0x100006C58, symSize: 0x34 }
  - { offsetInCU: 0xEB4C, offset: 0xEB4C, size: 0x8, addend: 0x0, symName: __ZNSt3__18_IterOpsINS_17_ClassicAlgPolicyEE9iter_swapB8ue170006IRPdS5_EEvOT_OT0_, symObjAddr: 0x4CB4, symBinAddr: 0x100006C8C, symSize: 0x34 }
  - { offsetInCU: 0xEB8F, offset: 0xEB8F, size: 0x8, addend: 0x0, symName: __ZNSt3__18_IterOpsINS_17_ClassicAlgPolicyEE11__iter_moveB8ue170006IRPdEENS_9enable_ifIXsr12is_referenceIDTdeclsr3stdE7declvalIRT_EEEEE5valueEDTclsr3stdE4movedeclsr3stdE7declvalIS8_EEEEE4typeEOS7_, symObjAddr: 0x5004, symBinAddr: 0x100006FDC, symSize: 0x28 }
  - { offsetInCU: 0xEBBB, offset: 0xEBBB, size: 0x8, addend: 0x0, symName: __ZNSt3__18_IterOpsINS_17_ClassicAlgPolicyEE25__validate_iter_referenceB8ue170006IRPdEEvv, symObjAddr: 0x502C, symBinAddr: 0x100007004, symSize: 0x4 }
  - { offsetInCU: 0xEBD9, offset: 0xEBD9, size: 0x8, addend: 0x0, symName: __ZNSt3__118__unwrap_iter_implINS_11__wrap_iterIPdEELb1EE8__unwrapB8ue170006ES3_, symObjAddr: 0x5340, symBinAddr: 0x100007318, symSize: 0x28 }
  - { offsetInCU: 0xEC06, offset: 0xEC06, size: 0x8, addend: 0x0, symName: __ZNSt3__119__to_address_helperINS_11__wrap_iterIPdEEvE6__callB8ue170006ERKS3_, symObjAddr: 0x538C, symBinAddr: 0x100007364, symSize: 0x30 }
  - { offsetInCU: 0xEC29, offset: 0xEC29, size: 0x8, addend: 0x0, symName: __ZNSt3__114pointer_traitsINS_11__wrap_iterIPdEEE10to_addressB8ue170006ES3_, symObjAddr: 0x53BC, symBinAddr: 0x100007394, symSize: 0x2C }
  - { offsetInCU: 0xEC56, offset: 0xEC56, size: 0x8, addend: 0x0, symName: __ZNKSt3__110__identityclB8ue170006IRdEEOT_S4_, symObjAddr: 0x55D8, symBinAddr: 0x1000075B0, symSize: 0x18 }
  - { offsetInCU: 0xEC93, offset: 0xEC93, size: 0x8, addend: 0x0, symName: __ZNSt3__18ios_base9precisionB8ue170006El, symObjAddr: 0x56F0, symBinAddr: 0x1000076C8, symSize: 0x2C }
...
