---
triple:          'arm64-apple-darwin'
binary-path:     '/Users/spoofch/Documents/Lab_C++/Lab3/1'
relocations:
  - { offsetInCU: 0x2D77, offset: 0x2D77, size: 0x8, addend: 0x0, symName: __ZNSt3__124__put_character_sequenceB7v160006IcNS_11char_traitsIcEEEERNS_13basic_ostreamIT_T0_EES7_PKS4_m, symObjAddr: 0x504, symBinAddr: 0x100002EBC, symSize: 0x1F4 }
  - { offsetInCU: 0x46AE, offset: 0x46AE, size: 0x8, addend: 0x0, symName: __ZNSt3__1lsB7v160006INS_11char_traitsIcEEEERNS_13basic_ostreamIcT_EES6_PKc, symObjAddr: 0x214, symBinAddr: 0x100002BCC, symSize: 0x48 }
  - { offsetInCU: 0x46F4, offset: 0x46F4, size: 0x8, addend: 0x0, symName: __ZNSt3__1rsB7v160006IcNS_11char_traitsIcEEEERNS_13basic_istreamIT_T0_EES7_RS4_, symObjAddr: 0x25C, symBinAddr: 0x100002C14, symSize: 0x190 }
  - { offsetInCU: 0x4776, offset: 0x4776, size: 0x8, addend: 0x0, symName: __ZNSt3__14endlB7v160006IcNS_11char_traitsIcEEEERNS_13basic_ostreamIT_T0_EES7_, symObjAddr: 0x460, symBinAddr: 0x100002E18, symSize: 0x58 }
  - { offsetInCU: 0x47B6, offset: 0x47B6, size: 0x8, addend: 0x0, symName: __ZNSt3__116__pad_and_outputB7v160006IcNS_11char_traitsIcEEEENS_19ostreambuf_iteratorIT_T0_EES6_PKS4_S8_S8_RNS_8ios_baseES4_, symObjAddr: 0x75C, symBinAddr: 0x100003114, symSize: 0x248 }
  - { offsetInCU: 0x4885, offset: 0x4885, size: 0x8, addend: 0x0, symName: __ZNSt3__119__debug_db_insert_cB7v160006INS_12basic_stringIcNS_11char_traitsIcEENS_9allocatorIcEEEEEEvPT_, symObjAddr: 0xC24, symBinAddr: 0x1000035DC, symSize: 0x10 }
  - { offsetInCU: 0x48B6, offset: 0x48B6, size: 0x8, addend: 0x0, symName: __ZNSt3__112__to_addressB7v160006IKcEEPT_S3_, symObjAddr: 0xCF0, symBinAddr: 0x1000036A8, symSize: 0x14 }
  - { offsetInCU: 0x48EB, offset: 0x48EB, size: 0x8, addend: 0x0, symName: __ZNSt3__130__libcpp_is_constant_evaluatedB7v160006Ev, symObjAddr: 0xE1C, symBinAddr: 0x1000037D4, symSize: 0xC }
  - { offsetInCU: 0x493B, offset: 0x493B, size: 0x8, addend: 0x0, symName: __ZNSt3__19use_facetB7v160006INS_5ctypeIcEEEERKT_RKNS_6localeE, symObjAddr: 0xFD4, symBinAddr: 0x10000398C, symSize: 0x2C }
  - { offsetInCU: 0x4E0A, offset: 0x4E0A, size: 0x8, addend: 0x0, symName: __ZNSt3__118__constexpr_strlenB7v160006EPKc, symObjAddr: 0x106C, symBinAddr: 0x100003A24, symSize: 0x24 }
  - { offsetInCU: 0x7818, offset: 0x7818, size: 0x8, addend: 0x0, symName: _main, symObjAddr: 0x0, symBinAddr: 0x1000029B8, symSize: 0x214 }
  - { offsetInCU: 0x78B9, offset: 0x78B9, size: 0x8, addend: 0x0, symName: __ZN20TemperatureConverter7fah2celEf, symObjAddr: 0x3EC, symBinAddr: 0x100002DA4, symSize: 0x48 }
  - { offsetInCU: 0x78EB, offset: 0x78EB, size: 0x8, addend: 0x0, symName: __ZNSt3__113basic_ostreamIcNS_11char_traitsIcEEElsB7v160006EPFRS3_S4_E, symObjAddr: 0x434, symBinAddr: 0x100002DEC, symSize: 0x2C }
  - { offsetInCU: 0x791D, offset: 0x791D, size: 0x8, addend: 0x0, symName: __ZN20TemperatureConverter7cel2fahEf, symObjAddr: 0x4B8, symBinAddr: 0x100002E70, symSize: 0x4C }
  - { offsetInCU: 0x794F, offset: 0x794F, size: 0x8, addend: 0x0, symName: __ZNSt3__111char_traitsIcE6lengthEPKc, symObjAddr: 0x6F8, symBinAddr: 0x1000030B0, symSize: 0x48 }
  - { offsetInCU: 0x798F, offset: 0x798F, size: 0x8, addend: 0x0, symName: __ZNKSt3__113basic_ostreamIcNS_11char_traitsIcEEE6sentrycvbB7v160006Ev, symObjAddr: 0x740, symBinAddr: 0x1000030F8, symSize: 0x1C }
  - { offsetInCU: 0x79B3, offset: 0x79B3, size: 0x8, addend: 0x0, symName: __ZNSt3__119ostreambuf_iteratorIcNS_11char_traitsIcEEEC1B7v160006ERNS_13basic_ostreamIcS2_EE, symObjAddr: 0x9A4, symBinAddr: 0x10000335C, symSize: 0x34 }
  - { offsetInCU: 0x79E9, offset: 0x79E9, size: 0x8, addend: 0x0, symName: __ZNKSt3__18ios_base5flagsB7v160006Ev, symObjAddr: 0x9D8, symBinAddr: 0x100003390, symSize: 0x18 }
  - { offsetInCU: 0x7A0F, offset: 0x7A0F, size: 0x8, addend: 0x0, symName: __ZNKSt3__19basic_iosIcNS_11char_traitsIcEEE4fillB7v160006Ev, symObjAddr: 0x9F0, symBinAddr: 0x1000033A8, symSize: 0x64 }
  - { offsetInCU: 0x7A35, offset: 0x7A35, size: 0x8, addend: 0x0, symName: __ZNKSt3__119ostreambuf_iteratorIcNS_11char_traitsIcEEE6failedB7v160006Ev, symObjAddr: 0xA54, symBinAddr: 0x10000340C, symSize: 0x24 }
  - { offsetInCU: 0x7A59, offset: 0x7A59, size: 0x8, addend: 0x0, symName: __ZNSt3__19basic_iosIcNS_11char_traitsIcEEE8setstateB7v160006Ej, symObjAddr: 0xA78, symBinAddr: 0x100003430, symSize: 0x2C }
  - { offsetInCU: 0x7A8C, offset: 0x7A8C, size: 0x8, addend: 0x0, symName: __ZNKSt3__18ios_base5widthB7v160006Ev, symObjAddr: 0xAB0, symBinAddr: 0x100003468, symSize: 0x18 }
  - { offsetInCU: 0x7AB2, offset: 0x7AB2, size: 0x8, addend: 0x0, symName: __ZNSt3__115basic_streambufIcNS_11char_traitsIcEEE5sputnB7v160006EPKcl, symObjAddr: 0xAC8, symBinAddr: 0x100003480, symSize: 0x3C }
  - { offsetInCU: 0x7AF2, offset: 0x7AF2, size: 0x8, addend: 0x0, symName: __ZNSt3__112basic_stringIcNS_11char_traitsIcEENS_9allocatorIcEEEC1B7v160006Emc, symObjAddr: 0xB04, symBinAddr: 0x1000034BC, symSize: 0x3C }
  - { offsetInCU: 0x7B38, offset: 0x7B38, size: 0x8, addend: 0x0, symName: __ZNKSt3__112basic_stringIcNS_11char_traitsIcEENS_9allocatorIcEEE4dataB7v160006Ev, symObjAddr: 0xB40, symBinAddr: 0x1000034F8, symSize: 0x28 }
  - { offsetInCU: 0x7B5C, offset: 0x7B5C, size: 0x8, addend: 0x0, symName: __ZNSt3__18ios_base5widthB7v160006El, symObjAddr: 0xB68, symBinAddr: 0x100003520, symSize: 0x2C }
  - { offsetInCU: 0x7BA0, offset: 0x7BA0, size: 0x8, addend: 0x0, symName: __ZNSt3__112basic_stringIcNS_11char_traitsIcEENS_9allocatorIcEEEC2B7v160006Emc, symObjAddr: 0xB94, symBinAddr: 0x10000354C, symSize: 0x54 }
  - { offsetInCU: 0x7BEB, offset: 0x7BEB, size: 0x8, addend: 0x0, symName: __ZNSt3__117__compressed_pairINS_12basic_stringIcNS_11char_traitsIcEENS_9allocatorIcEEE5__repES5_EC1B7v160006INS_18__default_init_tagESA_EEOT_OT0_, symObjAddr: 0xBE8, symBinAddr: 0x1000035A0, symSize: 0x3C }
  - { offsetInCU: 0x7C41, offset: 0x7C41, size: 0x8, addend: 0x0, symName: __ZNSt3__117__compressed_pairINS_12basic_stringIcNS_11char_traitsIcEENS_9allocatorIcEEE5__repES5_EC2B7v160006INS_18__default_init_tagESA_EEOT_OT0_, symObjAddr: 0xC34, symBinAddr: 0x1000035EC, symSize: 0x3C }
  - { offsetInCU: 0x7C97, offset: 0x7C97, size: 0x8, addend: 0x0, symName: __ZNSt3__122__compressed_pair_elemINS_12basic_stringIcNS_11char_traitsIcEENS_9allocatorIcEEE5__repELi0ELb0EEC2B7v160006ENS_18__default_init_tagE, symObjAddr: 0xC70, symBinAddr: 0x100003628, symSize: 0x14 }
  - { offsetInCU: 0x7CC9, offset: 0x7CC9, size: 0x8, addend: 0x0, symName: __ZNSt3__122__compressed_pair_elemINS_9allocatorIcEELi1ELb1EEC2B7v160006ENS_18__default_init_tagE, symObjAddr: 0xC84, symBinAddr: 0x10000363C, symSize: 0x2C }
  - { offsetInCU: 0x7CFB, offset: 0x7CFB, size: 0x8, addend: 0x0, symName: __ZNSt3__19allocatorIcEC2B7v160006Ev, symObjAddr: 0xCB0, symBinAddr: 0x100003668, symSize: 0x2C }
  - { offsetInCU: 0x7D23, offset: 0x7D23, size: 0x8, addend: 0x0, symName: __ZNSt3__116__non_trivial_ifILb1ENS_9allocatorIcEEEC2B7v160006Ev, symObjAddr: 0xCDC, symBinAddr: 0x100003694, symSize: 0x14 }
  - { offsetInCU: 0x7D4B, offset: 0x7D4B, size: 0x8, addend: 0x0, symName: __ZNKSt3__112basic_stringIcNS_11char_traitsIcEENS_9allocatorIcEEE13__get_pointerB7v160006Ev, symObjAddr: 0xD04, symBinAddr: 0x1000036BC, symSize: 0x54 }
  - { offsetInCU: 0x7D6F, offset: 0x7D6F, size: 0x8, addend: 0x0, symName: __ZNKSt3__112basic_stringIcNS_11char_traitsIcEENS_9allocatorIcEEE9__is_longB7v160006Ev, symObjAddr: 0xD58, symBinAddr: 0x100003710, symSize: 0x74 }
  - { offsetInCU: 0x7D93, offset: 0x7D93, size: 0x8, addend: 0x0, symName: __ZNKSt3__112basic_stringIcNS_11char_traitsIcEENS_9allocatorIcEEE18__get_long_pointerB7v160006Ev, symObjAddr: 0xDCC, symBinAddr: 0x100003784, symSize: 0x28 }
  - { offsetInCU: 0x7DB7, offset: 0x7DB7, size: 0x8, addend: 0x0, symName: __ZNKSt3__112basic_stringIcNS_11char_traitsIcEENS_9allocatorIcEEE19__get_short_pointerB7v160006Ev, symObjAddr: 0xDF4, symBinAddr: 0x1000037AC, symSize: 0x28 }
  - { offsetInCU: 0x7DDB, offset: 0x7DDB, size: 0x8, addend: 0x0, symName: __ZNKSt3__117__compressed_pairINS_12basic_stringIcNS_11char_traitsIcEENS_9allocatorIcEEE5__repES5_E5firstB7v160006Ev, symObjAddr: 0xE28, symBinAddr: 0x1000037E0, symSize: 0x24 }
  - { offsetInCU: 0x7DFF, offset: 0x7DFF, size: 0x8, addend: 0x0, symName: __ZNKSt3__122__compressed_pair_elemINS_12basic_stringIcNS_11char_traitsIcEENS_9allocatorIcEEE5__repELi0ELb0EE5__getB7v160006Ev, symObjAddr: 0xE4C, symBinAddr: 0x100003804, symSize: 0x14 }
  - { offsetInCU: 0x7E23, offset: 0x7E23, size: 0x8, addend: 0x0, symName: __ZNSt3__114pointer_traitsIPKcE10pointer_toB7v160006ERS1_, symObjAddr: 0xE60, symBinAddr: 0x100003818, symSize: 0x14 }
  - { offsetInCU: 0x7E45, offset: 0x7E45, size: 0x8, addend: 0x0, symName: __ZNSt3__119ostreambuf_iteratorIcNS_11char_traitsIcEEEC2B7v160006ERNS_13basic_ostreamIcS2_EE, symObjAddr: 0xE74, symBinAddr: 0x10000382C, symSize: 0x68 }
  - { offsetInCU: 0x7E7B, offset: 0x7E7B, size: 0x8, addend: 0x0, symName: __ZNKSt3__19basic_iosIcNS_11char_traitsIcEEE5rdbufB7v160006Ev, symObjAddr: 0xEDC, symBinAddr: 0x100003894, symSize: 0x24 }
  - { offsetInCU: 0x7EA1, offset: 0x7EA1, size: 0x8, addend: 0x0, symName: __ZNKSt3__18ios_base5rdbufB7v160006Ev, symObjAddr: 0xF00, symBinAddr: 0x1000038B8, symSize: 0x18 }
  - { offsetInCU: 0x7EC5, offset: 0x7EC5, size: 0x8, addend: 0x0, symName: __ZNSt3__111char_traitsIcE11eq_int_typeEii, symObjAddr: 0xF18, symBinAddr: 0x1000038D0, symSize: 0x28 }
  - { offsetInCU: 0x7EF5, offset: 0x7EF5, size: 0x8, addend: 0x0, symName: __ZNSt3__111char_traitsIcE3eofEv, symObjAddr: 0xF40, symBinAddr: 0x1000038F8, symSize: 0x8 }
  - { offsetInCU: 0x7F08, offset: 0x7F08, size: 0x8, addend: 0x0, symName: __ZNKSt3__19basic_iosIcNS_11char_traitsIcEEE5widenB7v160006Ec, symObjAddr: 0xF48, symBinAddr: 0x100003900, symSize: 0x8C }
  - { offsetInCU: 0x7F74, offset: 0x7F74, size: 0x8, addend: 0x0, symName: __ZNKSt3__15ctypeIcE5widenB7v160006Ec, symObjAddr: 0x1000, symBinAddr: 0x1000039B8, symSize: 0x38 }
  - { offsetInCU: 0x7FA7, offset: 0x7FA7, size: 0x8, addend: 0x0, symName: __ZNSt3__18ios_base8setstateB7v160006Ej, symObjAddr: 0x1038, symBinAddr: 0x1000039F0, symSize: 0x34 }
  - { offsetInCU: 0x806E, offset: 0x806E, size: 0x8, addend: 0x0, symName: __ZNKSt3__113basic_istreamIcNS_11char_traitsIcEEE6sentrycvbB7v160006Ev, symObjAddr: 0x1090, symBinAddr: 0x100003A48, symSize: 0x1C }
  - { offsetInCU: 0x8092, offset: 0x8092, size: 0x8, addend: 0x0, symName: __ZNSt3__115basic_streambufIcNS_11char_traitsIcEEE6sbumpcB7v160006Ev, symObjAddr: 0x10AC, symBinAddr: 0x100003A64, symSize: 0x78 }
  - { offsetInCU: 0x80B6, offset: 0x80B6, size: 0x8, addend: 0x0, symName: __ZNSt3__111char_traitsIcE12to_char_typeEi, symObjAddr: 0x1124, symBinAddr: 0x100003ADC, symSize: 0x18 }
  - { offsetInCU: 0x80D8, offset: 0x80D8, size: 0x8, addend: 0x0, symName: __ZNSt3__18ios_base18__setstate_nothrowB7v160006Ej, symObjAddr: 0x113C, symBinAddr: 0x100003AF4, symSize: 0x64 }
  - { offsetInCU: 0x810B, offset: 0x810B, size: 0x8, addend: 0x0, symName: __ZNKSt3__19basic_iosIcNS_11char_traitsIcEEE10exceptionsB7v160006Ev, symObjAddr: 0x11A0, symBinAddr: 0x100003B58, symSize: 0x24 }
  - { offsetInCU: 0x812F, offset: 0x812F, size: 0x8, addend: 0x0, symName: __ZNSt3__111char_traitsIcE11to_int_typeEc, symObjAddr: 0x11C4, symBinAddr: 0x100003B7C, symSize: 0x14 }
  - { offsetInCU: 0x8151, offset: 0x8151, size: 0x8, addend: 0x0, symName: __ZNKSt3__18ios_base10exceptionsB7v160006Ev, symObjAddr: 0x11D8, symBinAddr: 0x100003B90, symSize: 0x18 }
...
