---
triple:          'arm64-apple-darwin'
binary-path:     '/Users/spoofch/Documents/Lab_C++/Lab2/3_4'
relocations:
  - { offsetInCU: 0x2F6D, offset: 0x2F6D, size: 0x8, addend: 0x0, symName: __ZNSt3__124__put_character_sequenceB7v160006IcNS_11char_traitsIcEEEERNS_13basic_ostreamIT_T0_EES7_PKS4_m, symObjAddr: 0xBEC, symBinAddr: 0x10000320C, symSize: 0x1F4 }
  - { offsetInCU: 0x4A5C, offset: 0x4A5C, size: 0x8, addend: 0x0, symName: __ZNSt3__1lsB7v160006IcNS_11char_traitsIcEEEERNS_13basic_ostreamIT_T0_EES7_RKNS_8__iom_t5E, symObjAddr: 0x1BC, symBinAddr: 0x1000027DC, symSize: 0x40 }
  - { offsetInCU: 0x4AA8, offset: 0x4AA8, size: 0x8, addend: 0x0, symName: __ZNSt3__15fixedB7v160006ERNS_8ios_baseE, symObjAddr: 0x23C, symBinAddr: 0x10000285C, symSize: 0x30 }
  - { offsetInCU: 0x4AD6, offset: 0x4AD6, size: 0x8, addend: 0x0, symName: __ZNSt3__112setprecisionB7v160006Ei, symObjAddr: 0x26C, symBinAddr: 0x10000288C, symSize: 0x2C }
  - { offsetInCU: 0x4B02, offset: 0x4B02, size: 0x8, addend: 0x0, symName: __ZNSt3__1lsB7v160006INS_11char_traitsIcEEEERNS_13basic_ostreamIcT_EES6_PKc, symObjAddr: 0x298, symBinAddr: 0x1000028B8, symSize: 0x48 }
  - { offsetInCU: 0x4B48, offset: 0x4B48, size: 0x8, addend: 0x0, symName: __ZNSt3__14endlB7v160006IcNS_11char_traitsIcEEEERNS_13basic_ostreamIT_T0_EES7_, symObjAddr: 0x30C, symBinAddr: 0x10000292C, symSize: 0x58 }
  - { offsetInCU: 0x4B88, offset: 0x4B88, size: 0x8, addend: 0x0, symName: __ZNSt3__119__debug_db_insert_cB7v160006INS_12basic_stringIcNS_11char_traitsIcEENS_9allocatorIcEEEEEEvPT_, symObjAddr: 0x6E0, symBinAddr: 0x100002D00, symSize: 0x10 }
  - { offsetInCU: 0x4BB9, offset: 0x4BB9, size: 0x8, addend: 0x0, symName: __ZNSt3__118__constexpr_strlenB7v160006EPKc, symObjAddr: 0x7AC, symBinAddr: 0x100002DCC, symSize: 0x24 }
  - { offsetInCU: 0x4BE5, offset: 0x4BE5, size: 0x8, addend: 0x0, symName: __ZNSt3__118generate_canonicalB7v160006IdLm53ENS_26linear_congruential_engineIjLj48271ELj0ELj2147483647EEEEET_RT1_, symObjAddr: 0x910, symBinAddr: 0x100002F30, symSize: 0x10C }
  - { offsetInCU: 0x4D11, offset: 0x4D11, size: 0x8, addend: 0x0, symName: __ZNSt3__116__pad_and_outputB7v160006IcNS_11char_traitsIcEEEENS_19ostreambuf_iteratorIT_T0_EES6_PKS4_S8_S8_RNS_8ios_baseES4_, symObjAddr: 0xDFC, symBinAddr: 0x10000341C, symSize: 0x248 }
  - { offsetInCU: 0x4DE0, offset: 0x4DE0, size: 0x8, addend: 0x0, symName: __ZNSt3__112__to_addressB7v160006IKcEEPT_S3_, symObjAddr: 0x127C, symBinAddr: 0x10000389C, symSize: 0x14 }
  - { offsetInCU: 0x4E15, offset: 0x4E15, size: 0x8, addend: 0x0, symName: __ZNSt3__130__libcpp_is_constant_evaluatedB7v160006Ev, symObjAddr: 0x13A8, symBinAddr: 0x1000039C8, symSize: 0xC }
  - { offsetInCU: 0x4E65, offset: 0x4E65, size: 0x8, addend: 0x0, symName: __ZNSt3__19use_facetB7v160006INS_5ctypeIcEEEERKT_RKNS_6localeE, symObjAddr: 0x1560, symBinAddr: 0x100003B80, symSize: 0x2C }
  - { offsetInCU: 0x786B, offset: 0x786B, size: 0x8, addend: 0x0, symName: _main, symObjAddr: 0x0, symBinAddr: 0x100002620, symSize: 0x154 }
  - { offsetInCU: 0x7997, offset: 0x7997, size: 0x8, addend: 0x0, symName: __ZN11Rand_doubleC1Edd, symObjAddr: 0x154, symBinAddr: 0x100002774, symSize: 0x3C }
  - { offsetInCU: 0x79DB, offset: 0x79DB, size: 0x8, addend: 0x0, symName: __ZN11Rand_doubleclEv, symObjAddr: 0x190, symBinAddr: 0x1000027B0, symSize: 0x2C }
  - { offsetInCU: 0x79FF, offset: 0x79FF, size: 0x8, addend: 0x0, symName: __ZNSt3__113basic_ostreamIcNS_11char_traitsIcEEElsB7v160006EPFRNS_8ios_baseES5_E, symObjAddr: 0x1FC, symBinAddr: 0x10000281C, symSize: 0x40 }
  - { offsetInCU: 0x7A31, offset: 0x7A31, size: 0x8, addend: 0x0, symName: __ZNSt3__113basic_ostreamIcNS_11char_traitsIcEEElsB7v160006EPFRS3_S4_E, symObjAddr: 0x2E0, symBinAddr: 0x100002900, symSize: 0x2C }
  - { offsetInCU: 0x7A63, offset: 0x7A63, size: 0x8, addend: 0x0, symName: __ZN11Rand_doubleC2Edd, symObjAddr: 0x364, symBinAddr: 0x100002984, symSize: 0xE4 }
  - { offsetInCU: 0x7ABB, offset: 0x7ABB, size: 0x8, addend: 0x0, symName: __ZNSt3__126linear_congruential_engineIjLj48271ELj0ELj2147483647EEC1B7v160006Ej, symObjAddr: 0x448, symBinAddr: 0x100002A68, symSize: 0x34 }
  - { offsetInCU: 0x7AF1, offset: 0x7AF1, size: 0x8, addend: 0x0, symName: __ZNSt3__125uniform_real_distributionIdEC1B7v160006Edd, symObjAddr: 0x47C, symBinAddr: 0x100002A9C, symSize: 0x3C }
  - { offsetInCU: 0x7B3A, offset: 0x7B3A, size: 0x8, addend: 0x0, symName: __ZNSt3__112basic_stringIcNS_11char_traitsIcEENS_9allocatorIcEEEC1B7v160006IDnEEPKc, symObjAddr: 0x4B8, symBinAddr: 0x100002AD8, symSize: 0x34 }
  - { offsetInCU: 0x7B76, offset: 0x7B76, size: 0x8, addend: 0x0, symName: __ZNSt3__126linear_congruential_engineIjLj48271ELj0ELj2147483647EE4seedB7v160006Ej, symObjAddr: 0x4F8, symBinAddr: 0x100002B18, symSize: 0x2C }
  - { offsetInCU: 0x7BA8, offset: 0x7BA8, size: 0x8, addend: 0x0, symName: __ZNSt3__126linear_congruential_engineIjLj48271ELj0ELj2147483647EEC2B7v160006Ej, symObjAddr: 0x524, symBinAddr: 0x100002B44, symSize: 0x34 }
  - { offsetInCU: 0x7BDE, offset: 0x7BDE, size: 0x8, addend: 0x0, symName: __ZNSt3__125uniform_real_distributionIdEC2B7v160006Edd, symObjAddr: 0x558, symBinAddr: 0x100002B78, symSize: 0x3C }
  - { offsetInCU: 0x7C22, offset: 0x7C22, size: 0x8, addend: 0x0, symName: __ZNSt3__125uniform_real_distributionIdE10param_typeC1B7v160006Edd, symObjAddr: 0x594, symBinAddr: 0x100002BB4, symSize: 0x3C }
  - { offsetInCU: 0x7C66, offset: 0x7C66, size: 0x8, addend: 0x0, symName: __ZNSt3__125uniform_real_distributionIdE10param_typeC2B7v160006Edd, symObjAddr: 0x5D0, symBinAddr: 0x100002BF0, symSize: 0x2C }
  - { offsetInCU: 0x7CAA, offset: 0x7CAA, size: 0x8, addend: 0x0, symName: __ZNSt3__112basic_stringIcNS_11char_traitsIcEENS_9allocatorIcEEEC2B7v160006IDnEEPKc, symObjAddr: 0x5FC, symBinAddr: 0x100002C1C, symSize: 0x60 }
  - { offsetInCU: 0x7CEB, offset: 0x7CEB, size: 0x8, addend: 0x0, symName: __ZNSt3__117__compressed_pairINS_12basic_stringIcNS_11char_traitsIcEENS_9allocatorIcEEE5__repES5_EC1B7v160006INS_18__default_init_tagESA_EEOT_OT0_, symObjAddr: 0x65C, symBinAddr: 0x100002C7C, symSize: 0x3C }
  - { offsetInCU: 0x7D41, offset: 0x7D41, size: 0x8, addend: 0x0, symName: __ZNSt3__111char_traitsIcE6lengthEPKc, symObjAddr: 0x698, symBinAddr: 0x100002CB8, symSize: 0x48 }
  - { offsetInCU: 0x7D63, offset: 0x7D63, size: 0x8, addend: 0x0, symName: __ZNSt3__117__compressed_pairINS_12basic_stringIcNS_11char_traitsIcEENS_9allocatorIcEEE5__repES5_EC2B7v160006INS_18__default_init_tagESA_EEOT_OT0_, symObjAddr: 0x6F0, symBinAddr: 0x100002D10, symSize: 0x3C }
  - { offsetInCU: 0x7DB9, offset: 0x7DB9, size: 0x8, addend: 0x0, symName: __ZNSt3__122__compressed_pair_elemINS_12basic_stringIcNS_11char_traitsIcEENS_9allocatorIcEEE5__repELi0ELb0EEC2B7v160006ENS_18__default_init_tagE, symObjAddr: 0x72C, symBinAddr: 0x100002D4C, symSize: 0x14 }
  - { offsetInCU: 0x7DEB, offset: 0x7DEB, size: 0x8, addend: 0x0, symName: __ZNSt3__122__compressed_pair_elemINS_9allocatorIcEELi1ELb1EEC2B7v160006ENS_18__default_init_tagE, symObjAddr: 0x740, symBinAddr: 0x100002D60, symSize: 0x2C }
  - { offsetInCU: 0x7E1D, offset: 0x7E1D, size: 0x8, addend: 0x0, symName: __ZNSt3__19allocatorIcEC2B7v160006Ev, symObjAddr: 0x76C, symBinAddr: 0x100002D8C, symSize: 0x2C }
  - { offsetInCU: 0x7E45, offset: 0x7E45, size: 0x8, addend: 0x0, symName: __ZNSt3__116__non_trivial_ifILb1ENS_9allocatorIcEEEC2B7v160006Ev, symObjAddr: 0x798, symBinAddr: 0x100002DB8, symSize: 0x14 }
  - { offsetInCU: 0x7E6D, offset: 0x7E6D, size: 0x8, addend: 0x0, symName: __ZNSt3__126linear_congruential_engineIjLj48271ELj0ELj2147483647EE4seedB7v160006ENS_17integral_constantIbLb0EEENS2_IbLb1EEEj, symObjAddr: 0x7D0, symBinAddr: 0x100002DF0, symSize: 0x74 }
  - { offsetInCU: 0x7EBB, offset: 0x7EBB, size: 0x8, addend: 0x0, symName: __ZNSt3__125uniform_real_distributionIdEclB7v160006INS_26linear_congruential_engineIjLj48271ELj0ELj2147483647EEEEEdRT_, symObjAddr: 0x844, symBinAddr: 0x100002E64, symSize: 0x30 }
  - { offsetInCU: 0x7EF6, offset: 0x7EF6, size: 0x8, addend: 0x0, symName: __ZNSt3__125uniform_real_distributionIdEclINS_26linear_congruential_engineIjLj48271ELj0ELj2147483647EEEEEdRT_RKNS1_10param_typeE, symObjAddr: 0x874, symBinAddr: 0x100002E94, symSize: 0x6C }
  - { offsetInCU: 0x7F40, offset: 0x7F40, size: 0x8, addend: 0x0, symName: __ZNKSt3__125uniform_real_distributionIdE10param_type1bB7v160006Ev, symObjAddr: 0x8E0, symBinAddr: 0x100002F00, symSize: 0x18 }
  - { offsetInCU: 0x7F64, offset: 0x7F64, size: 0x8, addend: 0x0, symName: __ZNKSt3__125uniform_real_distributionIdE10param_type1aB7v160006Ev, symObjAddr: 0x8F8, symBinAddr: 0x100002F18, symSize: 0x18 }
  - { offsetInCU: 0x7F88, offset: 0x7F88, size: 0x8, addend: 0x0, symName: __ZNSt3__126linear_congruential_engineIjLj48271ELj0ELj2147483647EE3maxB7v160006Ev, symObjAddr: 0xA1C, symBinAddr: 0x10000303C, symSize: 0x8 }
  - { offsetInCU: 0x7F9B, offset: 0x7F9B, size: 0x8, addend: 0x0, symName: __ZNSt3__126linear_congruential_engineIjLj48271ELj0ELj2147483647EE3minB7v160006Ev, symObjAddr: 0xA24, symBinAddr: 0x100003044, symSize: 0x8 }
  - { offsetInCU: 0x7FAE, offset: 0x7FAE, size: 0x8, addend: 0x0, symName: __ZNSt3__126linear_congruential_engineIjLj48271ELj0ELj2147483647EEclB7v160006Ev, symObjAddr: 0xA2C, symBinAddr: 0x10000304C, symSize: 0x34 }
  - { offsetInCU: 0x7FDD, offset: 0x7FDD, size: 0x8, addend: 0x0, symName: __ZNSt3__18__lce_taILy48271ELy0ELy2147483647ELy4294967295ELb1EE4nextB7v160006Ej, symObjAddr: 0xA60, symBinAddr: 0x100003080, symSize: 0x88 }
  - { offsetInCU: 0x8054, offset: 0x8054, size: 0x8, addend: 0x0, symName: __ZNSt3__18ios_base4setfB7v160006Ejj, symObjAddr: 0xAE8, symBinAddr: 0x100003108, symSize: 0x5C }
  - { offsetInCU: 0x80A7, offset: 0x80A7, size: 0x8, addend: 0x0, symName: __ZNSt3__18ios_base6unsetfB7v160006Ej, symObjAddr: 0xB44, symBinAddr: 0x100003164, symSize: 0x28 }
  - { offsetInCU: 0x80DC, offset: 0x80DC, size: 0x8, addend: 0x0, symName: __ZNSt3__18__iom_t5C1B7v160006Ei, symObjAddr: 0xB6C, symBinAddr: 0x10000318C, symSize: 0x34 }
  - { offsetInCU: 0x8112, offset: 0x8112, size: 0x8, addend: 0x0, symName: __ZNSt3__18__iom_t5C2B7v160006Ei, symObjAddr: 0xBA0, symBinAddr: 0x1000031C0, symSize: 0x20 }
  - { offsetInCU: 0x8149, offset: 0x8149, size: 0x8, addend: 0x0, symName: __ZNSt3__18ios_base9precisionB7v160006El, symObjAddr: 0xBC0, symBinAddr: 0x1000031E0, symSize: 0x2C }
  - { offsetInCU: 0x81AB, offset: 0x81AB, size: 0x8, addend: 0x0, symName: __ZNKSt3__113basic_ostreamIcNS_11char_traitsIcEEE6sentrycvbB7v160006Ev, symObjAddr: 0xDE0, symBinAddr: 0x100003400, symSize: 0x1C }
  - { offsetInCU: 0x81CF, offset: 0x81CF, size: 0x8, addend: 0x0, symName: __ZNSt3__119ostreambuf_iteratorIcNS_11char_traitsIcEEEC1B7v160006ERNS_13basic_ostreamIcS2_EE, symObjAddr: 0x1044, symBinAddr: 0x100003664, symSize: 0x34 }
  - { offsetInCU: 0x8206, offset: 0x8206, size: 0x8, addend: 0x0, symName: __ZNKSt3__18ios_base5flagsB7v160006Ev, symObjAddr: 0x1078, symBinAddr: 0x100003698, symSize: 0x18 }
  - { offsetInCU: 0x822D, offset: 0x822D, size: 0x8, addend: 0x0, symName: __ZNKSt3__19basic_iosIcNS_11char_traitsIcEEE4fillB7v160006Ev, symObjAddr: 0x1090, symBinAddr: 0x1000036B0, symSize: 0x64 }
  - { offsetInCU: 0x8252, offset: 0x8252, size: 0x8, addend: 0x0, symName: __ZNKSt3__119ostreambuf_iteratorIcNS_11char_traitsIcEEE6failedB7v160006Ev, symObjAddr: 0x10F4, symBinAddr: 0x100003714, symSize: 0x24 }
  - { offsetInCU: 0x8276, offset: 0x8276, size: 0x8, addend: 0x0, symName: __ZNSt3__19basic_iosIcNS_11char_traitsIcEEE8setstateB7v160006Ej, symObjAddr: 0x1118, symBinAddr: 0x100003738, symSize: 0x2C }
  - { offsetInCU: 0x82AA, offset: 0x82AA, size: 0x8, addend: 0x0, symName: __ZNKSt3__18ios_base5widthB7v160006Ev, symObjAddr: 0x1144, symBinAddr: 0x100003764, symSize: 0x18 }
  - { offsetInCU: 0x82D0, offset: 0x82D0, size: 0x8, addend: 0x0, symName: __ZNSt3__115basic_streambufIcNS_11char_traitsIcEEE5sputnB7v160006EPKcl, symObjAddr: 0x115C, symBinAddr: 0x10000377C, symSize: 0x3C }
  - { offsetInCU: 0x8310, offset: 0x8310, size: 0x8, addend: 0x0, symName: __ZNSt3__112basic_stringIcNS_11char_traitsIcEENS_9allocatorIcEEEC1B7v160006Emc, symObjAddr: 0x1198, symBinAddr: 0x1000037B8, symSize: 0x3C }
  - { offsetInCU: 0x8356, offset: 0x8356, size: 0x8, addend: 0x0, symName: __ZNKSt3__112basic_stringIcNS_11char_traitsIcEENS_9allocatorIcEEE4dataB7v160006Ev, symObjAddr: 0x11D4, symBinAddr: 0x1000037F4, symSize: 0x28 }
  - { offsetInCU: 0x837B, offset: 0x837B, size: 0x8, addend: 0x0, symName: __ZNSt3__18ios_base5widthB7v160006El, symObjAddr: 0x11FC, symBinAddr: 0x10000381C, symSize: 0x2C }
  - { offsetInCU: 0x83BF, offset: 0x83BF, size: 0x8, addend: 0x0, symName: __ZNSt3__112basic_stringIcNS_11char_traitsIcEENS_9allocatorIcEEEC2B7v160006Emc, symObjAddr: 0x1228, symBinAddr: 0x100003848, symSize: 0x54 }
  - { offsetInCU: 0x8405, offset: 0x8405, size: 0x8, addend: 0x0, symName: __ZNKSt3__112basic_stringIcNS_11char_traitsIcEENS_9allocatorIcEEE13__get_pointerB7v160006Ev, symObjAddr: 0x1290, symBinAddr: 0x1000038B0, symSize: 0x54 }
  - { offsetInCU: 0x8429, offset: 0x8429, size: 0x8, addend: 0x0, symName: __ZNKSt3__112basic_stringIcNS_11char_traitsIcEENS_9allocatorIcEEE9__is_longB7v160006Ev, symObjAddr: 0x12E4, symBinAddr: 0x100003904, symSize: 0x74 }
  - { offsetInCU: 0x844D, offset: 0x844D, size: 0x8, addend: 0x0, symName: __ZNKSt3__112basic_stringIcNS_11char_traitsIcEENS_9allocatorIcEEE18__get_long_pointerB7v160006Ev, symObjAddr: 0x1358, symBinAddr: 0x100003978, symSize: 0x28 }
  - { offsetInCU: 0x8471, offset: 0x8471, size: 0x8, addend: 0x0, symName: __ZNKSt3__112basic_stringIcNS_11char_traitsIcEENS_9allocatorIcEEE19__get_short_pointerB7v160006Ev, symObjAddr: 0x1380, symBinAddr: 0x1000039A0, symSize: 0x28 }
  - { offsetInCU: 0x8495, offset: 0x8495, size: 0x8, addend: 0x0, symName: __ZNKSt3__117__compressed_pairINS_12basic_stringIcNS_11char_traitsIcEENS_9allocatorIcEEE5__repES5_E5firstB7v160006Ev, symObjAddr: 0x13B4, symBinAddr: 0x1000039D4, symSize: 0x24 }
  - { offsetInCU: 0x84B9, offset: 0x84B9, size: 0x8, addend: 0x0, symName: __ZNKSt3__122__compressed_pair_elemINS_12basic_stringIcNS_11char_traitsIcEENS_9allocatorIcEEE5__repELi0ELb0EE5__getB7v160006Ev, symObjAddr: 0x13D8, symBinAddr: 0x1000039F8, symSize: 0x14 }
  - { offsetInCU: 0x84DD, offset: 0x84DD, size: 0x8, addend: 0x0, symName: __ZNSt3__114pointer_traitsIPKcE10pointer_toB7v160006ERS1_, symObjAddr: 0x13EC, symBinAddr: 0x100003A0C, symSize: 0x14 }
  - { offsetInCU: 0x84FF, offset: 0x84FF, size: 0x8, addend: 0x0, symName: __ZNSt3__119ostreambuf_iteratorIcNS_11char_traitsIcEEEC2B7v160006ERNS_13basic_ostreamIcS2_EE, symObjAddr: 0x1400, symBinAddr: 0x100003A20, symSize: 0x68 }
  - { offsetInCU: 0x8536, offset: 0x8536, size: 0x8, addend: 0x0, symName: __ZNKSt3__19basic_iosIcNS_11char_traitsIcEEE5rdbufB7v160006Ev, symObjAddr: 0x1468, symBinAddr: 0x100003A88, symSize: 0x24 }
  - { offsetInCU: 0x855B, offset: 0x855B, size: 0x8, addend: 0x0, symName: __ZNKSt3__18ios_base5rdbufB7v160006Ev, symObjAddr: 0x148C, symBinAddr: 0x100003AAC, symSize: 0x18 }
  - { offsetInCU: 0x857F, offset: 0x857F, size: 0x8, addend: 0x0, symName: __ZNSt3__111char_traitsIcE11eq_int_typeEii, symObjAddr: 0x14A4, symBinAddr: 0x100003AC4, symSize: 0x28 }
  - { offsetInCU: 0x85AF, offset: 0x85AF, size: 0x8, addend: 0x0, symName: __ZNSt3__111char_traitsIcE3eofEv, symObjAddr: 0x14CC, symBinAddr: 0x100003AEC, symSize: 0x8 }
  - { offsetInCU: 0x85C3, offset: 0x85C3, size: 0x8, addend: 0x0, symName: __ZNKSt3__19basic_iosIcNS_11char_traitsIcEEE5widenB7v160006Ec, symObjAddr: 0x14D4, symBinAddr: 0x100003AF4, symSize: 0x8C }
  - { offsetInCU: 0x862E, offset: 0x862E, size: 0x8, addend: 0x0, symName: __ZNKSt3__15ctypeIcE5widenB7v160006Ec, symObjAddr: 0x158C, symBinAddr: 0x100003BAC, symSize: 0x38 }
  - { offsetInCU: 0x8662, offset: 0x8662, size: 0x8, addend: 0x0, symName: __ZNSt3__18ios_base8setstateB7v160006Ej, symObjAddr: 0x15C4, symBinAddr: 0x100003BE4, symSize: 0x34 }
...
