---
triple:          'arm64-apple-darwin'
binary-path:     '/Users/spoofch/Documents/Lab_C++/Lab4/2'
relocations:
  - { offsetInCU: 0x4F7D, offset: 0x4F7D, size: 0x8, addend: 0x0, symName: __ZNSt3__124__put_character_sequenceB7v160006IcNS_11char_traitsIcEEEERNS_13basic_ostreamIT_T0_EES7_PKS4_m, symObjAddr: 0x4564, symBinAddr: 0x1000065F0, symSize: 0x1EC }
  - { offsetInCU: 0x6CCB, offset: 0x6CCB, size: 0x8, addend: 0x0, symName: __ZNSt3__1lsB7v160006INS_11char_traitsIcEEEERNS_13basic_ostreamIcT_EES6_PKc, symObjAddr: 0x734, symBinAddr: 0x1000027C0, symSize: 0x48 }
  - { offsetInCU: 0x6D11, offset: 0x6D11, size: 0x8, addend: 0x0, symName: __ZNSt3__1rsB7v160006IcNS_11char_traitsIcEEEERNS_13basic_istreamIT_T0_EES7_RS4_, symObjAddr: 0x77C, symBinAddr: 0x100002808, symSize: 0x190 }
  - { offsetInCU: 0x6D93, offset: 0x6D93, size: 0x8, addend: 0x0, symName: __ZNSt3__17getlineB7v160006IcNS_11char_traitsIcEENS_9allocatorIcEEEERNS_13basic_istreamIT_T0_EES9_RNS_12basic_stringIS6_S7_T1_EE, symObjAddr: 0x940, symBinAddr: 0x1000029CC, symSize: 0x5C }
  - { offsetInCU: 0x6FEC, offset: 0x6FEC, size: 0x8, addend: 0x0, symName: __ZNSt3__1lsB7v160006IcNS_11char_traitsIcEENS_9allocatorIcEEEERNS_13basic_ostreamIT_T0_EES9_RKNS_12basic_stringIS6_S7_T1_EE, symObjAddr: 0xB4C, symBinAddr: 0x100002BD8, symSize: 0x4C }
  - { offsetInCU: 0x7044, offset: 0x7044, size: 0x8, addend: 0x0, symName: __ZNSt3__119__debug_db_insert_cB7v160006INS_6vectorI9Book_infoNS_9allocatorIS2_EEEEEEvPT_, symObjAddr: 0xEC4, symBinAddr: 0x100002F50, symSize: 0x10 }
  - { offsetInCU: 0x7075, offset: 0x7075, size: 0x8, addend: 0x0, symName: __ZNSt3__112__to_addressB7v160006I9Book_infoEEPT_S3_, symObjAddr: 0x12EC, symBinAddr: 0x100003378, symSize: 0x14 }
  - { offsetInCU: 0x70AA, offset: 0x70AA, size: 0x8, addend: 0x0, symName: __ZNSt3__13maxB7v160006ImEERKT_S3_S3_, symObjAddr: 0x17D0, symBinAddr: 0x10000385C, symSize: 0x2C }
  - { offsetInCU: 0x70ED, offset: 0x70ED, size: 0x8, addend: 0x0, symName: __ZNSt3__13minB7v160006ImEERKT_S3_S3_, symObjAddr: 0x17FC, symBinAddr: 0x100003888, symSize: 0x2C }
  - { offsetInCU: 0x7130, offset: 0x7130, size: 0x8, addend: 0x0, symName: __ZNSt3__13minB7v160006ImNS_6__lessImmEEEERKT_S5_S5_T0_, symObjAddr: 0x1874, symBinAddr: 0x100003900, symSize: 0x54 }
  - { offsetInCU: 0x71C5, offset: 0x71C5, size: 0x8, addend: 0x0, symName: __ZNSt3__120__throw_length_errorB7v160006EPKc, symObjAddr: 0x1954, symBinAddr: 0x1000039E0, symSize: 0x64 }
  - { offsetInCU: 0x71ED, offset: 0x71ED, size: 0x8, addend: 0x0, symName: __ZNSt3__13maxB7v160006ImNS_6__lessImmEEEERKT_S5_S5_T0_, symObjAddr: 0x1A98, symBinAddr: 0x100003B24, symSize: 0x54 }
  - { offsetInCU: 0x7247, offset: 0x7247, size: 0x8, addend: 0x0, symName: __ZNSt3__119__allocate_at_leastB7v160006INS_9allocatorI9Book_infoEEEENS_19__allocation_resultINS_16allocator_traitsIT_E7pointerEEERS6_m, symObjAddr: 0x1C08, symBinAddr: 0x100003C94, symSize: 0x40 }
  - { offsetInCU: 0x728A, offset: 0x728A, size: 0x8, addend: 0x0, symName: __ZNSt3__117__libcpp_allocateB7v160006Emm, symObjAddr: 0x1D90, symBinAddr: 0x100003E1C, symSize: 0x28 }
  - { offsetInCU: 0x72C7, offset: 0x72C7, size: 0x8, addend: 0x0, symName: __ZNSt3__121__libcpp_operator_newB7v160006IJmEEEPvDpT_, symObjAddr: 0x1DB8, symBinAddr: 0x100003E44, symSize: 0x24 }
  - { offsetInCU: 0x7300, offset: 0x7300, size: 0x8, addend: 0x0, symName: __ZNSt3__142__uninitialized_allocator_move_if_noexceptB7v160006INS_9allocatorI9Book_infoEENS_16reverse_iteratorIPS2_EES6_S6_EET2_RT_T0_T1_S7_, symObjAddr: 0x1F14, symBinAddr: 0x100003FA0, symSize: 0x12C }
  - { offsetInCU: 0x73A0, offset: 0x73A0, size: 0x8, addend: 0x0, symName: __ZNSt3__14swapB7v160006IP9Book_infoEENS_9enable_ifIXaasr21is_move_constructibleIT_EE5valuesr18is_move_assignableIS4_EE5valueEvE4typeERS4_S7_, symObjAddr: 0x208C, symBinAddr: 0x100004118, symSize: 0x3C }
  - { offsetInCU: 0x73F1, offset: 0x73F1, size: 0x8, addend: 0x0, symName: __ZNSt3__125__debug_db_invalidate_allB7v160006INS_6vectorI9Book_infoNS_9allocatorIS2_EEEEEEvPT_, symObjAddr: 0x2190, symBinAddr: 0x10000421C, symSize: 0x10 }
  - { offsetInCU: 0x7422, offset: 0x7422, size: 0x8, addend: 0x0, symName: __ZNSt3__122__make_exception_guardB7v160006INS_29_AllocatorDestroyRangeReverseINS_9allocatorI9Book_infoEENS_16reverse_iteratorIPS3_EEEEEENS_28__exception_guard_exceptionsIT_EESA_, symObjAddr: 0x21E8, symBinAddr: 0x100004274, symSize: 0x4C }
  - { offsetInCU: 0x7458, offset: 0x7458, size: 0x8, addend: 0x0, symName: __ZNSt3__1neB7v160006IP9Book_infoS2_EEbRKNS_16reverse_iteratorIT_EERKNS3_IT0_EE, symObjAddr: 0x2278, symBinAddr: 0x100004304, symSize: 0x48 }
  - { offsetInCU: 0x74A4, offset: 0x74A4, size: 0x8, addend: 0x0, symName: __ZNSt3__112__to_addressB7v160006INS_16reverse_iteratorIP9Book_infoEEvEENS_5decayIDTclsr19__to_address_helperIT_EE6__callclsr3stdE7declvalIRKS6_EEEEE4typeES8_, symObjAddr: 0x22F4, symBinAddr: 0x100004380, symSize: 0x24 }
  - { offsetInCU: 0x74DA, offset: 0x74DA, size: 0x8, addend: 0x0, symName: __ZNSt3__119__debug_db_insert_cB7v160006INS_12basic_stringIcNS_11char_traitsIcEENS_9allocatorIcEEEEEEvPT_, symObjAddr: 0x25F8, symBinAddr: 0x100004684, symSize: 0x10 }
  - { offsetInCU: 0x750B, offset: 0x750B, size: 0x8, addend: 0x0, symName: __ZNSt3__115__debug_db_swapB7v160006INS_12basic_stringIcNS_11char_traitsIcEENS_9allocatorIcEEEEEEvPT_S8_, symObjAddr: 0x2640, symBinAddr: 0x1000046CC, symSize: 0x14 }
  - { offsetInCU: 0x7573, offset: 0x7573, size: 0x8, addend: 0x0, symName: __ZNSt3__119__allocator_destroyB7v160006INS_9allocatorI9Book_infoEENS_16reverse_iteratorINS4_IPS2_EEEES7_EEvRT_T0_T1_, symObjAddr: 0x2824, symBinAddr: 0x1000048B0, symSize: 0x70 }
  - { offsetInCU: 0x75D8, offset: 0x75D8, size: 0x8, addend: 0x0, symName: __ZNSt3__1neB7v160006INS_16reverse_iteratorIP9Book_infoEES4_EEbRKNS1_IT_EERKNS1_IT0_EE, symObjAddr: 0x28D0, symBinAddr: 0x10000495C, symSize: 0x60 }
  - { offsetInCU: 0x7624, offset: 0x7624, size: 0x8, addend: 0x0, symName: __ZNSt3__112__to_addressB7v160006INS_16reverse_iteratorINS1_IP9Book_infoEEEEvEENS_5decayIDTclsr19__to_address_helperIT_EE6__callclsr3stdE7declvalIRKS7_EEEEE4typeES9_, symObjAddr: 0x295C, symBinAddr: 0x1000049E8, symSize: 0x24 }
  - { offsetInCU: 0x7683, offset: 0x7683, size: 0x8, addend: 0x0, symName: __ZNSt3__119__libcpp_deallocateB7v160006EPvmm, symObjAddr: 0x2D18, symBinAddr: 0x100004DA4, symSize: 0x30 }
  - { offsetInCU: 0x76CB, offset: 0x76CB, size: 0x8, addend: 0x0, symName: __ZNSt3__127__do_deallocate_handle_sizeB7v160006IJEEEvPvmDpT_, symObjAddr: 0x2D48, symBinAddr: 0x100004DD4, symSize: 0x28 }
  - { offsetInCU: 0x7709, offset: 0x7709, size: 0x8, addend: 0x0, symName: __ZNSt3__124__libcpp_operator_deleteB7v160006IJPvEEEvDpT_, symObjAddr: 0x2D70, symBinAddr: 0x100004DFC, symSize: 0x24 }
  - { offsetInCU: 0x773E, offset: 0x773E, size: 0x8, addend: 0x0, symName: __ZNSt3__17find_ifB7v160006INS_11__wrap_iterIP9Book_infoEEZN9Inventory8findBookENS_12basic_stringIcNS_11char_traitsIcEENS_9allocatorIcEEEEEUlRS2_E_EET_SE_SE_T0_, symObjAddr: 0x2E18, symBinAddr: 0x100004EA4, symSize: 0x78 }
  - { offsetInCU: 0x7798, offset: 0x7798, size: 0x8, addend: 0x0, symName: __ZNSt3__1neB7v160006IP9Book_infoEEbRKNS_11__wrap_iterIT_EES7_, symObjAddr: 0x2EF0, symBinAddr: 0x100004F7C, symSize: 0x34 }
  - { offsetInCU: 0x77DB, offset: 0x77DB, size: 0x8, addend: 0x0, symName: __ZNSt3__1eqB7v160006INS_9allocatorIcEEEEbRKNS_12basic_stringIcNS_11char_traitsIcEET_EES9_, symObjAddr: 0x2F9C, symBinAddr: 0x100005028, symSize: 0x148 }
  - { offsetInCU: 0x784E, offset: 0x784E, size: 0x8, addend: 0x0, symName: __ZNSt3__112__to_addressB7v160006IKcEEPT_S3_, symObjAddr: 0x3228, symBinAddr: 0x1000052B4, symSize: 0x14 }
  - { offsetInCU: 0x78B6, offset: 0x78B6, size: 0x8, addend: 0x0, symName: __ZNSt3__118__constexpr_memcmpB7v160006IcEEiPKT_S3_m, symObjAddr: 0x32F4, symBinAddr: 0x100005380, symSize: 0x34 }
  - { offsetInCU: 0x7907, offset: 0x7907, size: 0x8, addend: 0x0, symName: __ZNSt3__1eqB7v160006IP9Book_infoEEbRKNS_11__wrap_iterIT_EES7_, symObjAddr: 0x33BC, symBinAddr: 0x100005448, symSize: 0x48 }
  - { offsetInCU: 0x794A, offset: 0x794A, size: 0x8, addend: 0x0, symName: __ZNSt3__19remove_ifB7v160006INS_11__wrap_iterIP9Book_infoEEZN9Inventory10removeBookENS_12basic_stringIcNS_11char_traitsIcEENS_9allocatorIcEEEEEUlRS2_E_EET_SE_SE_T0_, symObjAddr: 0x350C, symBinAddr: 0x100005598, symSize: 0xFC }
  - { offsetInCU: 0x79DC, offset: 0x79DC, size: 0x8, addend: 0x0, symName: __ZNSt3__1miB7v160006IPK9Book_infoPS1_EEDTmicldtfp_4baseEcldtfp0_4baseEERKNS_11__wrap_iterIT_EERKNS6_IT0_EE, symObjAddr: 0x3644, symBinAddr: 0x1000056D0, symSize: 0x48 }
  - { offsetInCU: 0x7A28, offset: 0x7A28, size: 0x8, addend: 0x0, symName: __ZNSt3__1neB7v160006IPK9Book_infoEEbRKNS_11__wrap_iterIT_EES8_, symObjAddr: 0x368C, symBinAddr: 0x100005718, symSize: 0x34 }
  - { offsetInCU: 0x7A6B, offset: 0x7A6B, size: 0x8, addend: 0x0, symName: __ZNSt3__14moveB7v160006IP9Book_infoS2_EET0_T_S4_S3_, symObjAddr: 0x3720, symBinAddr: 0x1000057AC, symSize: 0x40 }
  - { offsetInCU: 0x7AC5, offset: 0x7AC5, size: 0x8, addend: 0x0, symName: __ZNSt3__1miB7v160006IPK9Book_infoS3_EEDTmicldtfp_4baseEcldtfp0_4baseEERKNS_11__wrap_iterIT_EERKNS5_IT0_EE, symObjAddr: 0x3760, symBinAddr: 0x1000057EC, symSize: 0x48 }
  - { offsetInCU: 0x7B11, offset: 0x7B11, size: 0x8, addend: 0x0, symName: __ZNSt3__1eqB7v160006IPK9Book_infoEEbRKNS_11__wrap_iterIT_EES8_, symObjAddr: 0x37D4, symBinAddr: 0x100005860, symSize: 0x48 }
  - { offsetInCU: 0x7B54, offset: 0x7B54, size: 0x8, addend: 0x0, symName: __ZNSt3__16__moveB7v160006INS_17_ClassicAlgPolicyEP9Book_infoS3_S3_EENS_4pairIT0_T2_EES5_T1_S6_, symObjAddr: 0x3978, symBinAddr: 0x100005A04, symSize: 0x44 }
  - { offsetInCU: 0x7BC0, offset: 0x7BC0, size: 0x8, addend: 0x0, symName: __ZNSt3__123__dispatch_copy_or_moveB7v160006INS_17_ClassicAlgPolicyENS_11__move_loopIS1_EENS_14__move_trivialEP9Book_infoS6_S6_EENS_4pairIT2_T4_EES8_T3_S9_, symObjAddr: 0x39BC, symBinAddr: 0x100005A48, symSize: 0x44 }
  - { offsetInCU: 0x7C3E, offset: 0x7C3E, size: 0x8, addend: 0x0, symName: __ZNSt3__121__unwrap_and_dispatchB7v160006INS_10__overloadINS_11__move_loopINS_17_ClassicAlgPolicyEEENS_14__move_trivialEEEP9Book_infoS8_S8_Li0EEENS_4pairIT0_T2_EESA_T1_SB_, symObjAddr: 0x3A00, symBinAddr: 0x100005A8C, symSize: 0xB4 }
  - { offsetInCU: 0x7CCC, offset: 0x7CCC, size: 0x8, addend: 0x0, symName: __ZNSt3__114__unwrap_rangeB7v160006IP9Book_infoS2_EENS_4pairIT0_S4_EET_S6_, symObjAddr: 0x3AB4, symBinAddr: 0x100005B40, symSize: 0x60 }
  - { offsetInCU: 0x7E47, offset: 0x7E47, size: 0x8, addend: 0x0, symName: __ZNSt3__113__unwrap_iterB7v160006IP9Book_infoNS_18__unwrap_iter_implIS2_Lb1EEELi0EEEDTclsrT0_8__unwrapclsr3stdE7declvalIT_EEEES6_, symObjAddr: 0x3BA4, symBinAddr: 0x100005C30, symSize: 0x24 }
  - { offsetInCU: 0x7E8B, offset: 0x7E8B, size: 0x8, addend: 0x0, symName: __ZNSt3__19make_pairB7v160006IP9Book_infoS2_EENS_4pairINS_18__unwrap_ref_decayIT_E4typeENS4_IT0_E4typeEEEOS5_OS8_, symObjAddr: 0x3BC8, symBinAddr: 0x100005C54, symSize: 0x38 }
  - { offsetInCU: 0x7EDA, offset: 0x7EDA, size: 0x8, addend: 0x0, symName: __ZNSt3__114__rewrap_rangeB7v160006IP9Book_infoS2_EET_S3_T0_, symObjAddr: 0x3C00, symBinAddr: 0x100005C8C, symSize: 0x2C }
  - { offsetInCU: 0x7F26, offset: 0x7F26, size: 0x8, addend: 0x0, symName: __ZNSt3__113__rewrap_iterB7v160006IP9Book_infoS2_NS_18__unwrap_iter_implIS2_Lb1EEEEET_S5_T0_, symObjAddr: 0x3C2C, symBinAddr: 0x100005CB8, symSize: 0x3C }
  - { offsetInCU: 0x806B, offset: 0x806B, size: 0x8, addend: 0x0, symName: __ZNSt3__17find_ifB7v160006INS_11__wrap_iterIP9Book_infoEERZN9Inventory10removeBookENS_12basic_stringIcNS_11char_traitsIcEENS_9allocatorIcEEEEEUlRS2_E_EET_SF_SF_T0_, symObjAddr: 0x4134, symBinAddr: 0x1000061C0, symSize: 0x80 }
  - { offsetInCU: 0x80C5, offset: 0x80C5, size: 0x8, addend: 0x0, symName: __ZNSt3__118__debug_db_erase_cB7v160006INS_6vectorI9Book_infoNS_9allocatorIS2_EEEEEEvPT_, symObjAddr: 0x43E8, symBinAddr: 0x100006474, symSize: 0x10 }
  - { offsetInCU: 0x80F6, offset: 0x80F6, size: 0x8, addend: 0x0, symName: __ZNSt3__116__pad_and_outputB7v160006IcNS_11char_traitsIcEEEENS_19ostreambuf_iteratorIT_T0_EES6_PKS4_S8_S8_RNS_8ios_baseES4_, symObjAddr: 0x47A0, symBinAddr: 0x10000682C, symSize: 0x240 }
  - { offsetInCU: 0x81C5, offset: 0x81C5, size: 0x8, addend: 0x0, symName: __ZNSt3__19use_facetB7v160006INS_5ctypeIcEEEERKT_RKNS_6localeE, symObjAddr: 0x4D2C, symBinAddr: 0x100006DB8, symSize: 0x2C }
  - { offsetInCU: 0x8694, offset: 0x8694, size: 0x8, addend: 0x0, symName: __ZNSt3__118__constexpr_strlenB7v160006EPKc, symObjAddr: 0x4DC4, symBinAddr: 0x100006E50, symSize: 0x24 }
  - { offsetInCU: 0x8C4A, offset: 0x8C4A, size: 0x8, addend: 0x0, symName: __ZNSt3__17getlineB7v160006IcNS_11char_traitsIcEENS_9allocatorIcEEEERNS_13basic_istreamIT_T0_EES9_RNS_12basic_stringIS6_S7_T1_EES6_, symObjAddr: 0x4F48, symBinAddr: 0x100006FD4, symSize: 0x234 }
  - { offsetInCU: 0x8D08, offset: 0x8D08, size: 0x8, addend: 0x0, symName: __ZNSt3__125__debug_db_invalidate_allB7v160006INS_12basic_stringIcNS_11char_traitsIcEENS_9allocatorIcEEEEEEvPT_, symObjAddr: 0x52D8, symBinAddr: 0x100007364, symSize: 0x10 }
  - { offsetInCU: 0x91B4, offset: 0x91B4, size: 0x8, addend: 0x0, symName: __ZSt28__throw_bad_array_new_lengthB7v160006v, symObjAddr: 0x1D5C, symBinAddr: 0x100003DE8, symSize: 0x34 }
  - { offsetInCU: 0x97A4, offset: 0x97A4, size: 0x8, addend: 0x0, symName: __ZNSt3__16vectorI9Book_infoNS_9allocatorIS1_EEE26__swap_out_circular_bufferERNS_14__split_bufferIS1_RS3_EE, symObjAddr: 0x15D0, symBinAddr: 0x10000365C, symSize: 0x118 }
  - { offsetInCU: 0xBA9D, offset: 0xBA9D, size: 0x8, addend: 0x0, symName: _main, symObjAddr: 0x0, symBinAddr: 0x10000208C, symSize: 0x6BC }
  - { offsetInCU: 0xBBFC, offset: 0xBBFC, size: 0x8, addend: 0x0, symName: __ZN9InventoryC1Ev, symObjAddr: 0x708, symBinAddr: 0x100002794, symSize: 0x2C }
  - { offsetInCU: 0xBC27, offset: 0xBC27, size: 0x8, addend: 0x0, symName: __ZNSt3__112basic_stringIcNS_11char_traitsIcEENS_9allocatorIcEEEC1B7v160006Ev, symObjAddr: 0x90C, symBinAddr: 0x100002998, symSize: 0x2C }
  - { offsetInCU: 0xBC50, offset: 0xBC50, size: 0x8, addend: 0x0, symName: __ZNSt3__111char_traitsIcE3eofEv, symObjAddr: 0x938, symBinAddr: 0x1000029C4, symSize: 0x8 }
  - { offsetInCU: 0xBC64, offset: 0xBC64, size: 0x8, addend: 0x0, symName: __ZNKSt3__19basic_iosIcNS_11char_traitsIcEEEntB7v160006Ev, symObjAddr: 0x99C, symBinAddr: 0x100002A28, symSize: 0x28 }
  - { offsetInCU: 0xBC89, offset: 0xBC89, size: 0x8, addend: 0x0, symName: __ZNSt3__19basic_iosIcNS_11char_traitsIcEEE5clearB7v160006Ej, symObjAddr: 0x9C4, symBinAddr: 0x100002A50, symSize: 0x2C }
  - { offsetInCU: 0xBCBD, offset: 0xBCBD, size: 0x8, addend: 0x0, symName: __ZNSt3__114numeric_limitsIlE3maxB7v160006Ev, symObjAddr: 0x9F0, symBinAddr: 0x100002A7C, symSize: 0x14 }
  - { offsetInCU: 0xBCD1, offset: 0xBCD1, size: 0x8, addend: 0x0, symName: __ZN9Book_infoC1ERNSt3__112basic_stringIcNS0_11char_traitsIcEENS0_9allocatorIcEEEES7_i, symObjAddr: 0xA04, symBinAddr: 0x100002A90, symSize: 0x44 }
  - { offsetInCU: 0xBD24, offset: 0xBD24, size: 0x8, addend: 0x0, symName: __ZN9Inventory7addBookER9Book_info, symObjAddr: 0xA48, symBinAddr: 0x100002AD4, symSize: 0x2C }
  - { offsetInCU: 0xBD57, offset: 0xBD57, size: 0x8, addend: 0x0, symName: __ZN9Book_infoD1Ev, symObjAddr: 0xA74, symBinAddr: 0x100002B00, symSize: 0x2C }
  - { offsetInCU: 0xBD82, offset: 0xBD82, size: 0x8, addend: 0x0, symName: __ZN9Inventory8findBookENSt3__112basic_stringIcNS0_11char_traitsIcEENS0_9allocatorIcEEEE, symObjAddr: 0xAA0, symBinAddr: 0x100002B2C, symSize: 0xAC }
  - { offsetInCU: 0xBDEF, offset: 0xBDEF, size: 0x8, addend: 0x0, symName: __ZN9Book_info8getTitleEv, symObjAddr: 0xB98, symBinAddr: 0x100002C24, symSize: 0x14 }
  - { offsetInCU: 0xBE14, offset: 0xBE14, size: 0x8, addend: 0x0, symName: __ZN9Book_info9getAuthorEv, symObjAddr: 0xBAC, symBinAddr: 0x100002C38, symSize: 0x18 }
  - { offsetInCU: 0xBE39, offset: 0xBE39, size: 0x8, addend: 0x0, symName: __ZN9Book_info11getQuantityEv, symObjAddr: 0xBC4, symBinAddr: 0x100002C50, symSize: 0x18 }
  - { offsetInCU: 0xBE5E, offset: 0xBE5E, size: 0x8, addend: 0x0, symName: __ZN9Inventory10removeBookENSt3__112basic_stringIcNS0_11char_traitsIcEENS0_9allocatorIcEEEE, symObjAddr: 0xBDC, symBinAddr: 0x100002C68, symSize: 0xA4 }
  - { offsetInCU: 0xBEBD, offset: 0xBEBD, size: 0x8, addend: 0x0, symName: __ZN9Inventory14printInventoryEv, symObjAddr: 0xC80, symBinAddr: 0x100002D0C, symSize: 0x120 }
  - { offsetInCU: 0xBF33, offset: 0xBF33, size: 0x8, addend: 0x0, symName: __ZN9InventoryD1Ev, symObjAddr: 0xDA0, symBinAddr: 0x100002E2C, symSize: 0x2C }
  - { offsetInCU: 0xBF5E, offset: 0xBF5E, size: 0x8, addend: 0x0, symName: __ZN9InventoryC2Ev, symObjAddr: 0xDCC, symBinAddr: 0x100002E58, symSize: 0x2C }
  - { offsetInCU: 0xBF89, offset: 0xBF89, size: 0x8, addend: 0x0, symName: __ZNSt3__16vectorI9Book_infoNS_9allocatorIS1_EEEC1B7v160006Ev, symObjAddr: 0xDF8, symBinAddr: 0x100002E84, symSize: 0x2C }
  - { offsetInCU: 0xBFB2, offset: 0xBFB2, size: 0x8, addend: 0x0, symName: __ZNSt3__16vectorI9Book_infoNS_9allocatorIS1_EEEC2B7v160006Ev, symObjAddr: 0xE24, symBinAddr: 0x100002EB0, symSize: 0x58 }
  - { offsetInCU: 0xBFE5, offset: 0xBFE5, size: 0x8, addend: 0x0, symName: __ZNSt3__117__compressed_pairIP9Book_infoNS_9allocatorIS1_EEEC1B7v160006IDnNS_18__default_init_tagEEEOT_OT0_, symObjAddr: 0xE7C, symBinAddr: 0x100002F08, symSize: 0x3C }
  - { offsetInCU: 0xC03C, offset: 0xC03C, size: 0x8, addend: 0x0, symName: __ZNSt3__117__compressed_pairIP9Book_infoNS_9allocatorIS1_EEEC2B7v160006IDnNS_18__default_init_tagEEEOT_OT0_, symObjAddr: 0xED4, symBinAddr: 0x100002F60, symSize: 0x40 }
  - { offsetInCU: 0xC093, offset: 0xC093, size: 0x8, addend: 0x0, symName: __ZNSt3__122__compressed_pair_elemIP9Book_infoLi0ELb0EEC2B7v160006IDnvEEOT_, symObjAddr: 0xF14, symBinAddr: 0x100002FA0, symSize: 0x1C }
  - { offsetInCU: 0xC0D4, offset: 0xC0D4, size: 0x8, addend: 0x0, symName: __ZNSt3__122__compressed_pair_elemINS_9allocatorI9Book_infoEELi1ELb1EEC2B7v160006ENS_18__default_init_tagE, symObjAddr: 0xF30, symBinAddr: 0x100002FBC, symSize: 0x2C }
  - { offsetInCU: 0xC108, offset: 0xC108, size: 0x8, addend: 0x0, symName: __ZNSt3__19allocatorI9Book_infoEC2B7v160006Ev, symObjAddr: 0xF5C, symBinAddr: 0x100002FE8, symSize: 0x2C }
  - { offsetInCU: 0xC131, offset: 0xC131, size: 0x8, addend: 0x0, symName: __ZNSt3__116__non_trivial_ifILb1ENS_9allocatorI9Book_infoEEEC2B7v160006Ev, symObjAddr: 0xF88, symBinAddr: 0x100003014, symSize: 0x14 }
  - { offsetInCU: 0xC15A, offset: 0xC15A, size: 0x8, addend: 0x0, symName: __ZNSt3__123__libcpp_numeric_limitsIlLb1EE3maxB7v160006Ev, symObjAddr: 0xF9C, symBinAddr: 0x100003028, symSize: 0x8 }
  - { offsetInCU: 0xC16E, offset: 0xC16E, size: 0x8, addend: 0x0, symName: __ZN9Book_infoC2ERNSt3__112basic_stringIcNS0_11char_traitsIcEENS0_9allocatorIcEEEES7_i, symObjAddr: 0xFA4, symBinAddr: 0x100003030, symSize: 0x7C }
  - { offsetInCU: 0xC1C0, offset: 0xC1C0, size: 0x8, addend: 0x0, symName: __ZNSt3__16vectorI9Book_infoNS_9allocatorIS1_EEE9push_backB7v160006ERKS1_, symObjAddr: 0x1020, symBinAddr: 0x1000030AC, symSize: 0x6C }
  - { offsetInCU: 0xC1F6, offset: 0xC1F6, size: 0x8, addend: 0x0, symName: __ZNSt3__16vectorI9Book_infoNS_9allocatorIS1_EEE9__end_capB7v160006Ev, symObjAddr: 0x108C, symBinAddr: 0x100003118, symSize: 0x28 }
  - { offsetInCU: 0xC21B, offset: 0xC21B, size: 0x8, addend: 0x0, symName: __ZNSt3__16vectorI9Book_infoNS_9allocatorIS1_EEE22__construct_one_at_endB7v160006IJRKS1_EEEvDpOT_, symObjAddr: 0x10B4, symBinAddr: 0x100003140, symSize: 0x90 }
  - { offsetInCU: 0xC268, offset: 0xC268, size: 0x8, addend: 0x0, symName: __ZNSt3__16vectorI9Book_infoNS_9allocatorIS1_EEE21__push_back_slow_pathIRKS1_EEvOT_, symObjAddr: 0x1144, symBinAddr: 0x1000031D0, symSize: 0xD8 }
  - { offsetInCU: 0xC2C5, offset: 0xC2C5, size: 0x8, addend: 0x0, symName: __ZNSt3__117__compressed_pairIP9Book_infoNS_9allocatorIS1_EEE5firstB7v160006Ev, symObjAddr: 0x121C, symBinAddr: 0x1000032A8, symSize: 0x24 }
  - { offsetInCU: 0xC2EA, offset: 0xC2EA, size: 0x8, addend: 0x0, symName: __ZNSt3__122__compressed_pair_elemIP9Book_infoLi0ELb0EE5__getB7v160006Ev, symObjAddr: 0x1240, symBinAddr: 0x1000032CC, symSize: 0x14 }
  - { offsetInCU: 0xC328, offset: 0xC328, size: 0x8, addend: 0x0, symName: __ZNSt3__16vectorI9Book_infoNS_9allocatorIS1_EEE21_ConstructTransactionC1B7v160006ERS4_m, symObjAddr: 0x1254, symBinAddr: 0x1000032E0, symSize: 0x3C }
  - { offsetInCU: 0xC36F, offset: 0xC36F, size: 0x8, addend: 0x0, symName: __ZNSt3__116allocator_traitsINS_9allocatorI9Book_infoEEE9constructB7v160006IS2_JRKS2_EvEEvRS3_PT_DpOT0_, symObjAddr: 0x1290, symBinAddr: 0x10000331C, symSize: 0x34 }
  - { offsetInCU: 0xC3C6, offset: 0xC3C6, size: 0x8, addend: 0x0, symName: __ZNSt3__16vectorI9Book_infoNS_9allocatorIS1_EEE7__allocB7v160006Ev, symObjAddr: 0x12C4, symBinAddr: 0x100003350, symSize: 0x28 }
  - { offsetInCU: 0xC3EB, offset: 0xC3EB, size: 0x8, addend: 0x0, symName: __ZNSt3__16vectorI9Book_infoNS_9allocatorIS1_EEE21_ConstructTransactionD1B7v160006Ev, symObjAddr: 0x1300, symBinAddr: 0x10000338C, symSize: 0x2C }
  - { offsetInCU: 0xC414, offset: 0xC414, size: 0x8, addend: 0x0, symName: __ZNSt3__16vectorI9Book_infoNS_9allocatorIS1_EEE21_ConstructTransactionC2B7v160006ERS4_m, symObjAddr: 0x132C, symBinAddr: 0x1000033B8, symSize: 0x4C }
  - { offsetInCU: 0xC45B, offset: 0xC45B, size: 0x8, addend: 0x0, symName: __ZNSt3__19allocatorI9Book_infoE9constructB7v160006IS1_JRKS1_EEEvPT_DpOT0_, symObjAddr: 0x1378, symBinAddr: 0x100003404, symSize: 0x30 }
  - { offsetInCU: 0xC4B0, offset: 0xC4B0, size: 0x8, addend: 0x0, symName: __ZN9Book_infoC1ERKS_, symObjAddr: 0x13A8, symBinAddr: 0x100003434, symSize: 0x34 }
  - { offsetInCU: 0xC4E4, offset: 0xC4E4, size: 0x8, addend: 0x0, symName: __ZN9Book_infoC2ERKS_, symObjAddr: 0x13DC, symBinAddr: 0x100003468, symSize: 0x7C }
  - { offsetInCU: 0xC518, offset: 0xC518, size: 0x8, addend: 0x0, symName: __ZNSt3__117__compressed_pairIP9Book_infoNS_9allocatorIS1_EEE6secondB7v160006Ev, symObjAddr: 0x1458, symBinAddr: 0x1000034E4, symSize: 0x24 }
  - { offsetInCU: 0xC53D, offset: 0xC53D, size: 0x8, addend: 0x0, symName: __ZNSt3__122__compressed_pair_elemINS_9allocatorI9Book_infoEELi1ELb1EE5__getB7v160006Ev, symObjAddr: 0x147C, symBinAddr: 0x100003508, symSize: 0x14 }
  - { offsetInCU: 0xC562, offset: 0xC562, size: 0x8, addend: 0x0, symName: __ZNSt3__16vectorI9Book_infoNS_9allocatorIS1_EEE21_ConstructTransactionD2B7v160006Ev, symObjAddr: 0x1490, symBinAddr: 0x10000351C, symSize: 0x20 }
  - { offsetInCU: 0xC58A, offset: 0xC58A, size: 0x8, addend: 0x0, symName: __ZNKSt3__16vectorI9Book_infoNS_9allocatorIS1_EEE11__recommendB7v160006Em, symObjAddr: 0x14B0, symBinAddr: 0x10000353C, symSize: 0xB4 }
  - { offsetInCU: 0xC5DE, offset: 0xC5DE, size: 0x8, addend: 0x0, symName: __ZNKSt3__16vectorI9Book_infoNS_9allocatorIS1_EEE4sizeB7v160006Ev, symObjAddr: 0x1564, symBinAddr: 0x1000035F0, symSize: 0x28 }
  - { offsetInCU: 0xC603, offset: 0xC603, size: 0x8, addend: 0x0, symName: __ZNSt3__114__split_bufferI9Book_infoRNS_9allocatorIS1_EEEC1EmmS4_, symObjAddr: 0x158C, symBinAddr: 0x100003618, symSize: 0x44 }
  - { offsetInCU: 0xC658, offset: 0xC658, size: 0x8, addend: 0x0, symName: __ZNSt3__114__split_bufferI9Book_infoRNS_9allocatorIS1_EEED1Ev, symObjAddr: 0x16E8, symBinAddr: 0x100003774, symSize: 0x2C }
  - { offsetInCU: 0xC682, offset: 0xC682, size: 0x8, addend: 0x0, symName: __ZNKSt3__16vectorI9Book_infoNS_9allocatorIS1_EEE8max_sizeEv, symObjAddr: 0x1714, symBinAddr: 0x1000037A0, symSize: 0x60 }
  - { offsetInCU: 0xC6A9, offset: 0xC6A9, size: 0x8, addend: 0x0, symName: __ZNKSt3__16vectorI9Book_infoNS_9allocatorIS1_EEE20__throw_length_errorB7v160006Ev, symObjAddr: 0x1774, symBinAddr: 0x100003800, symSize: 0x1C }
  - { offsetInCU: 0xC6CE, offset: 0xC6CE, size: 0x8, addend: 0x0, symName: __ZNKSt3__16vectorI9Book_infoNS_9allocatorIS1_EEE8capacityB7v160006Ev, symObjAddr: 0x1790, symBinAddr: 0x10000381C, symSize: 0x40 }
  - { offsetInCU: 0xC6FD, offset: 0xC6FD, size: 0x8, addend: 0x0, symName: __ZNSt3__116allocator_traitsINS_9allocatorI9Book_infoEEE8max_sizeB7v160006IS3_vEEmRKS3_, symObjAddr: 0x1828, symBinAddr: 0x1000038B4, symSize: 0x24 }
  - { offsetInCU: 0xC72B, offset: 0xC72B, size: 0x8, addend: 0x0, symName: __ZNKSt3__16vectorI9Book_infoNS_9allocatorIS1_EEE7__allocB7v160006Ev, symObjAddr: 0x184C, symBinAddr: 0x1000038D8, symSize: 0x28 }
  - { offsetInCU: 0xC764, offset: 0xC764, size: 0x8, addend: 0x0, symName: __ZNKSt3__16__lessImmEclB7v160006ERKmS3_, symObjAddr: 0x18C8, symBinAddr: 0x100003954, symSize: 0x34 }
  - { offsetInCU: 0xC7A5, offset: 0xC7A5, size: 0x8, addend: 0x0, symName: __ZNKSt3__19allocatorI9Book_infoE8max_sizeB7v160006Ev, symObjAddr: 0x18FC, symBinAddr: 0x100003988, symSize: 0x20 }
  - { offsetInCU: 0xC7CA, offset: 0xC7CA, size: 0x8, addend: 0x0, symName: __ZNKSt3__117__compressed_pairIP9Book_infoNS_9allocatorIS1_EEE6secondB7v160006Ev, symObjAddr: 0x191C, symBinAddr: 0x1000039A8, symSize: 0x24 }
  - { offsetInCU: 0xC7EF, offset: 0xC7EF, size: 0x8, addend: 0x0, symName: __ZNKSt3__122__compressed_pair_elemINS_9allocatorI9Book_infoEELi1ELb1EE5__getB7v160006Ev, symObjAddr: 0x1940, symBinAddr: 0x1000039CC, symSize: 0x14 }
  - { offsetInCU: 0xC814, offset: 0xC814, size: 0x8, addend: 0x0, symName: __ZNSt12length_errorC1B7v160006EPKc, symObjAddr: 0x19B8, symBinAddr: 0x100003A44, symSize: 0x34 }
  - { offsetInCU: 0xC84B, offset: 0xC84B, size: 0x8, addend: 0x0, symName: __ZNSt12length_errorC2B7v160006EPKc, symObjAddr: 0x19EC, symBinAddr: 0x100003A78, symSize: 0x4C }
  - { offsetInCU: 0xC882, offset: 0xC882, size: 0x8, addend: 0x0, symName: __ZNKSt3__16vectorI9Book_infoNS_9allocatorIS1_EEE9__end_capB7v160006Ev, symObjAddr: 0x1A38, symBinAddr: 0x100003AC4, symSize: 0x28 }
  - { offsetInCU: 0xC8A7, offset: 0xC8A7, size: 0x8, addend: 0x0, symName: __ZNKSt3__117__compressed_pairIP9Book_infoNS_9allocatorIS1_EEE5firstB7v160006Ev, symObjAddr: 0x1A60, symBinAddr: 0x100003AEC, symSize: 0x24 }
  - { offsetInCU: 0xC8CC, offset: 0xC8CC, size: 0x8, addend: 0x0, symName: __ZNKSt3__122__compressed_pair_elemIP9Book_infoLi0ELb0EE5__getB7v160006Ev, symObjAddr: 0x1A84, symBinAddr: 0x100003B10, symSize: 0x14 }
  - { offsetInCU: 0xC8F1, offset: 0xC8F1, size: 0x8, addend: 0x0, symName: __ZNSt3__114__split_bufferI9Book_infoRNS_9allocatorIS1_EEEC2EmmS4_, symObjAddr: 0x1AEC, symBinAddr: 0x100003B78, symSize: 0xE0 }
  - { offsetInCU: 0xC963, offset: 0xC963, size: 0x8, addend: 0x0, symName: __ZNSt3__117__compressed_pairIP9Book_infoRNS_9allocatorIS1_EEEC1B7v160006IDnS5_EEOT_OT0_, symObjAddr: 0x1BCC, symBinAddr: 0x100003C58, symSize: 0x3C }
  - { offsetInCU: 0xC9BA, offset: 0xC9BA, size: 0x8, addend: 0x0, symName: __ZNSt3__114__split_bufferI9Book_infoRNS_9allocatorIS1_EEE7__allocB7v160006Ev, symObjAddr: 0x1C48, symBinAddr: 0x100003CD4, symSize: 0x28 }
  - { offsetInCU: 0xC9DF, offset: 0xC9DF, size: 0x8, addend: 0x0, symName: __ZNSt3__114__split_bufferI9Book_infoRNS_9allocatorIS1_EEE9__end_capB7v160006Ev, symObjAddr: 0x1C70, symBinAddr: 0x100003CFC, symSize: 0x28 }
  - { offsetInCU: 0xCA04, offset: 0xCA04, size: 0x8, addend: 0x0, symName: __ZNSt3__117__compressed_pairIP9Book_infoRNS_9allocatorIS1_EEEC2B7v160006IDnS5_EEOT_OT0_, symObjAddr: 0x1C98, symBinAddr: 0x100003D24, symSize: 0x48 }
  - { offsetInCU: 0xCA5B, offset: 0xCA5B, size: 0x8, addend: 0x0, symName: __ZNSt3__122__compressed_pair_elemIRNS_9allocatorI9Book_infoEELi1ELb0EEC2B7v160006IS4_vEEOT_, symObjAddr: 0x1CE0, symBinAddr: 0x100003D6C, symSize: 0x20 }
  - { offsetInCU: 0xCA9C, offset: 0xCA9C, size: 0x8, addend: 0x0, symName: __ZNSt3__19allocatorI9Book_infoE8allocateB7v160006Em, symObjAddr: 0x1D00, symBinAddr: 0x100003D8C, symSize: 0x5C }
  - { offsetInCU: 0xCACF, offset: 0xCACF, size: 0x8, addend: 0x0, symName: __ZNSt3__117__compressed_pairIP9Book_infoRNS_9allocatorIS1_EEE6secondB7v160006Ev, symObjAddr: 0x1DDC, symBinAddr: 0x100003E68, symSize: 0x28 }
  - { offsetInCU: 0xCAF4, offset: 0xCAF4, size: 0x8, addend: 0x0, symName: __ZNSt3__122__compressed_pair_elemIRNS_9allocatorI9Book_infoEELi1ELb0EE5__getB7v160006Ev, symObjAddr: 0x1E04, symBinAddr: 0x100003E90, symSize: 0x18 }
  - { offsetInCU: 0xCB19, offset: 0xCB19, size: 0x8, addend: 0x0, symName: __ZNSt3__117__compressed_pairIP9Book_infoRNS_9allocatorIS1_EEE5firstB7v160006Ev, symObjAddr: 0x1E1C, symBinAddr: 0x100003EA8, symSize: 0x24 }
  - { offsetInCU: 0xCB3E, offset: 0xCB3E, size: 0x8, addend: 0x0, symName: __ZNKSt3__16vectorI9Book_infoNS_9allocatorIS1_EEE17__annotate_deleteB7v160006Ev, symObjAddr: 0x1E40, symBinAddr: 0x100003ECC, symSize: 0xD4 }
  - { offsetInCU: 0xCB63, offset: 0xCB63, size: 0x8, addend: 0x0, symName: __ZNSt3__116reverse_iteratorIP9Book_infoEC1B7v160006ES2_, symObjAddr: 0x2040, symBinAddr: 0x1000040CC, symSize: 0x34 }
  - { offsetInCU: 0xCB9A, offset: 0xCB9A, size: 0x8, addend: 0x0, symName: __ZNKSt3__116reverse_iteratorIP9Book_infoE4baseB7v160006Ev, symObjAddr: 0x2074, symBinAddr: 0x100004100, symSize: 0x18 }
  - { offsetInCU: 0xCBBF, offset: 0xCBBF, size: 0x8, addend: 0x0, symName: __ZNKSt3__16vectorI9Book_infoNS_9allocatorIS1_EEE14__annotate_newB7v160006Em, symObjAddr: 0x20C8, symBinAddr: 0x100004154, symSize: 0xC8 }
  - { offsetInCU: 0xCBF3, offset: 0xCBF3, size: 0x8, addend: 0x0, symName: __ZNKSt3__16vectorI9Book_infoNS_9allocatorIS1_EEE31__annotate_contiguous_containerB7v160006EPKvS6_S6_S6_, symObjAddr: 0x21A0, symBinAddr: 0x10000422C, symSize: 0x20 }
  - { offsetInCU: 0xCC48, offset: 0xCC48, size: 0x8, addend: 0x0, symName: __ZNKSt3__16vectorI9Book_infoNS_9allocatorIS1_EEE4dataB7v160006Ev, symObjAddr: 0x21C0, symBinAddr: 0x10000424C, symSize: 0x28 }
  - { offsetInCU: 0xCC6D, offset: 0xCC6D, size: 0x8, addend: 0x0, symName: __ZNSt3__129_AllocatorDestroyRangeReverseINS_9allocatorI9Book_infoEENS_16reverse_iteratorIPS2_EEEC1B7v160006ERS3_RS6_S9_, symObjAddr: 0x2234, symBinAddr: 0x1000042C0, symSize: 0x44 }
  - { offsetInCU: 0xCCC8, offset: 0xCCC8, size: 0x8, addend: 0x0, symName: __ZNSt3__116allocator_traitsINS_9allocatorI9Book_infoEEE9constructB7v160006IS2_JS2_EvEEvRS3_PT_DpOT0_, symObjAddr: 0x22C0, symBinAddr: 0x10000434C, symSize: 0x34 }
  - { offsetInCU: 0xCD1F, offset: 0xCD1F, size: 0x8, addend: 0x0, symName: __ZNKSt3__116reverse_iteratorIP9Book_infoEdeB7v160006Ev, symObjAddr: 0x2318, symBinAddr: 0x1000043A4, symSize: 0x28 }
  - { offsetInCU: 0xCD52, offset: 0xCD52, size: 0x8, addend: 0x0, symName: __ZNSt3__116reverse_iteratorIP9Book_infoEppB7v160006Ev, symObjAddr: 0x2340, symBinAddr: 0x1000043CC, symSize: 0x20 }
  - { offsetInCU: 0xCD77, offset: 0xCD77, size: 0x8, addend: 0x0, symName: __ZNSt3__128__exception_guard_exceptionsINS_29_AllocatorDestroyRangeReverseINS_9allocatorI9Book_infoEENS_16reverse_iteratorIPS3_EEEEE10__completeB7v160006Ev, symObjAddr: 0x2360, symBinAddr: 0x1000043EC, symSize: 0x1C }
  - { offsetInCU: 0xCD9C, offset: 0xCD9C, size: 0x8, addend: 0x0, symName: __ZNSt3__128__exception_guard_exceptionsINS_29_AllocatorDestroyRangeReverseINS_9allocatorI9Book_infoEENS_16reverse_iteratorIPS3_EEEEED1B7v160006Ev, symObjAddr: 0x237C, symBinAddr: 0x100004408, symSize: 0x2C }
  - { offsetInCU: 0xCDC5, offset: 0xCDC5, size: 0x8, addend: 0x0, symName: __ZNSt3__128__exception_guard_exceptionsINS_29_AllocatorDestroyRangeReverseINS_9allocatorI9Book_infoEENS_16reverse_iteratorIPS3_EEEEEC1B7v160006ES8_, symObjAddr: 0x23A8, symBinAddr: 0x100004434, symSize: 0x34 }
  - { offsetInCU: 0xCDFD, offset: 0xCDFD, size: 0x8, addend: 0x0, symName: __ZNSt3__128__exception_guard_exceptionsINS_29_AllocatorDestroyRangeReverseINS_9allocatorI9Book_infoEENS_16reverse_iteratorIPS3_EEEEEC2B7v160006ES8_, symObjAddr: 0x23DC, symBinAddr: 0x100004468, symSize: 0x30 }
  - { offsetInCU: 0xCE35, offset: 0xCE35, size: 0x8, addend: 0x0, symName: __ZNSt3__129_AllocatorDestroyRangeReverseINS_9allocatorI9Book_infoEENS_16reverse_iteratorIPS2_EEEC2B7v160006ERS3_RS6_S9_, symObjAddr: 0x240C, symBinAddr: 0x100004498, symSize: 0x38 }
  - { offsetInCU: 0xCE8B, offset: 0xCE8B, size: 0x8, addend: 0x0, symName: __ZNSt3__19allocatorI9Book_infoE9constructB7v160006IS1_JS1_EEEvPT_DpOT0_, symObjAddr: 0x2444, symBinAddr: 0x1000044D0, symSize: 0x30 }
  - { offsetInCU: 0xCEE0, offset: 0xCEE0, size: 0x8, addend: 0x0, symName: __ZN9Book_infoC1EOS_, symObjAddr: 0x2474, symBinAddr: 0x100004500, symSize: 0x34 }
  - { offsetInCU: 0xCF14, offset: 0xCF14, size: 0x8, addend: 0x0, symName: __ZN9Book_infoC2EOS_, symObjAddr: 0x24A8, symBinAddr: 0x100004534, symSize: 0x54 }
  - { offsetInCU: 0xCF48, offset: 0xCF48, size: 0x8, addend: 0x0, symName: __ZNSt3__112basic_stringIcNS_11char_traitsIcEENS_9allocatorIcEEEC1B7v160006EOS5_, symObjAddr: 0x24FC, symBinAddr: 0x100004588, symSize: 0x34 }
  - { offsetInCU: 0xCF80, offset: 0xCF80, size: 0x8, addend: 0x0, symName: __ZNSt3__112basic_stringIcNS_11char_traitsIcEENS_9allocatorIcEEEC2B7v160006EOS5_, symObjAddr: 0x2530, symBinAddr: 0x1000045BC, symSize: 0x88 }
  - { offsetInCU: 0xCFB8, offset: 0xCFB8, size: 0x8, addend: 0x0, symName: __ZNSt3__112basic_stringIcNS_11char_traitsIcEENS_9allocatorIcEEE14__default_initB7v160006Ev, symObjAddr: 0x25B8, symBinAddr: 0x100004644, symSize: 0x40 }
  - { offsetInCU: 0xCFDD, offset: 0xCFDD, size: 0x8, addend: 0x0, symName: __ZNKSt3__112basic_stringIcNS_11char_traitsIcEENS_9allocatorIcEEE9__is_longB7v160006Ev, symObjAddr: 0x2608, symBinAddr: 0x100004694, symSize: 0x38 }
  - { offsetInCU: 0xD002, offset: 0xD002, size: 0x8, addend: 0x0, symName: __ZNSt3__117__compressed_pairINS_12basic_stringIcNS_11char_traitsIcEENS_9allocatorIcEEE5__repES5_E5firstB7v160006Ev, symObjAddr: 0x2654, symBinAddr: 0x1000046E0, symSize: 0x24 }
  - { offsetInCU: 0xD027, offset: 0xD027, size: 0x8, addend: 0x0, symName: __ZNSt3__122__compressed_pair_elemINS_12basic_stringIcNS_11char_traitsIcEENS_9allocatorIcEEE5__repELi0ELb0EE5__getB7v160006Ev, symObjAddr: 0x2678, symBinAddr: 0x100004704, symSize: 0x14 }
  - { offsetInCU: 0xD04C, offset: 0xD04C, size: 0x8, addend: 0x0, symName: __ZNKSt3__117__compressed_pairINS_12basic_stringIcNS_11char_traitsIcEENS_9allocatorIcEEE5__repES5_E5firstB7v160006Ev, symObjAddr: 0x268C, symBinAddr: 0x100004718, symSize: 0x24 }
  - { offsetInCU: 0xD071, offset: 0xD071, size: 0x8, addend: 0x0, symName: __ZNKSt3__122__compressed_pair_elemINS_12basic_stringIcNS_11char_traitsIcEENS_9allocatorIcEEE5__repELi0ELb0EE5__getB7v160006Ev, symObjAddr: 0x26B0, symBinAddr: 0x10000473C, symSize: 0x14 }
  - { offsetInCU: 0xD09B, offset: 0xD09B, size: 0x8, addend: 0x0, symName: __ZNSt3__119__to_address_helperINS_16reverse_iteratorIP9Book_infoEEvE6__callB7v160006ERKS4_, symObjAddr: 0x26C4, symBinAddr: 0x100004750, symSize: 0x38 }
  - { offsetInCU: 0xD0BE, offset: 0xD0BE, size: 0x8, addend: 0x0, symName: __ZNKSt3__116reverse_iteratorIP9Book_infoEptB7v160006Ev, symObjAddr: 0x26FC, symBinAddr: 0x100004788, symSize: 0x24 }
  - { offsetInCU: 0xD0E3, offset: 0xD0E3, size: 0x8, addend: 0x0, symName: __ZNSt3__128__exception_guard_exceptionsINS_29_AllocatorDestroyRangeReverseINS_9allocatorI9Book_infoEENS_16reverse_iteratorIPS3_EEEEED2B7v160006Ev, symObjAddr: 0x2720, symBinAddr: 0x1000047AC, symSize: 0x50 }
  - { offsetInCU: 0xD10C, offset: 0xD10C, size: 0x8, addend: 0x0, symName: __ZNKSt3__129_AllocatorDestroyRangeReverseINS_9allocatorI9Book_infoEENS_16reverse_iteratorIPS2_EEEclB7v160006Ev, symObjAddr: 0x2770, symBinAddr: 0x1000047FC, symSize: 0xB4 }
  - { offsetInCU: 0xD132, offset: 0xD132, size: 0x8, addend: 0x0, symName: __ZNSt3__116reverse_iteratorINS0_IP9Book_infoEEEC1B7v160006ES3_, symObjAddr: 0x2894, symBinAddr: 0x100004920, symSize: 0x3C }
  - { offsetInCU: 0xD169, offset: 0xD169, size: 0x8, addend: 0x0, symName: __ZNSt3__116allocator_traitsINS_9allocatorI9Book_infoEEE7destroyB7v160006IS2_vEEvRS3_PT_, symObjAddr: 0x2930, symBinAddr: 0x1000049BC, symSize: 0x2C }
  - { offsetInCU: 0xD1A6, offset: 0xD1A6, size: 0x8, addend: 0x0, symName: __ZNSt3__116reverse_iteratorINS0_IP9Book_infoEEEppB7v160006Ev, symObjAddr: 0x2980, symBinAddr: 0x100004A0C, symSize: 0x30 }
  - { offsetInCU: 0xD1CB, offset: 0xD1CB, size: 0x8, addend: 0x0, symName: __ZNKSt3__116reverse_iteratorINS0_IP9Book_infoEEE4baseB7v160006Ev, symObjAddr: 0x29B0, symBinAddr: 0x100004A3C, symSize: 0x24 }
  - { offsetInCU: 0xD1F0, offset: 0xD1F0, size: 0x8, addend: 0x0, symName: __ZNSt3__19allocatorI9Book_infoE7destroyB7v160006EPS1_, symObjAddr: 0x29D4, symBinAddr: 0x100004A60, symSize: 0x28 }
  - { offsetInCU: 0xD228, offset: 0xD228, size: 0x8, addend: 0x0, symName: __ZNSt3__119__to_address_helperINS_16reverse_iteratorINS1_IP9Book_infoEEEEvE6__callB7v160006ERKS5_, symObjAddr: 0x29FC, symBinAddr: 0x100004A88, symSize: 0x38 }
  - { offsetInCU: 0xD24B, offset: 0xD24B, size: 0x8, addend: 0x0, symName: __ZNKSt3__116reverse_iteratorINS0_IP9Book_infoEEEptB7v160006Ev, symObjAddr: 0x2A34, symBinAddr: 0x100004AC0, symSize: 0x24 }
  - { offsetInCU: 0xD270, offset: 0xD270, size: 0x8, addend: 0x0, symName: __ZNKSt3__116reverse_iteratorINS0_IP9Book_infoEEEdeB7v160006Ev, symObjAddr: 0x2A58, symBinAddr: 0x100004AE4, symSize: 0x34 }
  - { offsetInCU: 0xD2A3, offset: 0xD2A3, size: 0x8, addend: 0x0, symName: __ZNSt3__116reverse_iteratorIP9Book_infoEmmB7v160006Ev, symObjAddr: 0x2A8C, symBinAddr: 0x100004B18, symSize: 0x20 }
  - { offsetInCU: 0xD2C8, offset: 0xD2C8, size: 0x8, addend: 0x0, symName: __ZNSt3__116reverse_iteratorINS0_IP9Book_infoEEEC2B7v160006ES3_, symObjAddr: 0x2AAC, symBinAddr: 0x100004B38, symSize: 0x2C }
  - { offsetInCU: 0xD2FF, offset: 0xD2FF, size: 0x8, addend: 0x0, symName: __ZNSt3__116reverse_iteratorIP9Book_infoEC2B7v160006ES2_, symObjAddr: 0x2AD8, symBinAddr: 0x100004B64, symSize: 0x28 }
  - { offsetInCU: 0xD336, offset: 0xD336, size: 0x8, addend: 0x0, symName: __ZNSt3__114__split_bufferI9Book_infoRNS_9allocatorIS1_EEED2Ev, symObjAddr: 0x2B00, symBinAddr: 0x100004B8C, symSize: 0x8C }
  - { offsetInCU: 0xD361, offset: 0xD361, size: 0x8, addend: 0x0, symName: __ZNSt3__114__split_bufferI9Book_infoRNS_9allocatorIS1_EEE5clearB7v160006Ev, symObjAddr: 0x2B8C, symBinAddr: 0x100004C18, symSize: 0x28 }
  - { offsetInCU: 0xD386, offset: 0xD386, size: 0x8, addend: 0x0, symName: __ZNSt3__116allocator_traitsINS_9allocatorI9Book_infoEEE10deallocateB7v160006ERS3_PS2_m, symObjAddr: 0x2BB4, symBinAddr: 0x100004C40, symSize: 0x34 }
  - { offsetInCU: 0xD3C8, offset: 0xD3C8, size: 0x8, addend: 0x0, symName: __ZNKSt3__114__split_bufferI9Book_infoRNS_9allocatorIS1_EEE8capacityB7v160006Ev, symObjAddr: 0x2BE8, symBinAddr: 0x100004C74, symSize: 0x40 }
  - { offsetInCU: 0xD3ED, offset: 0xD3ED, size: 0x8, addend: 0x0, symName: __ZNSt3__114__split_bufferI9Book_infoRNS_9allocatorIS1_EEE17__destruct_at_endB7v160006EPS1_, symObjAddr: 0x2C28, symBinAddr: 0x100004CB4, symSize: 0x2C }
  - { offsetInCU: 0xD41F, offset: 0xD41F, size: 0x8, addend: 0x0, symName: __ZNSt3__114__split_bufferI9Book_infoRNS_9allocatorIS1_EEE17__destruct_at_endB7v160006EPS1_NS_17integral_constantIbLb0EEE, symObjAddr: 0x2C54, symBinAddr: 0x100004CE0, symSize: 0x80 }
  - { offsetInCU: 0xD45F, offset: 0xD45F, size: 0x8, addend: 0x0, symName: __ZNSt3__19allocatorI9Book_infoE10deallocateB7v160006EPS1_m, symObjAddr: 0x2CD4, symBinAddr: 0x100004D60, symSize: 0x44 }
  - { offsetInCU: 0xD4A0, offset: 0xD4A0, size: 0x8, addend: 0x0, symName: __ZNKSt3__114__split_bufferI9Book_infoRNS_9allocatorIS1_EEE9__end_capB7v160006Ev, symObjAddr: 0x2D94, symBinAddr: 0x100004E20, symSize: 0x28 }
  - { offsetInCU: 0xD4C5, offset: 0xD4C5, size: 0x8, addend: 0x0, symName: __ZNKSt3__117__compressed_pairIP9Book_infoRNS_9allocatorIS1_EEE5firstB7v160006Ev, symObjAddr: 0x2DBC, symBinAddr: 0x100004E48, symSize: 0x24 }
  - { offsetInCU: 0xD4EA, offset: 0xD4EA, size: 0x8, addend: 0x0, symName: __ZN9Book_infoD2Ev, symObjAddr: 0x2DE0, symBinAddr: 0x100004E6C, symSize: 0x38 }
  - { offsetInCU: 0xD514, offset: 0xD514, size: 0x8, addend: 0x0, symName: __ZNSt3__16vectorI9Book_infoNS_9allocatorIS1_EEE5beginB7v160006Ev, symObjAddr: 0x2E90, symBinAddr: 0x100004F1C, symSize: 0x30 }
  - { offsetInCU: 0xD53A, offset: 0xD53A, size: 0x8, addend: 0x0, symName: __ZNSt3__16vectorI9Book_infoNS_9allocatorIS1_EEE3endB7v160006Ev, symObjAddr: 0x2EC0, symBinAddr: 0x100004F4C, symSize: 0x30 }
  - { offsetInCU: 0xD561, offset: 0xD561, size: 0x8, addend: 0x0, symName: __ZNKSt3__111__wrap_iterIP9Book_infoEdeB7v160006Ev, symObjAddr: 0x2F24, symBinAddr: 0x100004FB0, symSize: 0x18 }
  - { offsetInCU: 0xD590, offset: 0xD590, size: 0x8, addend: 0x0, symName: __ZZN9Inventory8findBookENSt3__112basic_stringIcNS0_11char_traitsIcEENS0_9allocatorIcEEEEENKUlR9Book_infoE_clES8_, symObjAddr: 0x2F3C, symBinAddr: 0x100004FC8, symSize: 0x40 }
  - { offsetInCU: 0xD5C7, offset: 0xD5C7, size: 0x8, addend: 0x0, symName: __ZNSt3__111__wrap_iterIP9Book_infoEppB7v160006Ev, symObjAddr: 0x2F7C, symBinAddr: 0x100005008, symSize: 0x20 }
  - { offsetInCU: 0xD5EC, offset: 0xD5EC, size: 0x8, addend: 0x0, symName: __ZNKSt3__112basic_stringIcNS_11char_traitsIcEENS_9allocatorIcEEE4sizeB7v160006Ev, symObjAddr: 0x30E4, symBinAddr: 0x100005170, symSize: 0x54 }
  - { offsetInCU: 0xD611, offset: 0xD611, size: 0x8, addend: 0x0, symName: __ZNKSt3__112basic_stringIcNS_11char_traitsIcEENS_9allocatorIcEEE4dataB7v160006Ev, symObjAddr: 0x3138, symBinAddr: 0x1000051C4, symSize: 0x28 }
  - { offsetInCU: 0xD636, offset: 0xD636, size: 0x8, addend: 0x0, symName: __ZNSt3__111char_traitsIcE7compareEPKcS3_m, symObjAddr: 0x3160, symBinAddr: 0x1000051EC, symSize: 0x6C }
  - { offsetInCU: 0xD675, offset: 0xD675, size: 0x8, addend: 0x0, symName: __ZNKSt3__112basic_stringIcNS_11char_traitsIcEENS_9allocatorIcEEE15__get_long_sizeB7v160006Ev, symObjAddr: 0x31CC, symBinAddr: 0x100005258, symSize: 0x28 }
  - { offsetInCU: 0xD69A, offset: 0xD69A, size: 0x8, addend: 0x0, symName: __ZNKSt3__112basic_stringIcNS_11char_traitsIcEENS_9allocatorIcEEE16__get_short_sizeB7v160006Ev, symObjAddr: 0x31F4, symBinAddr: 0x100005280, symSize: 0x34 }
  - { offsetInCU: 0xD6BF, offset: 0xD6BF, size: 0x8, addend: 0x0, symName: __ZNKSt3__112basic_stringIcNS_11char_traitsIcEENS_9allocatorIcEEE13__get_pointerB7v160006Ev, symObjAddr: 0x323C, symBinAddr: 0x1000052C8, symSize: 0x54 }
  - { offsetInCU: 0xD6E4, offset: 0xD6E4, size: 0x8, addend: 0x0, symName: __ZNKSt3__112basic_stringIcNS_11char_traitsIcEENS_9allocatorIcEEE18__get_long_pointerB7v160006Ev, symObjAddr: 0x3290, symBinAddr: 0x10000531C, symSize: 0x28 }
  - { offsetInCU: 0xD709, offset: 0xD709, size: 0x8, addend: 0x0, symName: __ZNKSt3__112basic_stringIcNS_11char_traitsIcEENS_9allocatorIcEEE19__get_short_pointerB7v160006Ev, symObjAddr: 0x32B8, symBinAddr: 0x100005344, symSize: 0x28 }
  - { offsetInCU: 0xD72E, offset: 0xD72E, size: 0x8, addend: 0x0, symName: __ZNSt3__114pointer_traitsIPKcE10pointer_toB7v160006ERS1_, symObjAddr: 0x32E0, symBinAddr: 0x10000536C, symSize: 0x14 }
  - { offsetInCU: 0xD751, offset: 0xD751, size: 0x8, addend: 0x0, symName: __ZNSt3__16vectorI9Book_infoNS_9allocatorIS1_EEE11__make_iterB7v160006EPS1_, symObjAddr: 0x3328, symBinAddr: 0x1000053B4, symSize: 0x34 }
  - { offsetInCU: 0xD785, offset: 0xD785, size: 0x8, addend: 0x0, symName: __ZNSt3__111__wrap_iterIP9Book_infoEC1B7v160006EPKvS2_, symObjAddr: 0x335C, symBinAddr: 0x1000053E8, symSize: 0x3C }
  - { offsetInCU: 0xD7CA, offset: 0xD7CA, size: 0x8, addend: 0x0, symName: __ZNSt3__111__wrap_iterIP9Book_infoEC2B7v160006EPKvS2_, symObjAddr: 0x3398, symBinAddr: 0x100005424, symSize: 0x24 }
  - { offsetInCU: 0xD80F, offset: 0xD80F, size: 0x8, addend: 0x0, symName: __ZNKSt3__111__wrap_iterIP9Book_infoE4baseB7v160006Ev, symObjAddr: 0x3404, symBinAddr: 0x100005490, symSize: 0x18 }
  - { offsetInCU: 0xD833, offset: 0xD833, size: 0x8, addend: 0x0, symName: __ZNSt3__16vectorI9Book_infoNS_9allocatorIS1_EEE5eraseENS_11__wrap_iterIPKS1_EES8_, symObjAddr: 0x341C, symBinAddr: 0x1000054A8, symSize: 0xF0 }
  - { offsetInCU: 0xD891, offset: 0xD891, size: 0x8, addend: 0x0, symName: __ZNSt3__111__wrap_iterIPK9Book_infoEC1B7v160006IPS1_EERKNS0_IT_EEPNS_9enable_ifIXsr14is_convertibleIS7_S3_EE5valueEvE4typeE, symObjAddr: 0x3608, symBinAddr: 0x100005694, symSize: 0x3C }
  - { offsetInCU: 0xD8DC, offset: 0xD8DC, size: 0x8, addend: 0x0, symName: __ZNSt3__16vectorI9Book_infoNS_9allocatorIS1_EEE17__destruct_at_endB7v160006EPS1_, symObjAddr: 0x36C0, symBinAddr: 0x10000574C, symSize: 0x60 }
  - { offsetInCU: 0xD91F, offset: 0xD91F, size: 0x8, addend: 0x0, symName: __ZNSt3__16vectorI9Book_infoNS_9allocatorIS1_EEE27__invalidate_iterators_pastB7v160006EPS1_, symObjAddr: 0x37A8, symBinAddr: 0x100005834, symSize: 0x14 }
  - { offsetInCU: 0xD955, offset: 0xD955, size: 0x8, addend: 0x0, symName: __ZNKSt3__111__wrap_iterIPK9Book_infoE4baseB7v160006Ev, symObjAddr: 0x37BC, symBinAddr: 0x100005848, symSize: 0x18 }
  - { offsetInCU: 0xD97A, offset: 0xD97A, size: 0x8, addend: 0x0, symName: __ZNSt3__16vectorI9Book_infoNS_9allocatorIS1_EEE22__base_destruct_at_endB7v160006EPS1_, symObjAddr: 0x381C, symBinAddr: 0x1000058A8, symSize: 0x8C }
  - { offsetInCU: 0xD9BD, offset: 0xD9BD, size: 0x8, addend: 0x0, symName: __ZNKSt3__16vectorI9Book_infoNS_9allocatorIS1_EEE17__annotate_shrinkB7v160006Em, symObjAddr: 0x38A8, symBinAddr: 0x100005934, symSize: 0xD0 }
  - { offsetInCU: 0xDA14, offset: 0xDA14, size: 0x8, addend: 0x0, symName: __ZNKSt3__111__move_loopINS_17_ClassicAlgPolicyEEclB7v160006IP9Book_infoS5_S5_EENS_4pairIT_T1_EES7_T0_S8_, symObjAddr: 0x3B14, symBinAddr: 0x100005BA0, symSize: 0x90 }
  - { offsetInCU: 0xDA7E, offset: 0xDA7E, size: 0x8, addend: 0x0, symName: __ZNSt3__18_IterOpsINS_17_ClassicAlgPolicyEE11__iter_moveB7v160006IRP9Book_infoEENS_9enable_ifIXsr12is_referenceIDTdeclsr3stdE7declvalIRT_EEEEE5valueEDTclsr3stdE4movedeclsr3stdE7declvalIS9_EEEEE4typeEOS8_, symObjAddr: 0x3C68, symBinAddr: 0x100005CF4, symSize: 0x28 }
  - { offsetInCU: 0xDAAA, offset: 0xDAAA, size: 0x8, addend: 0x0, symName: __ZN9Book_infoaSEOS_, symObjAddr: 0x3C90, symBinAddr: 0x100005D1C, symSize: 0x54 }
  - { offsetInCU: 0xDADA, offset: 0xDADA, size: 0x8, addend: 0x0, symName: __ZNSt3__18_IterOpsINS_17_ClassicAlgPolicyEE25__validate_iter_referenceB7v160006IRP9Book_infoEEvv, symObjAddr: 0x3CE4, symBinAddr: 0x100005D70, symSize: 0x4 }
  - { offsetInCU: 0xDAF8, offset: 0xDAF8, size: 0x8, addend: 0x0, symName: __ZNSt3__112basic_stringIcNS_11char_traitsIcEENS_9allocatorIcEEEaSB7v160006EOS5_, symObjAddr: 0x3CE8, symBinAddr: 0x100005D74, symSize: 0x34 }
  - { offsetInCU: 0xDB2B, offset: 0xDB2B, size: 0x8, addend: 0x0, symName: __ZNSt3__112basic_stringIcNS_11char_traitsIcEENS_9allocatorIcEEE13__move_assignB7v160006ERS5_NS_17integral_constantIbLb1EEE, symObjAddr: 0x3D1C, symBinAddr: 0x100005DA8, symSize: 0xC8 }
  - { offsetInCU: 0xDB6D, offset: 0xDB6D, size: 0x8, addend: 0x0, symName: __ZNSt3__116allocator_traitsINS_9allocatorIcEEE10deallocateB7v160006ERS2_Pcm, symObjAddr: 0x3DE4, symBinAddr: 0x100005E70, symSize: 0x34 }
  - { offsetInCU: 0xDBAF, offset: 0xDBAF, size: 0x8, addend: 0x0, symName: __ZNSt3__112basic_stringIcNS_11char_traitsIcEENS_9allocatorIcEEE7__allocB7v160006Ev, symObjAddr: 0x3E18, symBinAddr: 0x100005EA4, symSize: 0x24 }
  - { offsetInCU: 0xDBD4, offset: 0xDBD4, size: 0x8, addend: 0x0, symName: __ZNSt3__112basic_stringIcNS_11char_traitsIcEENS_9allocatorIcEEE18__get_long_pointerB7v160006Ev, symObjAddr: 0x3E3C, symBinAddr: 0x100005EC8, symSize: 0x28 }
  - { offsetInCU: 0xDBF9, offset: 0xDBF9, size: 0x8, addend: 0x0, symName: __ZNKSt3__112basic_stringIcNS_11char_traitsIcEENS_9allocatorIcEEE14__get_long_capB7v160006Ev, symObjAddr: 0x3E64, symBinAddr: 0x100005EF0, symSize: 0x30 }
  - { offsetInCU: 0xDC1E, offset: 0xDC1E, size: 0x8, addend: 0x0, symName: __ZNSt3__112basic_stringIcNS_11char_traitsIcEENS_9allocatorIcEEE19__move_assign_allocB7v160006ERS5_, symObjAddr: 0x3E94, symBinAddr: 0x100005F20, symSize: 0x2C }
  - { offsetInCU: 0xDC52, offset: 0xDC52, size: 0x8, addend: 0x0, symName: __ZNSt3__112basic_stringIcNS_11char_traitsIcEENS_9allocatorIcEEE16__set_short_sizeB7v160006Em, symObjAddr: 0x3EC0, symBinAddr: 0x100005F4C, symSize: 0x78 }
  - { offsetInCU: 0xDC86, offset: 0xDC86, size: 0x8, addend: 0x0, symName: __ZNSt3__111char_traitsIcE6assignERcRKc, symObjAddr: 0x3F38, symBinAddr: 0x100005FC4, symSize: 0x24 }
  - { offsetInCU: 0xDCB7, offset: 0xDCB7, size: 0x8, addend: 0x0, symName: __ZNSt3__112basic_stringIcNS_11char_traitsIcEENS_9allocatorIcEEE19__get_short_pointerB7v160006Ev, symObjAddr: 0x3F5C, symBinAddr: 0x100005FE8, symSize: 0x28 }
  - { offsetInCU: 0xDCDC, offset: 0xDCDC, size: 0x8, addend: 0x0, symName: __ZNSt3__19allocatorIcE10deallocateB7v160006EPcm, symObjAddr: 0x3F84, symBinAddr: 0x100006010, symSize: 0x40 }
  - { offsetInCU: 0xDD1D, offset: 0xDD1D, size: 0x8, addend: 0x0, symName: __ZNSt3__117__compressed_pairINS_12basic_stringIcNS_11char_traitsIcEENS_9allocatorIcEEE5__repES5_E6secondB7v160006Ev, symObjAddr: 0x3FC4, symBinAddr: 0x100006050, symSize: 0x24 }
  - { offsetInCU: 0xDD42, offset: 0xDD42, size: 0x8, addend: 0x0, symName: __ZNSt3__122__compressed_pair_elemINS_9allocatorIcEELi1ELb1EE5__getB7v160006Ev, symObjAddr: 0x3FE8, symBinAddr: 0x100006074, symSize: 0x14 }
  - { offsetInCU: 0xDD67, offset: 0xDD67, size: 0x8, addend: 0x0, symName: __ZNSt3__112basic_stringIcNS_11char_traitsIcEENS_9allocatorIcEEE19__move_assign_allocB7v160006ERS5_NS_17integral_constantIbLb1EEE, symObjAddr: 0x3FFC, symBinAddr: 0x100006088, symSize: 0x38 }
  - { offsetInCU: 0xDDA7, offset: 0xDDA7, size: 0x8, addend: 0x0, symName: __ZNSt3__114pointer_traitsIPcE10pointer_toB7v160006ERc, symObjAddr: 0x4034, symBinAddr: 0x1000060C0, symSize: 0x14 }
  - { offsetInCU: 0xDDCA, offset: 0xDDCA, size: 0x8, addend: 0x0, symName: __ZNSt3__118__unwrap_iter_implIP9Book_infoLb1EE8__unwrapB7v160006ES2_, symObjAddr: 0x4048, symBinAddr: 0x1000060D4, symSize: 0x24 }
  - { offsetInCU: 0xDDF2, offset: 0xDDF2, size: 0x8, addend: 0x0, symName: __ZNSt3__14pairIP9Book_infoS2_EC1B7v160006IS2_S2_LPv0EEEOT_OT0_, symObjAddr: 0x406C, symBinAddr: 0x1000060F8, symSize: 0x3C }
  - { offsetInCU: 0xDE4F, offset: 0xDE4F, size: 0x8, addend: 0x0, symName: __ZNSt3__14pairIP9Book_infoS2_EC2B7v160006IS2_S2_LPv0EEEOT_OT0_, symObjAddr: 0x40A8, symBinAddr: 0x100006134, symSize: 0x34 }
  - { offsetInCU: 0xDEAC, offset: 0xDEAC, size: 0x8, addend: 0x0, symName: __ZNSt3__118__unwrap_iter_implIP9Book_infoLb1EE8__rewrapB7v160006ES2_S2_, symObjAddr: 0x40DC, symBinAddr: 0x100006168, symSize: 0x58 }
  - { offsetInCU: 0xDEE7, offset: 0xDEE7, size: 0x8, addend: 0x0, symName: __ZZN9Inventory10removeBookENSt3__112basic_stringIcNS0_11char_traitsIcEENS0_9allocatorIcEEEEENKUlR9Book_infoE_clES8_, symObjAddr: 0x41B4, symBinAddr: 0x100006240, symSize: 0x40 }
  - { offsetInCU: 0xDF1E, offset: 0xDF1E, size: 0x8, addend: 0x0, symName: __ZNSt3__111__wrap_iterIPK9Book_infoEC2B7v160006IPS1_EERKNS0_IT_EEPNS_9enable_ifIXsr14is_convertibleIS7_S3_EE5valueEvE4typeE, symObjAddr: 0x41F4, symBinAddr: 0x100006280, symSize: 0x40 }
  - { offsetInCU: 0xDF69, offset: 0xDF69, size: 0x8, addend: 0x0, symName: __ZNKSt3__16vectorI9Book_infoNS_9allocatorIS1_EEE5emptyB7v160006Ev, symObjAddr: 0x4234, symBinAddr: 0x1000062C0, symSize: 0x28 }
  - { offsetInCU: 0xDF8E, offset: 0xDF8E, size: 0x8, addend: 0x0, symName: __ZN9InventoryD2Ev, symObjAddr: 0x425C, symBinAddr: 0x1000062E8, symSize: 0x2C }
  - { offsetInCU: 0xDFB9, offset: 0xDFB9, size: 0x8, addend: 0x0, symName: __ZNSt3__16vectorI9Book_infoNS_9allocatorIS1_EEED1B7v160006Ev, symObjAddr: 0x4288, symBinAddr: 0x100006314, symSize: 0x2C }
  - { offsetInCU: 0xDFE2, offset: 0xDFE2, size: 0x8, addend: 0x0, symName: __ZNSt3__16vectorI9Book_infoNS_9allocatorIS1_EEED2B7v160006Ev, symObjAddr: 0x42B4, symBinAddr: 0x100006340, symSize: 0x44 }
  - { offsetInCU: 0xE00B, offset: 0xE00B, size: 0x8, addend: 0x0, symName: __ZNSt3__16vectorI9Book_infoNS_9allocatorIS1_EEE16__destroy_vectorC1ERS4_, symObjAddr: 0x42F8, symBinAddr: 0x100006384, symSize: 0x34 }
  - { offsetInCU: 0xE043, offset: 0xE043, size: 0x8, addend: 0x0, symName: __ZNSt3__16vectorI9Book_infoNS_9allocatorIS1_EEE16__destroy_vectorclB7v160006Ev, symObjAddr: 0x432C, symBinAddr: 0x1000063B8, symSize: 0x9C }
  - { offsetInCU: 0xE068, offset: 0xE068, size: 0x8, addend: 0x0, symName: __ZNSt3__16vectorI9Book_infoNS_9allocatorIS1_EEE16__destroy_vectorC2ERS4_, symObjAddr: 0x43C8, symBinAddr: 0x100006454, symSize: 0x20 }
  - { offsetInCU: 0xE0A0, offset: 0xE0A0, size: 0x8, addend: 0x0, symName: __ZNSt3__16vectorI9Book_infoNS_9allocatorIS1_EEE7__clearB7v160006Ev, symObjAddr: 0x43F8, symBinAddr: 0x100006484, symSize: 0x28 }
  - { offsetInCU: 0xE0C5, offset: 0xE0C5, size: 0x8, addend: 0x0, symName: __ZNSt3__112basic_stringIcNS_11char_traitsIcEENS_9allocatorIcEEEC2B7v160006Ev, symObjAddr: 0x4420, symBinAddr: 0x1000064AC, symSize: 0x4C }
  - { offsetInCU: 0xE0EE, offset: 0xE0EE, size: 0x8, addend: 0x0, symName: __ZNSt3__117__compressed_pairINS_12basic_stringIcNS_11char_traitsIcEENS_9allocatorIcEEE5__repES5_EC1B7v160006INS_18__default_init_tagESA_EEOT_OT0_, symObjAddr: 0x446C, symBinAddr: 0x1000064F8, symSize: 0x3C }
  - { offsetInCU: 0xE145, offset: 0xE145, size: 0x8, addend: 0x0, symName: __ZNSt3__117__compressed_pairINS_12basic_stringIcNS_11char_traitsIcEENS_9allocatorIcEEE5__repES5_EC2B7v160006INS_18__default_init_tagESA_EEOT_OT0_, symObjAddr: 0x44A8, symBinAddr: 0x100006534, symSize: 0x3C }
  - { offsetInCU: 0xE19C, offset: 0xE19C, size: 0x8, addend: 0x0, symName: __ZNSt3__122__compressed_pair_elemINS_12basic_stringIcNS_11char_traitsIcEENS_9allocatorIcEEE5__repELi0ELb0EEC2B7v160006ENS_18__default_init_tagE, symObjAddr: 0x44E4, symBinAddr: 0x100006570, symSize: 0x14 }
  - { offsetInCU: 0xE1D0, offset: 0xE1D0, size: 0x8, addend: 0x0, symName: __ZNSt3__122__compressed_pair_elemINS_9allocatorIcEELi1ELb1EEC2B7v160006ENS_18__default_init_tagE, symObjAddr: 0x44F8, symBinAddr: 0x100006584, symSize: 0x2C }
  - { offsetInCU: 0xE204, offset: 0xE204, size: 0x8, addend: 0x0, symName: __ZNSt3__19allocatorIcEC2B7v160006Ev, symObjAddr: 0x4524, symBinAddr: 0x1000065B0, symSize: 0x2C }
  - { offsetInCU: 0xE22D, offset: 0xE22D, size: 0x8, addend: 0x0, symName: __ZNSt3__116__non_trivial_ifILb1ENS_9allocatorIcEEEC2B7v160006Ev, symObjAddr: 0x4550, symBinAddr: 0x1000065DC, symSize: 0x14 }
  - { offsetInCU: 0xE256, offset: 0xE256, size: 0x8, addend: 0x0, symName: __ZNSt3__111char_traitsIcE6lengthEPKc, symObjAddr: 0x4750, symBinAddr: 0x1000067DC, symSize: 0x34 }
  - { offsetInCU: 0xE297, offset: 0xE297, size: 0x8, addend: 0x0, symName: __ZNKSt3__113basic_ostreamIcNS_11char_traitsIcEEE6sentrycvbB7v160006Ev, symObjAddr: 0x4784, symBinAddr: 0x100006810, symSize: 0x1C }
  - { offsetInCU: 0xE2BC, offset: 0xE2BC, size: 0x8, addend: 0x0, symName: __ZNSt3__119ostreambuf_iteratorIcNS_11char_traitsIcEEEC1B7v160006ERNS_13basic_ostreamIcS2_EE, symObjAddr: 0x49E0, symBinAddr: 0x100006A6C, symSize: 0x34 }
  - { offsetInCU: 0xE2F3, offset: 0xE2F3, size: 0x8, addend: 0x0, symName: __ZNKSt3__18ios_base5flagsB7v160006Ev, symObjAddr: 0x4A14, symBinAddr: 0x100006AA0, symSize: 0x18 }
  - { offsetInCU: 0xE319, offset: 0xE319, size: 0x8, addend: 0x0, symName: __ZNKSt3__19basic_iosIcNS_11char_traitsIcEEE4fillB7v160006Ev, symObjAddr: 0x4A2C, symBinAddr: 0x100006AB8, symSize: 0x64 }
  - { offsetInCU: 0xE340, offset: 0xE340, size: 0x8, addend: 0x0, symName: __ZNKSt3__119ostreambuf_iteratorIcNS_11char_traitsIcEEE6failedB7v160006Ev, symObjAddr: 0x4A90, symBinAddr: 0x100006B1C, symSize: 0x24 }
  - { offsetInCU: 0xE365, offset: 0xE365, size: 0x8, addend: 0x0, symName: __ZNSt3__19basic_iosIcNS_11char_traitsIcEEE8setstateB7v160006Ej, symObjAddr: 0x4AB4, symBinAddr: 0x100006B40, symSize: 0x2C }
  - { offsetInCU: 0xE399, offset: 0xE399, size: 0x8, addend: 0x0, symName: __ZNKSt3__18ios_base5widthB7v160006Ev, symObjAddr: 0x4AE0, symBinAddr: 0x100006B6C, symSize: 0x18 }
  - { offsetInCU: 0xE3C0, offset: 0xE3C0, size: 0x8, addend: 0x0, symName: __ZNSt3__115basic_streambufIcNS_11char_traitsIcEEE5sputnB7v160006EPKcl, symObjAddr: 0x4AF8, symBinAddr: 0x100006B84, symSize: 0x3C }
  - { offsetInCU: 0xE401, offset: 0xE401, size: 0x8, addend: 0x0, symName: __ZNSt3__112basic_stringIcNS_11char_traitsIcEENS_9allocatorIcEEEC1B7v160006Emc, symObjAddr: 0x4B34, symBinAddr: 0x100006BC0, symSize: 0x3C }
  - { offsetInCU: 0xE448, offset: 0xE448, size: 0x8, addend: 0x0, symName: __ZNSt3__18ios_base5widthB7v160006El, symObjAddr: 0x4B70, symBinAddr: 0x100006BFC, symSize: 0x2C }
  - { offsetInCU: 0xE48D, offset: 0xE48D, size: 0x8, addend: 0x0, symName: __ZNSt3__112basic_stringIcNS_11char_traitsIcEENS_9allocatorIcEEEC2B7v160006Emc, symObjAddr: 0x4B9C, symBinAddr: 0x100006C28, symSize: 0x54 }
  - { offsetInCU: 0xE4D4, offset: 0xE4D4, size: 0x8, addend: 0x0, symName: __ZNSt3__119ostreambuf_iteratorIcNS_11char_traitsIcEEEC2B7v160006ERNS_13basic_ostreamIcS2_EE, symObjAddr: 0x4BF0, symBinAddr: 0x100006C7C, symSize: 0x54 }
  - { offsetInCU: 0xE50A, offset: 0xE50A, size: 0x8, addend: 0x0, symName: __ZNKSt3__19basic_iosIcNS_11char_traitsIcEEE5rdbufB7v160006Ev, symObjAddr: 0x4C44, symBinAddr: 0x100006CD0, symSize: 0x24 }
  - { offsetInCU: 0xE531, offset: 0xE531, size: 0x8, addend: 0x0, symName: __ZNKSt3__18ios_base5rdbufB7v160006Ev, symObjAddr: 0x4C68, symBinAddr: 0x100006CF4, symSize: 0x18 }
  - { offsetInCU: 0xE556, offset: 0xE556, size: 0x8, addend: 0x0, symName: __ZNSt3__111char_traitsIcE11eq_int_typeEii, symObjAddr: 0x4C80, symBinAddr: 0x100006D0C, symSize: 0x28 }
  - { offsetInCU: 0xE586, offset: 0xE586, size: 0x8, addend: 0x0, symName: __ZNKSt3__19basic_iosIcNS_11char_traitsIcEEE5widenB7v160006Ec, symObjAddr: 0x4CA8, symBinAddr: 0x100006D34, symSize: 0x84 }
  - { offsetInCU: 0xE5F3, offset: 0xE5F3, size: 0x8, addend: 0x0, symName: __ZNKSt3__15ctypeIcE5widenB7v160006Ec, symObjAddr: 0x4D58, symBinAddr: 0x100006DE4, symSize: 0x38 }
  - { offsetInCU: 0xE626, offset: 0xE626, size: 0x8, addend: 0x0, symName: __ZNSt3__18ios_base8setstateB7v160006Ej, symObjAddr: 0x4D90, symBinAddr: 0x100006E1C, symSize: 0x34 }
  - { offsetInCU: 0xE6EE, offset: 0xE6EE, size: 0x8, addend: 0x0, symName: __ZNKSt3__113basic_istreamIcNS_11char_traitsIcEEE6sentrycvbB7v160006Ev, symObjAddr: 0x4DE8, symBinAddr: 0x100006E74, symSize: 0x1C }
  - { offsetInCU: 0xE713, offset: 0xE713, size: 0x8, addend: 0x0, symName: __ZNSt3__115basic_streambufIcNS_11char_traitsIcEEE6sbumpcB7v160006Ev, symObjAddr: 0x4E04, symBinAddr: 0x100006E90, symSize: 0x78 }
  - { offsetInCU: 0xE738, offset: 0xE738, size: 0x8, addend: 0x0, symName: __ZNSt3__111char_traitsIcE12to_char_typeEi, symObjAddr: 0x4E7C, symBinAddr: 0x100006F08, symSize: 0x18 }
  - { offsetInCU: 0xE75B, offset: 0xE75B, size: 0x8, addend: 0x0, symName: __ZNSt3__18ios_base18__setstate_nothrowB7v160006Ej, symObjAddr: 0x4E94, symBinAddr: 0x100006F20, symSize: 0x64 }
  - { offsetInCU: 0xE78F, offset: 0xE78F, size: 0x8, addend: 0x0, symName: __ZNKSt3__19basic_iosIcNS_11char_traitsIcEEE10exceptionsB7v160006Ev, symObjAddr: 0x4EF8, symBinAddr: 0x100006F84, symSize: 0x24 }
  - { offsetInCU: 0xE7B4, offset: 0xE7B4, size: 0x8, addend: 0x0, symName: __ZNSt3__111char_traitsIcE11to_int_typeEc, symObjAddr: 0x4F1C, symBinAddr: 0x100006FA8, symSize: 0x14 }
  - { offsetInCU: 0xE7D7, offset: 0xE7D7, size: 0x8, addend: 0x0, symName: __ZNKSt3__18ios_base10exceptionsB7v160006Ev, symObjAddr: 0x4F30, symBinAddr: 0x100006FBC, symSize: 0x18 }
  - { offsetInCU: 0xE7FD, offset: 0xE7FD, size: 0x8, addend: 0x0, symName: __ZNSt3__112basic_stringIcNS_11char_traitsIcEENS_9allocatorIcEEE5clearB7v160006Ev, symObjAddr: 0x517C, symBinAddr: 0x100007208, symSize: 0x88 }
  - { offsetInCU: 0xE824, offset: 0xE824, size: 0x8, addend: 0x0, symName: __ZNSt3__111char_traitsIcE2eqEcc, symObjAddr: 0x5204, symBinAddr: 0x100007290, symSize: 0x28 }
  - { offsetInCU: 0xE855, offset: 0xE855, size: 0x8, addend: 0x0, symName: __ZNKSt3__112basic_stringIcNS_11char_traitsIcEENS_9allocatorIcEEE8max_sizeB7v160006Ev, symObjAddr: 0x522C, symBinAddr: 0x1000072B8, symSize: 0xAC }
  - { offsetInCU: 0xE8A6, offset: 0xE8A6, size: 0x8, addend: 0x0, symName: __ZNSt3__112basic_stringIcNS_11char_traitsIcEENS_9allocatorIcEEE15__set_long_sizeB7v160006Em, symObjAddr: 0x52E8, symBinAddr: 0x100007374, symSize: 0x38 }
  - { offsetInCU: 0xE8E4, offset: 0xE8E4, size: 0x8, addend: 0x0, symName: __ZNSt3__116allocator_traitsINS_9allocatorIcEEE8max_sizeB7v160006IS2_vEEmRKS2_, symObjAddr: 0x5320, symBinAddr: 0x1000073AC, symSize: 0x24 }
  - { offsetInCU: 0xE912, offset: 0xE912, size: 0x8, addend: 0x0, symName: __ZNKSt3__112basic_stringIcNS_11char_traitsIcEENS_9allocatorIcEEE7__allocB7v160006Ev, symObjAddr: 0x5344, symBinAddr: 0x1000073D0, symSize: 0x24 }
  - { offsetInCU: 0xE937, offset: 0xE937, size: 0x8, addend: 0x0, symName: __ZNSt3__114numeric_limitsImE3maxB7v160006Ev, symObjAddr: 0x5368, symBinAddr: 0x1000073F4, symSize: 0x14 }
  - { offsetInCU: 0xE94B, offset: 0xE94B, size: 0x8, addend: 0x0, symName: __ZNKSt3__19allocatorIcE8max_sizeB7v160006Ev, symObjAddr: 0x537C, symBinAddr: 0x100007408, symSize: 0x14 }
  - { offsetInCU: 0xE970, offset: 0xE970, size: 0x8, addend: 0x0, symName: __ZNKSt3__117__compressed_pairINS_12basic_stringIcNS_11char_traitsIcEENS_9allocatorIcEEE5__repES5_E6secondB7v160006Ev, symObjAddr: 0x5390, symBinAddr: 0x10000741C, symSize: 0x24 }
  - { offsetInCU: 0xE995, offset: 0xE995, size: 0x8, addend: 0x0, symName: __ZNKSt3__122__compressed_pair_elemINS_9allocatorIcEELi1ELb1EE5__getB7v160006Ev, symObjAddr: 0x53B4, symBinAddr: 0x100007440, symSize: 0x14 }
  - { offsetInCU: 0xE9BA, offset: 0xE9BA, size: 0x8, addend: 0x0, symName: __ZNSt3__123__libcpp_numeric_limitsImLb1EE3maxB7v160006Ev, symObjAddr: 0x53C8, symBinAddr: 0x100007454, symSize: 0x8 }
  - { offsetInCU: 0xE9CE, offset: 0xE9CE, size: 0x8, addend: 0x0, symName: __ZNKSt3__19basic_iosIcNS_11char_traitsIcEEE4failB7v160006Ev, symObjAddr: 0x53D0, symBinAddr: 0x10000745C, symSize: 0x28 }
  - { offsetInCU: 0xE9F3, offset: 0xE9F3, size: 0x8, addend: 0x0, symName: __ZNKSt3__18ios_base4failB7v160006Ev, symObjAddr: 0x53F8, symBinAddr: 0x100007484, symSize: 0x28 }
...
