---
triple:          'arm64-apple-darwin'
binary-path:     '/Users/spoofch/Documents/Lab_C++/Lab7/1'
relocations:
  - { offsetInCU: 0x2E2A, offset: 0x2E2A, size: 0x8, addend: 0x0, symName: __ZNSt3__124__put_character_sequenceB7v160006IcNS_11char_traitsIcEEEERNS_13basic_ostreamIT_T0_EES7_PKS4_m, symObjAddr: 0xD80, symBinAddr: 0x1000027E4, symSize: 0x1F4 }
  - { offsetInCU: 0x498C, offset: 0x498C, size: 0x8, addend: 0x0, symName: __ZNSt3__119__debug_db_insert_cB7v160006INS_12basic_stringIcNS_11char_traitsIcEENS_9allocatorIcEEEEEEvPT_, symObjAddr: 0xB24, symBinAddr: 0x100002588, symSize: 0x10 }
  - { offsetInCU: 0x49BD, offset: 0x49BD, size: 0x8, addend: 0x0, symName: __ZNSt3__118__constexpr_strlenB7v160006EPKc, symObjAddr: 0xBF0, symBinAddr: 0x100002654, symSize: 0x24 }
  - { offsetInCU: 0x49E9, offset: 0x49E9, size: 0x8, addend: 0x0, symName: __ZNSt3__1lsB7v160006INS_11char_traitsIcEEEERNS_13basic_ostreamIcT_EES6_PKc, symObjAddr: 0xC14, symBinAddr: 0x100002678, symSize: 0x48 }
  - { offsetInCU: 0x4A2F, offset: 0x4A2F, size: 0x8, addend: 0x0, symName: __ZNSt3__14endlB7v160006IcNS_11char_traitsIcEEEERNS_13basic_ostreamIT_T0_EES7_, symObjAddr: 0xC88, symBinAddr: 0x1000026EC, symSize: 0x58 }
  - { offsetInCU: 0x4A6F, offset: 0x4A6F, size: 0x8, addend: 0x0, symName: __ZNSt3__1lsB7v160006IcNS_11char_traitsIcEENS_9allocatorIcEEEERNS_13basic_ostreamIT_T0_EES9_RKNS_12basic_stringIS6_S7_T1_EE, symObjAddr: 0xCE0, symBinAddr: 0x100002744, symSize: 0x4C }
  - { offsetInCU: 0x4AC7, offset: 0x4AC7, size: 0x8, addend: 0x0, symName: __ZNSt3__116__pad_and_outputB7v160006IcNS_11char_traitsIcEEEENS_19ostreambuf_iteratorIT_T0_EES6_PKS4_S8_S8_RNS_8ios_baseES4_, symObjAddr: 0xF90, symBinAddr: 0x1000029F4, symSize: 0x248 }
  - { offsetInCU: 0x4B96, offset: 0x4B96, size: 0x8, addend: 0x0, symName: __ZNSt3__112__to_addressB7v160006IKcEEPT_S3_, symObjAddr: 0x1410, symBinAddr: 0x100002E74, symSize: 0x14 }
  - { offsetInCU: 0x4BCB, offset: 0x4BCB, size: 0x8, addend: 0x0, symName: __ZNSt3__130__libcpp_is_constant_evaluatedB7v160006Ev, symObjAddr: 0x153C, symBinAddr: 0x100002FA0, symSize: 0xC }
  - { offsetInCU: 0x4C1B, offset: 0x4C1B, size: 0x8, addend: 0x0, symName: __ZNSt3__19use_facetB7v160006INS_5ctypeIcEEEERKT_RKNS_6localeE, symObjAddr: 0x16F4, symBinAddr: 0x100003158, symSize: 0x2C }
  - { offsetInCU: 0x50EA, offset: 0x50EA, size: 0x8, addend: 0x0, symName: __ZNSt3__1lsB7v160006IcNS_11char_traitsIcEEEERNS_13basic_ostreamIT_T0_EES7_RKNS_8__iom_t6E, symObjAddr: 0x1864, symBinAddr: 0x1000032C8, symSize: 0x40 }
  - { offsetInCU: 0x5139, offset: 0x5139, size: 0x8, addend: 0x0, symName: __ZNSt3__14setwB7v160006Ei, symObjAddr: 0x18A4, symBinAddr: 0x100003308, symSize: 0x2C }
  - { offsetInCU: 0x5167, offset: 0x5167, size: 0x8, addend: 0x0, symName: __ZNSt3__14leftB7v160006ERNS_8ios_baseE, symObjAddr: 0x1910, symBinAddr: 0x100003374, symSize: 0x30 }
  - { offsetInCU: 0x5195, offset: 0x5195, size: 0x8, addend: 0x0, symName: __ZNSt3__15rightB7v160006ERNS_8ios_baseE, symObjAddr: 0x1940, symBinAddr: 0x1000033A4, symSize: 0x30 }
  - { offsetInCU: 0x53C4, offset: 0x53C4, size: 0x8, addend: 0x0, symName: __ZNSt3__117__libcpp_allocateB7v160006Emm, symObjAddr: 0x1E94, symBinAddr: 0x1000038F8, symSize: 0x28 }
  - { offsetInCU: 0x5401, offset: 0x5401, size: 0x8, addend: 0x0, symName: __ZNSt3__121__libcpp_operator_newB7v160006IJmEEEPvDpT_, symObjAddr: 0x1ED0, symBinAddr: 0x100003934, symSize: 0x24 }
  - { offsetInCU: 0x543B, offset: 0x543B, size: 0x8, addend: 0x0, symName: __ZSt28__throw_bad_array_new_lengthB7v160006v, symObjAddr: 0x1E60, symBinAddr: 0x1000038C4, symSize: 0x34 }
  - { offsetInCU: 0x78C4, offset: 0x78C4, size: 0x8, addend: 0x0, symName: _main, symObjAddr: 0x0, symBinAddr: 0x100001A64, symSize: 0x80 }
  - { offsetInCU: 0x796D, offset: 0x796D, size: 0x8, addend: 0x0, symName: __ZN8FoodPollC1Ev, symObjAddr: 0x80, symBinAddr: 0x100001AE4, symSize: 0x2C }
  - { offsetInCU: 0x7998, offset: 0x7998, size: 0x8, addend: 0x0, symName: __ZN8FoodPoll13collectRatingEv, symObjAddr: 0xAC, symBinAddr: 0x100001B10, symSize: 0x1C0 }
  - { offsetInCU: 0x7A13, offset: 0x7A13, size: 0x8, addend: 0x0, symName: __ZN8FoodPoll14displayResultsEv, symObjAddr: 0x26C, symBinAddr: 0x100001CD0, symSize: 0x644 }
  - { offsetInCU: 0x7BA4, offset: 0x7BA4, size: 0x8, addend: 0x0, symName: __ZN8FoodPollD1Ev, symObjAddr: 0x8B0, symBinAddr: 0x100002314, symSize: 0x2C }
  - { offsetInCU: 0x7BCE, offset: 0x7BCE, size: 0x8, addend: 0x0, symName: __ZN8FoodPollC2Ev, symObjAddr: 0x8E8, symBinAddr: 0x10000234C, symSize: 0x124 }
  - { offsetInCU: 0x7BFE, offset: 0x7BFE, size: 0x8, addend: 0x0, symName: __ZNSt3__112basic_stringIcNS_11char_traitsIcEENS_9allocatorIcEEEC1B7v160006IDnEEPKc, symObjAddr: 0xA0C, symBinAddr: 0x100002470, symSize: 0x34 }
  - { offsetInCU: 0x7C3B, offset: 0x7C3B, size: 0x8, addend: 0x0, symName: __ZNSt3__112basic_stringIcNS_11char_traitsIcEENS_9allocatorIcEEEC2B7v160006IDnEEPKc, symObjAddr: 0xA40, symBinAddr: 0x1000024A4, symSize: 0x60 }
  - { offsetInCU: 0x7C7D, offset: 0x7C7D, size: 0x8, addend: 0x0, symName: __ZNSt3__117__compressed_pairINS_12basic_stringIcNS_11char_traitsIcEENS_9allocatorIcEEE5__repES5_EC1B7v160006INS_18__default_init_tagESA_EEOT_OT0_, symObjAddr: 0xAA0, symBinAddr: 0x100002504, symSize: 0x3C }
  - { offsetInCU: 0x7CD4, offset: 0x7CD4, size: 0x8, addend: 0x0, symName: __ZNSt3__111char_traitsIcE6lengthEPKc, symObjAddr: 0xADC, symBinAddr: 0x100002540, symSize: 0x48 }
  - { offsetInCU: 0x7CF7, offset: 0x7CF7, size: 0x8, addend: 0x0, symName: __ZNSt3__117__compressed_pairINS_12basic_stringIcNS_11char_traitsIcEENS_9allocatorIcEEE5__repES5_EC2B7v160006INS_18__default_init_tagESA_EEOT_OT0_, symObjAddr: 0xB34, symBinAddr: 0x100002598, symSize: 0x3C }
  - { offsetInCU: 0x7D4E, offset: 0x7D4E, size: 0x8, addend: 0x0, symName: __ZNSt3__122__compressed_pair_elemINS_12basic_stringIcNS_11char_traitsIcEENS_9allocatorIcEEE5__repELi0ELb0EEC2B7v160006ENS_18__default_init_tagE, symObjAddr: 0xB70, symBinAddr: 0x1000025D4, symSize: 0x14 }
  - { offsetInCU: 0x7D82, offset: 0x7D82, size: 0x8, addend: 0x0, symName: __ZNSt3__122__compressed_pair_elemINS_9allocatorIcEELi1ELb1EEC2B7v160006ENS_18__default_init_tagE, symObjAddr: 0xB84, symBinAddr: 0x1000025E8, symSize: 0x2C }
  - { offsetInCU: 0x7DB6, offset: 0x7DB6, size: 0x8, addend: 0x0, symName: __ZNSt3__19allocatorIcEC2B7v160006Ev, symObjAddr: 0xBB0, symBinAddr: 0x100002614, symSize: 0x2C }
  - { offsetInCU: 0x7DDF, offset: 0x7DDF, size: 0x8, addend: 0x0, symName: __ZNSt3__116__non_trivial_ifILb1ENS_9allocatorIcEEEC2B7v160006Ev, symObjAddr: 0xBDC, symBinAddr: 0x100002640, symSize: 0x14 }
  - { offsetInCU: 0x7E08, offset: 0x7E08, size: 0x8, addend: 0x0, symName: __ZNSt3__113basic_ostreamIcNS_11char_traitsIcEEElsB7v160006EPFRS3_S4_E, symObjAddr: 0xC5C, symBinAddr: 0x1000026C0, symSize: 0x2C }
  - { offsetInCU: 0x7E3A, offset: 0x7E3A, size: 0x8, addend: 0x0, symName: __ZNKSt3__19basic_iosIcNS_11char_traitsIcEEE4failB7v160006Ev, symObjAddr: 0xD2C, symBinAddr: 0x100002790, symSize: 0x28 }
  - { offsetInCU: 0x7E5E, offset: 0x7E5E, size: 0x8, addend: 0x0, symName: __ZNSt3__19basic_iosIcNS_11char_traitsIcEEE5clearB7v160006Ej, symObjAddr: 0xD54, symBinAddr: 0x1000027B8, symSize: 0x2C }
  - { offsetInCU: 0x7EAF, offset: 0x7EAF, size: 0x8, addend: 0x0, symName: __ZNKSt3__113basic_ostreamIcNS_11char_traitsIcEEE6sentrycvbB7v160006Ev, symObjAddr: 0xF74, symBinAddr: 0x1000029D8, symSize: 0x1C }
  - { offsetInCU: 0x7ED4, offset: 0x7ED4, size: 0x8, addend: 0x0, symName: __ZNSt3__119ostreambuf_iteratorIcNS_11char_traitsIcEEEC1B7v160006ERNS_13basic_ostreamIcS2_EE, symObjAddr: 0x11D8, symBinAddr: 0x100002C3C, symSize: 0x34 }
  - { offsetInCU: 0x7F0B, offset: 0x7F0B, size: 0x8, addend: 0x0, symName: __ZNKSt3__18ios_base5flagsB7v160006Ev, symObjAddr: 0x120C, symBinAddr: 0x100002C70, symSize: 0x18 }
  - { offsetInCU: 0x7F32, offset: 0x7F32, size: 0x8, addend: 0x0, symName: __ZNKSt3__19basic_iosIcNS_11char_traitsIcEEE4fillB7v160006Ev, symObjAddr: 0x1224, symBinAddr: 0x100002C88, symSize: 0x64 }
  - { offsetInCU: 0x7F59, offset: 0x7F59, size: 0x8, addend: 0x0, symName: __ZNKSt3__119ostreambuf_iteratorIcNS_11char_traitsIcEEE6failedB7v160006Ev, symObjAddr: 0x1288, symBinAddr: 0x100002CEC, symSize: 0x24 }
  - { offsetInCU: 0x7F7E, offset: 0x7F7E, size: 0x8, addend: 0x0, symName: __ZNSt3__19basic_iosIcNS_11char_traitsIcEEE8setstateB7v160006Ej, symObjAddr: 0x12AC, symBinAddr: 0x100002D10, symSize: 0x2C }
  - { offsetInCU: 0x7FB1, offset: 0x7FB1, size: 0x8, addend: 0x0, symName: __ZNKSt3__18ios_base5widthB7v160006Ev, symObjAddr: 0x12D8, symBinAddr: 0x100002D3C, symSize: 0x18 }
  - { offsetInCU: 0x7FD8, offset: 0x7FD8, size: 0x8, addend: 0x0, symName: __ZNSt3__115basic_streambufIcNS_11char_traitsIcEEE5sputnB7v160006EPKcl, symObjAddr: 0x12F0, symBinAddr: 0x100002D54, symSize: 0x3C }
  - { offsetInCU: 0x8018, offset: 0x8018, size: 0x8, addend: 0x0, symName: __ZNSt3__112basic_stringIcNS_11char_traitsIcEENS_9allocatorIcEEEC1B7v160006Emc, symObjAddr: 0x132C, symBinAddr: 0x100002D90, symSize: 0x3C }
  - { offsetInCU: 0x805F, offset: 0x805F, size: 0x8, addend: 0x0, symName: __ZNKSt3__112basic_stringIcNS_11char_traitsIcEENS_9allocatorIcEEE4dataB7v160006Ev, symObjAddr: 0x1368, symBinAddr: 0x100002DCC, symSize: 0x28 }
  - { offsetInCU: 0x8083, offset: 0x8083, size: 0x8, addend: 0x0, symName: __ZNSt3__18ios_base5widthB7v160006El, symObjAddr: 0x1390, symBinAddr: 0x100002DF4, symSize: 0x2C }
  - { offsetInCU: 0x80C8, offset: 0x80C8, size: 0x8, addend: 0x0, symName: __ZNSt3__112basic_stringIcNS_11char_traitsIcEENS_9allocatorIcEEEC2B7v160006Emc, symObjAddr: 0x13BC, symBinAddr: 0x100002E20, symSize: 0x54 }
  - { offsetInCU: 0x810F, offset: 0x810F, size: 0x8, addend: 0x0, symName: __ZNKSt3__112basic_stringIcNS_11char_traitsIcEENS_9allocatorIcEEE13__get_pointerB7v160006Ev, symObjAddr: 0x1424, symBinAddr: 0x100002E88, symSize: 0x54 }
  - { offsetInCU: 0x8133, offset: 0x8133, size: 0x8, addend: 0x0, symName: __ZNKSt3__112basic_stringIcNS_11char_traitsIcEENS_9allocatorIcEEE9__is_longB7v160006Ev, symObjAddr: 0x1478, symBinAddr: 0x100002EDC, symSize: 0x74 }
  - { offsetInCU: 0x8157, offset: 0x8157, size: 0x8, addend: 0x0, symName: __ZNKSt3__112basic_stringIcNS_11char_traitsIcEENS_9allocatorIcEEE18__get_long_pointerB7v160006Ev, symObjAddr: 0x14EC, symBinAddr: 0x100002F50, symSize: 0x28 }
  - { offsetInCU: 0x817B, offset: 0x817B, size: 0x8, addend: 0x0, symName: __ZNKSt3__112basic_stringIcNS_11char_traitsIcEENS_9allocatorIcEEE19__get_short_pointerB7v160006Ev, symObjAddr: 0x1514, symBinAddr: 0x100002F78, symSize: 0x28 }
  - { offsetInCU: 0x819F, offset: 0x819F, size: 0x8, addend: 0x0, symName: __ZNKSt3__117__compressed_pairINS_12basic_stringIcNS_11char_traitsIcEENS_9allocatorIcEEE5__repES5_E5firstB7v160006Ev, symObjAddr: 0x1548, symBinAddr: 0x100002FAC, symSize: 0x24 }
  - { offsetInCU: 0x81C3, offset: 0x81C3, size: 0x8, addend: 0x0, symName: __ZNKSt3__122__compressed_pair_elemINS_12basic_stringIcNS_11char_traitsIcEENS_9allocatorIcEEE5__repELi0ELb0EE5__getB7v160006Ev, symObjAddr: 0x156C, symBinAddr: 0x100002FD0, symSize: 0x14 }
  - { offsetInCU: 0x81E8, offset: 0x81E8, size: 0x8, addend: 0x0, symName: __ZNSt3__114pointer_traitsIPKcE10pointer_toB7v160006ERS1_, symObjAddr: 0x1580, symBinAddr: 0x100002FE4, symSize: 0x14 }
  - { offsetInCU: 0x820B, offset: 0x820B, size: 0x8, addend: 0x0, symName: __ZNSt3__119ostreambuf_iteratorIcNS_11char_traitsIcEEEC2B7v160006ERNS_13basic_ostreamIcS2_EE, symObjAddr: 0x1594, symBinAddr: 0x100002FF8, symSize: 0x68 }
  - { offsetInCU: 0x8242, offset: 0x8242, size: 0x8, addend: 0x0, symName: __ZNKSt3__19basic_iosIcNS_11char_traitsIcEEE5rdbufB7v160006Ev, symObjAddr: 0x15FC, symBinAddr: 0x100003060, symSize: 0x24 }
  - { offsetInCU: 0x8269, offset: 0x8269, size: 0x8, addend: 0x0, symName: __ZNKSt3__18ios_base5rdbufB7v160006Ev, symObjAddr: 0x1620, symBinAddr: 0x100003084, symSize: 0x18 }
  - { offsetInCU: 0x828E, offset: 0x828E, size: 0x8, addend: 0x0, symName: __ZNSt3__111char_traitsIcE11eq_int_typeEii, symObjAddr: 0x1638, symBinAddr: 0x10000309C, symSize: 0x28 }
  - { offsetInCU: 0x82BF, offset: 0x82BF, size: 0x8, addend: 0x0, symName: __ZNSt3__111char_traitsIcE3eofEv, symObjAddr: 0x1660, symBinAddr: 0x1000030C4, symSize: 0x8 }
  - { offsetInCU: 0x82D3, offset: 0x82D3, size: 0x8, addend: 0x0, symName: __ZNKSt3__19basic_iosIcNS_11char_traitsIcEEE5widenB7v160006Ec, symObjAddr: 0x1668, symBinAddr: 0x1000030CC, symSize: 0x8C }
  - { offsetInCU: 0x8340, offset: 0x8340, size: 0x8, addend: 0x0, symName: __ZNKSt3__15ctypeIcE5widenB7v160006Ec, symObjAddr: 0x1720, symBinAddr: 0x100003184, symSize: 0x38 }
  - { offsetInCU: 0x8373, offset: 0x8373, size: 0x8, addend: 0x0, symName: __ZNSt3__18ios_base8setstateB7v160006Ej, symObjAddr: 0x1758, symBinAddr: 0x1000031BC, symSize: 0x34 }
  - { offsetInCU: 0x83A9, offset: 0x83A9, size: 0x8, addend: 0x0, symName: __ZNKSt3__112basic_stringIcNS_11char_traitsIcEENS_9allocatorIcEEE4sizeB7v160006Ev, symObjAddr: 0x178C, symBinAddr: 0x1000031F0, symSize: 0x54 }
  - { offsetInCU: 0x83CD, offset: 0x83CD, size: 0x8, addend: 0x0, symName: __ZNKSt3__112basic_stringIcNS_11char_traitsIcEENS_9allocatorIcEEE15__get_long_sizeB7v160006Ev, symObjAddr: 0x17E0, symBinAddr: 0x100003244, symSize: 0x28 }
  - { offsetInCU: 0x83F1, offset: 0x83F1, size: 0x8, addend: 0x0, symName: __ZNKSt3__112basic_stringIcNS_11char_traitsIcEENS_9allocatorIcEEE16__get_short_sizeB7v160006Ev, symObjAddr: 0x1808, symBinAddr: 0x10000326C, symSize: 0x34 }
  - { offsetInCU: 0x8415, offset: 0x8415, size: 0x8, addend: 0x0, symName: __ZNKSt3__18ios_base4failB7v160006Ev, symObjAddr: 0x183C, symBinAddr: 0x1000032A0, symSize: 0x28 }
  - { offsetInCU: 0x843C, offset: 0x843C, size: 0x8, addend: 0x0, symName: __ZNSt3__113basic_ostreamIcNS_11char_traitsIcEEElsB7v160006EPFRNS_8ios_baseES5_E, symObjAddr: 0x18D0, symBinAddr: 0x100003334, symSize: 0x40 }
  - { offsetInCU: 0x846E, offset: 0x846E, size: 0x8, addend: 0x0, symName: __ZNSt3__114numeric_limitsIiE3maxB7v160006Ev, symObjAddr: 0x1970, symBinAddr: 0x1000033D4, symSize: 0x14 }
  - { offsetInCU: 0x8482, offset: 0x8482, size: 0x8, addend: 0x0, symName: __ZNSt3__112basic_stringIcNS_11char_traitsIcEENS_9allocatorIcEEEC1B7v160006Ev, symObjAddr: 0x1984, symBinAddr: 0x1000033E8, symSize: 0x2C }
  - { offsetInCU: 0x84AB, offset: 0x84AB, size: 0x8, addend: 0x0, symName: __ZNSt3__18__iom_t6C1B7v160006Ei, symObjAddr: 0x19B0, symBinAddr: 0x100003414, symSize: 0x34 }
  - { offsetInCU: 0x84E2, offset: 0x84E2, size: 0x8, addend: 0x0, symName: __ZNSt3__18__iom_t6C2B7v160006Ei, symObjAddr: 0x19E4, symBinAddr: 0x100003448, symSize: 0x20 }
  - { offsetInCU: 0x8519, offset: 0x8519, size: 0x8, addend: 0x0, symName: __ZNSt3__18ios_base4setfB7v160006Ejj, symObjAddr: 0x1A04, symBinAddr: 0x100003468, symSize: 0x5C }
  - { offsetInCU: 0x856D, offset: 0x856D, size: 0x8, addend: 0x0, symName: __ZNSt3__18ios_base6unsetfB7v160006Ej, symObjAddr: 0x1A60, symBinAddr: 0x1000034C4, symSize: 0x28 }
  - { offsetInCU: 0x85A3, offset: 0x85A3, size: 0x8, addend: 0x0, symName: __ZNSt3__123__libcpp_numeric_limitsIiLb1EE3maxB7v160006Ev, symObjAddr: 0x1A88, symBinAddr: 0x1000034EC, symSize: 0x8 }
  - { offsetInCU: 0x85B7, offset: 0x85B7, size: 0x8, addend: 0x0, symName: __ZNSt3__112basic_stringIcNS_11char_traitsIcEENS_9allocatorIcEEEC2B7v160006Ev, symObjAddr: 0x1A90, symBinAddr: 0x1000034F4, symSize: 0x44 }
  - { offsetInCU: 0x85E0, offset: 0x85E0, size: 0x8, addend: 0x0, symName: __ZNSt3__112basic_stringIcNS_11char_traitsIcEENS_9allocatorIcEEE14__default_initB7v160006Ev, symObjAddr: 0x1AD4, symBinAddr: 0x100003538, symSize: 0xB0 }
  - { offsetInCU: 0x8631, offset: 0x8631, size: 0x8, addend: 0x0, symName: __ZNSt3__117__compressed_pairINS_12basic_stringIcNS_11char_traitsIcEENS_9allocatorIcEEE5__repES5_E5firstB7v160006Ev, symObjAddr: 0x1B84, symBinAddr: 0x1000035E8, symSize: 0x24 }
  - { offsetInCU: 0x8655, offset: 0x8655, size: 0x8, addend: 0x0, symName: __ZNSt3__112basic_stringIcNS_11char_traitsIcEENS_9allocatorIcEEE11__recommendB7v160006Em, symObjAddr: 0x1BA8, symBinAddr: 0x10000360C, symSize: 0x9C }
  - { offsetInCU: 0x8688, offset: 0x8688, size: 0x8, addend: 0x0, symName: __ZNSt3__116allocator_traitsINS_9allocatorIcEEE8allocateB7v160006ERS2_m, symObjAddr: 0x1C44, symBinAddr: 0x1000036A8, symSize: 0x2C }
  - { offsetInCU: 0x86BB, offset: 0x86BB, size: 0x8, addend: 0x0, symName: __ZNSt3__112basic_stringIcNS_11char_traitsIcEENS_9allocatorIcEEE7__allocB7v160006Ev, symObjAddr: 0x1C70, symBinAddr: 0x1000036D4, symSize: 0x24 }
  - { offsetInCU: 0x86DF, offset: 0x86DF, size: 0x8, addend: 0x0, symName: __ZNSt3__112basic_stringIcNS_11char_traitsIcEENS_9allocatorIcEEE16__begin_lifetimeB7v160006EPcm, symObjAddr: 0x1C94, symBinAddr: 0x1000036F8, symSize: 0x14 }
  - { offsetInCU: 0x8712, offset: 0x8712, size: 0x8, addend: 0x0, symName: __ZNSt3__112basic_stringIcNS_11char_traitsIcEENS_9allocatorIcEEE18__set_long_pointerB7v160006EPc, symObjAddr: 0x1CA8, symBinAddr: 0x10000370C, symSize: 0x38 }
  - { offsetInCU: 0x8745, offset: 0x8745, size: 0x8, addend: 0x0, symName: __ZNSt3__112basic_stringIcNS_11char_traitsIcEENS_9allocatorIcEEE14__set_long_capB7v160006Em, symObjAddr: 0x1CE0, symBinAddr: 0x100003744, symSize: 0x70 }
  - { offsetInCU: 0x8778, offset: 0x8778, size: 0x8, addend: 0x0, symName: __ZNSt3__112basic_stringIcNS_11char_traitsIcEENS_9allocatorIcEEE15__set_long_sizeB7v160006Em, symObjAddr: 0x1D50, symBinAddr: 0x1000037B4, symSize: 0x38 }
  - { offsetInCU: 0x87AB, offset: 0x87AB, size: 0x8, addend: 0x0, symName: __ZNSt3__122__compressed_pair_elemINS_12basic_stringIcNS_11char_traitsIcEENS_9allocatorIcEEE5__repELi0ELb0EE5__getB7v160006Ev, symObjAddr: 0x1D88, symBinAddr: 0x1000037EC, symSize: 0x14 }
  - { offsetInCU: 0x87D0, offset: 0x87D0, size: 0x8, addend: 0x0, symName: __ZNSt3__112basic_stringIcNS_11char_traitsIcEENS_9allocatorIcEEE10__align_itB7v160006ILm16EEEmm, symObjAddr: 0x1D9C, symBinAddr: 0x100003800, symSize: 0x1C }
  - { offsetInCU: 0x87FE, offset: 0x87FE, size: 0x8, addend: 0x0, symName: __ZNSt3__19allocatorIcE8allocateB7v160006Em, symObjAddr: 0x1DB8, symBinAddr: 0x10000381C, symSize: 0x84 }
  - { offsetInCU: 0x883A, offset: 0x883A, size: 0x8, addend: 0x0, symName: __ZNSt3__116allocator_traitsINS_9allocatorIcEEE8max_sizeB7v160006IS2_vEEmRKS2_, symObjAddr: 0x1E3C, symBinAddr: 0x1000038A0, symSize: 0x24 }
  - { offsetInCU: 0x8868, offset: 0x8868, size: 0x8, addend: 0x0, symName: __ZNKSt3__19allocatorIcE8max_sizeB7v160006Ev, symObjAddr: 0x1EBC, symBinAddr: 0x100003920, symSize: 0x14 }
  - { offsetInCU: 0x888D, offset: 0x888D, size: 0x8, addend: 0x0, symName: __ZNSt3__117__compressed_pairINS_12basic_stringIcNS_11char_traitsIcEENS_9allocatorIcEEE5__repES5_E6secondB7v160006Ev, symObjAddr: 0x1EF4, symBinAddr: 0x100003958, symSize: 0x24 }
  - { offsetInCU: 0x88B1, offset: 0x88B1, size: 0x8, addend: 0x0, symName: __ZNSt3__122__compressed_pair_elemINS_9allocatorIcEELi1ELb1EE5__getB7v160006Ev, symObjAddr: 0x1F18, symBinAddr: 0x10000397C, symSize: 0x14 }
  - { offsetInCU: 0x88D5, offset: 0x88D5, size: 0x8, addend: 0x0, symName: __ZN8FoodPollD2Ev, symObjAddr: 0x1F2C, symBinAddr: 0x100003990, symSize: 0xD0 }
...
