---
triple:          'arm64-apple-darwin'
binary-path:     '/Users/spoofch/Documents/Lab_C++/Quiz/quiz3'
relocations:
  - { offsetInCU: 0x2D77, offset: 0x2D77, size: 0x8, addend: 0x0, symName: __ZNSt3__124__put_character_sequenceB7v160006IcNS_11char_traitsIcEEEERNS_13basic_ostreamIT_T0_EES7_PKS4_m, symObjAddr: 0x374, symBinAddr: 0x100003154, symSize: 0x1F4 }
  - { offsetInCU: 0x46AE, offset: 0x46AE, size: 0x8, addend: 0x0, symName: __ZNSt3__1lsB7v160006INS_11char_traitsIcEEEERNS_13basic_ostreamIcT_EES6_PKc, symObjAddr: 0x270, symBinAddr: 0x100003050, symSize: 0x48 }
  - { offsetInCU: 0x46F4, offset: 0x46F4, size: 0x8, addend: 0x0, symName: __ZNSt3__14endlB7v160006IcNS_11char_traitsIcEEEERNS_13basic_ostreamIT_T0_EES7_, symObjAddr: 0x2E4, symBinAddr: 0x1000030C4, symSize: 0x58 }
  - { offsetInCU: 0x4734, offset: 0x4734, size: 0x8, addend: 0x0, symName: __ZNSt3__116__pad_and_outputB7v160006IcNS_11char_traitsIcEEEENS_19ostreambuf_iteratorIT_T0_EES6_PKS4_S8_S8_RNS_8ios_baseES4_, symObjAddr: 0x5CC, symBinAddr: 0x1000033AC, symSize: 0x248 }
  - { offsetInCU: 0x4803, offset: 0x4803, size: 0x8, addend: 0x0, symName: __ZNSt3__119__debug_db_insert_cB7v160006INS_12basic_stringIcNS_11char_traitsIcEENS_9allocatorIcEEEEEEvPT_, symObjAddr: 0xA94, symBinAddr: 0x100003874, symSize: 0x10 }
  - { offsetInCU: 0x4834, offset: 0x4834, size: 0x8, addend: 0x0, symName: __ZNSt3__112__to_addressB7v160006IKcEEPT_S3_, symObjAddr: 0xB60, symBinAddr: 0x100003940, symSize: 0x14 }
  - { offsetInCU: 0x4869, offset: 0x4869, size: 0x8, addend: 0x0, symName: __ZNSt3__130__libcpp_is_constant_evaluatedB7v160006Ev, symObjAddr: 0xC8C, symBinAddr: 0x100003A6C, symSize: 0xC }
  - { offsetInCU: 0x48B9, offset: 0x48B9, size: 0x8, addend: 0x0, symName: __ZNSt3__19use_facetB7v160006INS_5ctypeIcEEEERKT_RKNS_6localeE, symObjAddr: 0xE44, symBinAddr: 0x100003C24, symSize: 0x2C }
  - { offsetInCU: 0x4D88, offset: 0x4D88, size: 0x8, addend: 0x0, symName: __ZNSt3__118__constexpr_strlenB7v160006EPKc, symObjAddr: 0xEDC, symBinAddr: 0x100003CBC, symSize: 0x24 }
  - { offsetInCU: 0x7210, offset: 0x7210, size: 0x8, addend: 0x0, symName: _main, symObjAddr: 0x0, symBinAddr: 0x100002DE0, symSize: 0x148 }
  - { offsetInCU: 0x72D2, offset: 0x72D2, size: 0x8, addend: 0x0, symName: __ZN7ComplexC1Eddd, symObjAddr: 0x148, symBinAddr: 0x100002F28, symSize: 0x44 }
  - { offsetInCU: 0x7324, offset: 0x7324, size: 0x8, addend: 0x0, symName: __ZNK7ComplexplERKS_, symObjAddr: 0x18C, symBinAddr: 0x100002F6C, symSize: 0x68 }
  - { offsetInCU: 0x7356, offset: 0x7356, size: 0x8, addend: 0x0, symName: __ZlsRNSt3__113basic_ostreamIcNS_11char_traitsIcEEEERK7Complex, symObjAddr: 0x1F4, symBinAddr: 0x100002FD4, symSize: 0x7C }
  - { offsetInCU: 0x7390, offset: 0x7390, size: 0x8, addend: 0x0, symName: __ZNSt3__113basic_ostreamIcNS_11char_traitsIcEEElsB7v160006EPFRS3_S4_E, symObjAddr: 0x2B8, symBinAddr: 0x100003098, symSize: 0x2C }
  - { offsetInCU: 0x73C2, offset: 0x73C2, size: 0x8, addend: 0x0, symName: __ZN7ComplexC2Eddd, symObjAddr: 0x33C, symBinAddr: 0x10000311C, symSize: 0x38 }
  - { offsetInCU: 0x7414, offset: 0x7414, size: 0x8, addend: 0x0, symName: __ZNSt3__111char_traitsIcE6lengthEPKc, symObjAddr: 0x568, symBinAddr: 0x100003348, symSize: 0x48 }
  - { offsetInCU: 0x7454, offset: 0x7454, size: 0x8, addend: 0x0, symName: __ZNKSt3__113basic_ostreamIcNS_11char_traitsIcEEE6sentrycvbB7v160006Ev, symObjAddr: 0x5B0, symBinAddr: 0x100003390, symSize: 0x1C }
  - { offsetInCU: 0x7478, offset: 0x7478, size: 0x8, addend: 0x0, symName: __ZNSt3__119ostreambuf_iteratorIcNS_11char_traitsIcEEEC1B7v160006ERNS_13basic_ostreamIcS2_EE, symObjAddr: 0x814, symBinAddr: 0x1000035F4, symSize: 0x34 }
  - { offsetInCU: 0x74AE, offset: 0x74AE, size: 0x8, addend: 0x0, symName: __ZNKSt3__18ios_base5flagsB7v160006Ev, symObjAddr: 0x848, symBinAddr: 0x100003628, symSize: 0x18 }
  - { offsetInCU: 0x74D4, offset: 0x74D4, size: 0x8, addend: 0x0, symName: __ZNKSt3__19basic_iosIcNS_11char_traitsIcEEE4fillB7v160006Ev, symObjAddr: 0x860, symBinAddr: 0x100003640, symSize: 0x64 }
  - { offsetInCU: 0x74FA, offset: 0x74FA, size: 0x8, addend: 0x0, symName: __ZNKSt3__119ostreambuf_iteratorIcNS_11char_traitsIcEEE6failedB7v160006Ev, symObjAddr: 0x8C4, symBinAddr: 0x1000036A4, symSize: 0x24 }
  - { offsetInCU: 0x751E, offset: 0x751E, size: 0x8, addend: 0x0, symName: __ZNSt3__19basic_iosIcNS_11char_traitsIcEEE8setstateB7v160006Ej, symObjAddr: 0x8E8, symBinAddr: 0x1000036C8, symSize: 0x2C }
  - { offsetInCU: 0x7551, offset: 0x7551, size: 0x8, addend: 0x0, symName: __ZNKSt3__18ios_base5widthB7v160006Ev, symObjAddr: 0x920, symBinAddr: 0x100003700, symSize: 0x18 }
  - { offsetInCU: 0x7577, offset: 0x7577, size: 0x8, addend: 0x0, symName: __ZNSt3__115basic_streambufIcNS_11char_traitsIcEEE5sputnB7v160006EPKcl, symObjAddr: 0x938, symBinAddr: 0x100003718, symSize: 0x3C }
  - { offsetInCU: 0x75B7, offset: 0x75B7, size: 0x8, addend: 0x0, symName: __ZNSt3__112basic_stringIcNS_11char_traitsIcEENS_9allocatorIcEEEC1B7v160006Emc, symObjAddr: 0x974, symBinAddr: 0x100003754, symSize: 0x3C }
  - { offsetInCU: 0x75FD, offset: 0x75FD, size: 0x8, addend: 0x0, symName: __ZNKSt3__112basic_stringIcNS_11char_traitsIcEENS_9allocatorIcEEE4dataB7v160006Ev, symObjAddr: 0x9B0, symBinAddr: 0x100003790, symSize: 0x28 }
  - { offsetInCU: 0x7621, offset: 0x7621, size: 0x8, addend: 0x0, symName: __ZNSt3__18ios_base5widthB7v160006El, symObjAddr: 0x9D8, symBinAddr: 0x1000037B8, symSize: 0x2C }
  - { offsetInCU: 0x7665, offset: 0x7665, size: 0x8, addend: 0x0, symName: __ZNSt3__112basic_stringIcNS_11char_traitsIcEENS_9allocatorIcEEEC2B7v160006Emc, symObjAddr: 0xA04, symBinAddr: 0x1000037E4, symSize: 0x54 }
  - { offsetInCU: 0x76B0, offset: 0x76B0, size: 0x8, addend: 0x0, symName: __ZNSt3__117__compressed_pairINS_12basic_stringIcNS_11char_traitsIcEENS_9allocatorIcEEE5__repES5_EC1B7v160006INS_18__default_init_tagESA_EEOT_OT0_, symObjAddr: 0xA58, symBinAddr: 0x100003838, symSize: 0x3C }
  - { offsetInCU: 0x7706, offset: 0x7706, size: 0x8, addend: 0x0, symName: __ZNSt3__117__compressed_pairINS_12basic_stringIcNS_11char_traitsIcEENS_9allocatorIcEEE5__repES5_EC2B7v160006INS_18__default_init_tagESA_EEOT_OT0_, symObjAddr: 0xAA4, symBinAddr: 0x100003884, symSize: 0x3C }
  - { offsetInCU: 0x775C, offset: 0x775C, size: 0x8, addend: 0x0, symName: __ZNSt3__122__compressed_pair_elemINS_12basic_stringIcNS_11char_traitsIcEENS_9allocatorIcEEE5__repELi0ELb0EEC2B7v160006ENS_18__default_init_tagE, symObjAddr: 0xAE0, symBinAddr: 0x1000038C0, symSize: 0x14 }
  - { offsetInCU: 0x778E, offset: 0x778E, size: 0x8, addend: 0x0, symName: __ZNSt3__122__compressed_pair_elemINS_9allocatorIcEELi1ELb1EEC2B7v160006ENS_18__default_init_tagE, symObjAddr: 0xAF4, symBinAddr: 0x1000038D4, symSize: 0x2C }
  - { offsetInCU: 0x77C0, offset: 0x77C0, size: 0x8, addend: 0x0, symName: __ZNSt3__19allocatorIcEC2B7v160006Ev, symObjAddr: 0xB20, symBinAddr: 0x100003900, symSize: 0x2C }
  - { offsetInCU: 0x77E8, offset: 0x77E8, size: 0x8, addend: 0x0, symName: __ZNSt3__116__non_trivial_ifILb1ENS_9allocatorIcEEEC2B7v160006Ev, symObjAddr: 0xB4C, symBinAddr: 0x10000392C, symSize: 0x14 }
  - { offsetInCU: 0x7810, offset: 0x7810, size: 0x8, addend: 0x0, symName: __ZNKSt3__112basic_stringIcNS_11char_traitsIcEENS_9allocatorIcEEE13__get_pointerB7v160006Ev, symObjAddr: 0xB74, symBinAddr: 0x100003954, symSize: 0x54 }
  - { offsetInCU: 0x7834, offset: 0x7834, size: 0x8, addend: 0x0, symName: __ZNKSt3__112basic_stringIcNS_11char_traitsIcEENS_9allocatorIcEEE9__is_longB7v160006Ev, symObjAddr: 0xBC8, symBinAddr: 0x1000039A8, symSize: 0x74 }
  - { offsetInCU: 0x7858, offset: 0x7858, size: 0x8, addend: 0x0, symName: __ZNKSt3__112basic_stringIcNS_11char_traitsIcEENS_9allocatorIcEEE18__get_long_pointerB7v160006Ev, symObjAddr: 0xC3C, symBinAddr: 0x100003A1C, symSize: 0x28 }
  - { offsetInCU: 0x787C, offset: 0x787C, size: 0x8, addend: 0x0, symName: __ZNKSt3__112basic_stringIcNS_11char_traitsIcEENS_9allocatorIcEEE19__get_short_pointerB7v160006Ev, symObjAddr: 0xC64, symBinAddr: 0x100003A44, symSize: 0x28 }
  - { offsetInCU: 0x78A0, offset: 0x78A0, size: 0x8, addend: 0x0, symName: __ZNKSt3__117__compressed_pairINS_12basic_stringIcNS_11char_traitsIcEENS_9allocatorIcEEE5__repES5_E5firstB7v160006Ev, symObjAddr: 0xC98, symBinAddr: 0x100003A78, symSize: 0x24 }
  - { offsetInCU: 0x78C4, offset: 0x78C4, size: 0x8, addend: 0x0, symName: __ZNKSt3__122__compressed_pair_elemINS_12basic_stringIcNS_11char_traitsIcEENS_9allocatorIcEEE5__repELi0ELb0EE5__getB7v160006Ev, symObjAddr: 0xCBC, symBinAddr: 0x100003A9C, symSize: 0x14 }
  - { offsetInCU: 0x78E8, offset: 0x78E8, size: 0x8, addend: 0x0, symName: __ZNSt3__114pointer_traitsIPKcE10pointer_toB7v160006ERS1_, symObjAddr: 0xCD0, symBinAddr: 0x100003AB0, symSize: 0x14 }
  - { offsetInCU: 0x790A, offset: 0x790A, size: 0x8, addend: 0x0, symName: __ZNSt3__119ostreambuf_iteratorIcNS_11char_traitsIcEEEC2B7v160006ERNS_13basic_ostreamIcS2_EE, symObjAddr: 0xCE4, symBinAddr: 0x100003AC4, symSize: 0x68 }
  - { offsetInCU: 0x7940, offset: 0x7940, size: 0x8, addend: 0x0, symName: __ZNKSt3__19basic_iosIcNS_11char_traitsIcEEE5rdbufB7v160006Ev, symObjAddr: 0xD4C, symBinAddr: 0x100003B2C, symSize: 0x24 }
  - { offsetInCU: 0x7966, offset: 0x7966, size: 0x8, addend: 0x0, symName: __ZNKSt3__18ios_base5rdbufB7v160006Ev, symObjAddr: 0xD70, symBinAddr: 0x100003B50, symSize: 0x18 }
  - { offsetInCU: 0x798A, offset: 0x798A, size: 0x8, addend: 0x0, symName: __ZNSt3__111char_traitsIcE11eq_int_typeEii, symObjAddr: 0xD88, symBinAddr: 0x100003B68, symSize: 0x28 }
  - { offsetInCU: 0x79BA, offset: 0x79BA, size: 0x8, addend: 0x0, symName: __ZNSt3__111char_traitsIcE3eofEv, symObjAddr: 0xDB0, symBinAddr: 0x100003B90, symSize: 0x8 }
  - { offsetInCU: 0x79CD, offset: 0x79CD, size: 0x8, addend: 0x0, symName: __ZNKSt3__19basic_iosIcNS_11char_traitsIcEEE5widenB7v160006Ec, symObjAddr: 0xDB8, symBinAddr: 0x100003B98, symSize: 0x8C }
  - { offsetInCU: 0x7A39, offset: 0x7A39, size: 0x8, addend: 0x0, symName: __ZNKSt3__15ctypeIcE5widenB7v160006Ec, symObjAddr: 0xE70, symBinAddr: 0x100003C50, symSize: 0x38 }
  - { offsetInCU: 0x7A6C, offset: 0x7A6C, size: 0x8, addend: 0x0, symName: __ZNSt3__18ios_base8setstateB7v160006Ej, symObjAddr: 0xEA8, symBinAddr: 0x100003C88, symSize: 0x34 }
...
