---
triple:          'arm64-apple-darwin'
binary-path:     '/Users/spoofch/Documents/Lab_C++/Lab7/1fix'
relocations:
  - { offsetInCU: 0x2E1F, offset: 0x2E1F, size: 0x8, addend: 0x0, symName: __ZNSt3__124__put_character_sequenceB7v160006IcNS_11char_traitsIcEEEERNS_13basic_ostreamIT_T0_EES7_PKS4_m, symObjAddr: 0xDD4, symBinAddr: 0x10000278C, symSize: 0x1F4 }
  - { offsetInCU: 0x51F3, offset: 0x51F3, size: 0x8, addend: 0x0, symName: __ZNSt3__119__debug_db_insert_cB7v160006INS_12basic_stringIcNS_11char_traitsIcEENS_9allocatorIcEEEEEEvPT_, symObjAddr: 0xB08, symBinAddr: 0x1000024C0, symSize: 0x10 }
  - { offsetInCU: 0x5224, offset: 0x5224, size: 0x8, addend: 0x0, symName: __ZNSt3__118__constexpr_strlenB7v160006EPKc, symObjAddr: 0xBD4, symBinAddr: 0x10000258C, symSize: 0x24 }
  - { offsetInCU: 0x5250, offset: 0x5250, size: 0x8, addend: 0x0, symName: __ZNSt3__1lsB7v160006INS_11char_traitsIcEEEERNS_13basic_ostreamIcT_EES6_PKc, symObjAddr: 0xBF8, symBinAddr: 0x1000025B0, symSize: 0x48 }
  - { offsetInCU: 0x5296, offset: 0x5296, size: 0x8, addend: 0x0, symName: __ZNSt3__14endlB7v160006IcNS_11char_traitsIcEEEERNS_13basic_ostreamIT_T0_EES7_, symObjAddr: 0xC6C, symBinAddr: 0x100002624, symSize: 0x58 }
  - { offsetInCU: 0x52D6, offset: 0x52D6, size: 0x8, addend: 0x0, symName: __ZNSt3__1lsB7v160006IcNS_11char_traitsIcEENS_9allocatorIcEEEERNS_13basic_ostreamIT_T0_EES9_RKNS_12basic_stringIS6_S7_T1_EE, symObjAddr: 0xCC4, symBinAddr: 0x10000267C, symSize: 0x4C }
  - { offsetInCU: 0x532E, offset: 0x532E, size: 0x8, addend: 0x0, symName: __ZNSt3__116__pad_and_outputB7v160006IcNS_11char_traitsIcEEEENS_19ostreambuf_iteratorIT_T0_EES6_PKS4_S8_S8_RNS_8ios_baseES4_, symObjAddr: 0xFE4, symBinAddr: 0x10000299C, symSize: 0x248 }
  - { offsetInCU: 0x53FD, offset: 0x53FD, size: 0x8, addend: 0x0, symName: __ZNSt3__112__to_addressB7v160006IKcEEPT_S3_, symObjAddr: 0x1464, symBinAddr: 0x100002E1C, symSize: 0x14 }
  - { offsetInCU: 0x5432, offset: 0x5432, size: 0x8, addend: 0x0, symName: __ZNSt3__130__libcpp_is_constant_evaluatedB7v160006Ev, symObjAddr: 0x1590, symBinAddr: 0x100002F48, symSize: 0xC }
  - { offsetInCU: 0x5482, offset: 0x5482, size: 0x8, addend: 0x0, symName: __ZNSt3__19use_facetB7v160006INS_5ctypeIcEEEERKT_RKNS_6localeE, symObjAddr: 0x1748, symBinAddr: 0x100003100, symSize: 0x2C }
  - { offsetInCU: 0x5951, offset: 0x5951, size: 0x8, addend: 0x0, symName: __ZNSt3__1lsB7v160006IcNS_11char_traitsIcEEEERNS_13basic_ostreamIT_T0_EES7_RKNS_8__iom_t6E, symObjAddr: 0x18B8, symBinAddr: 0x100003270, symSize: 0x40 }
  - { offsetInCU: 0x59A0, offset: 0x59A0, size: 0x8, addend: 0x0, symName: __ZNSt3__14setwB7v160006Ei, symObjAddr: 0x18F8, symBinAddr: 0x1000032B0, symSize: 0x2C }
  - { offsetInCU: 0x59CE, offset: 0x59CE, size: 0x8, addend: 0x0, symName: __ZNSt3__14leftB7v160006ERNS_8ios_baseE, symObjAddr: 0x1964, symBinAddr: 0x10000331C, symSize: 0x30 }
  - { offsetInCU: 0x59FC, offset: 0x59FC, size: 0x8, addend: 0x0, symName: __ZNSt3__15rightB7v160006ERNS_8ios_baseE, symObjAddr: 0x1994, symBinAddr: 0x10000334C, symSize: 0x30 }
  - { offsetInCU: 0x5C2B, offset: 0x5C2B, size: 0x8, addend: 0x0, symName: __ZNSt3__117__libcpp_allocateB7v160006Emm, symObjAddr: 0x1EE8, symBinAddr: 0x1000038A0, symSize: 0x28 }
  - { offsetInCU: 0x5C68, offset: 0x5C68, size: 0x8, addend: 0x0, symName: __ZNSt3__121__libcpp_operator_newB7v160006IJmEEEPvDpT_, symObjAddr: 0x1F24, symBinAddr: 0x1000038DC, symSize: 0x24 }
  - { offsetInCU: 0x5CA2, offset: 0x5CA2, size: 0x8, addend: 0x0, symName: __ZSt28__throw_bad_array_new_lengthB7v160006v, symObjAddr: 0x1EB4, symBinAddr: 0x10000386C, symSize: 0x34 }
  - { offsetInCU: 0x812B, offset: 0x812B, size: 0x8, addend: 0x0, symName: _main, symObjAddr: 0x0, symBinAddr: 0x1000019B8, symSize: 0x80 }
  - { offsetInCU: 0x826E, offset: 0x826E, size: 0x8, addend: 0x0, symName: __ZN8FoodPollC1Ev, symObjAddr: 0x80, symBinAddr: 0x100001A38, symSize: 0x2C }
  - { offsetInCU: 0x8299, offset: 0x8299, size: 0x8, addend: 0x0, symName: __ZN8FoodPoll13collectRatingEv, symObjAddr: 0xAC, symBinAddr: 0x100001A64, symSize: 0x1CC }
  - { offsetInCU: 0x8316, offset: 0x8316, size: 0x8, addend: 0x0, symName: __ZN8FoodPoll14displayResultsEv, symObjAddr: 0x278, symBinAddr: 0x100001C30, symSize: 0x61C }
  - { offsetInCU: 0x84AA, offset: 0x84AA, size: 0x8, addend: 0x0, symName: __ZN8FoodPollD1Ev, symObjAddr: 0x894, symBinAddr: 0x10000224C, symSize: 0x2C }
  - { offsetInCU: 0x84D5, offset: 0x84D5, size: 0x8, addend: 0x0, symName: __ZN8FoodPollC2Ev, symObjAddr: 0x8CC, symBinAddr: 0x100002284, symSize: 0x124 }
  - { offsetInCU: 0x8505, offset: 0x8505, size: 0x8, addend: 0x0, symName: __ZNSt3__112basic_stringIcNS_11char_traitsIcEENS_9allocatorIcEEEC1B7v160006IDnEEPKc, symObjAddr: 0x9F0, symBinAddr: 0x1000023A8, symSize: 0x34 }
  - { offsetInCU: 0x8543, offset: 0x8543, size: 0x8, addend: 0x0, symName: __ZNSt3__112basic_stringIcNS_11char_traitsIcEENS_9allocatorIcEEEC2B7v160006IDnEEPKc, symObjAddr: 0xA24, symBinAddr: 0x1000023DC, symSize: 0x60 }
  - { offsetInCU: 0x8586, offset: 0x8586, size: 0x8, addend: 0x0, symName: __ZNSt3__117__compressed_pairINS_12basic_stringIcNS_11char_traitsIcEENS_9allocatorIcEEE5__repES5_EC1B7v160006INS_18__default_init_tagESA_EEOT_OT0_, symObjAddr: 0xA84, symBinAddr: 0x10000243C, symSize: 0x3C }
  - { offsetInCU: 0x85DE, offset: 0x85DE, size: 0x8, addend: 0x0, symName: __ZNSt3__111char_traitsIcE6lengthEPKc, symObjAddr: 0xAC0, symBinAddr: 0x100002478, symSize: 0x48 }
  - { offsetInCU: 0x8601, offset: 0x8601, size: 0x8, addend: 0x0, symName: __ZNSt3__117__compressed_pairINS_12basic_stringIcNS_11char_traitsIcEENS_9allocatorIcEEE5__repES5_EC2B7v160006INS_18__default_init_tagESA_EEOT_OT0_, symObjAddr: 0xB18, symBinAddr: 0x1000024D0, symSize: 0x3C }
  - { offsetInCU: 0x8659, offset: 0x8659, size: 0x8, addend: 0x0, symName: __ZNSt3__122__compressed_pair_elemINS_12basic_stringIcNS_11char_traitsIcEENS_9allocatorIcEEE5__repELi0ELb0EEC2B7v160006ENS_18__default_init_tagE, symObjAddr: 0xB54, symBinAddr: 0x10000250C, symSize: 0x14 }
  - { offsetInCU: 0x868E, offset: 0x868E, size: 0x8, addend: 0x0, symName: __ZNSt3__122__compressed_pair_elemINS_9allocatorIcEELi1ELb1EEC2B7v160006ENS_18__default_init_tagE, symObjAddr: 0xB68, symBinAddr: 0x100002520, symSize: 0x2C }
  - { offsetInCU: 0x86C3, offset: 0x86C3, size: 0x8, addend: 0x0, symName: __ZNSt3__19allocatorIcEC2B7v160006Ev, symObjAddr: 0xB94, symBinAddr: 0x10000254C, symSize: 0x2C }
  - { offsetInCU: 0x86ED, offset: 0x86ED, size: 0x8, addend: 0x0, symName: __ZNSt3__116__non_trivial_ifILb1ENS_9allocatorIcEEEC2B7v160006Ev, symObjAddr: 0xBC0, symBinAddr: 0x100002578, symSize: 0x14 }
  - { offsetInCU: 0x8717, offset: 0x8717, size: 0x8, addend: 0x0, symName: __ZNSt3__113basic_ostreamIcNS_11char_traitsIcEEElsB7v160006EPFRS3_S4_E, symObjAddr: 0xC40, symBinAddr: 0x1000025F8, symSize: 0x2C }
  - { offsetInCU: 0x874B, offset: 0x874B, size: 0x8, addend: 0x0, symName: __ZNSt3__15arrayINS_12basic_stringIcNS_11char_traitsIcEENS_9allocatorIcEEEELm5EEixB7v160006Em, symObjAddr: 0xD10, symBinAddr: 0x1000026C8, symSize: 0x28 }
  - { offsetInCU: 0x877F, offset: 0x877F, size: 0x8, addend: 0x0, symName: __ZNKSt3__19basic_iosIcNS_11char_traitsIcEEE4failB7v160006Ev, symObjAddr: 0xD38, symBinAddr: 0x1000026F0, symSize: 0x28 }
  - { offsetInCU: 0x87A5, offset: 0x87A5, size: 0x8, addend: 0x0, symName: __ZNSt3__19basic_iosIcNS_11char_traitsIcEEE5clearB7v160006Ej, symObjAddr: 0xD60, symBinAddr: 0x100002718, symSize: 0x2C }
  - { offsetInCU: 0x87DA, offset: 0x87DA, size: 0x8, addend: 0x0, symName: __ZNSt3__15arrayINS0_IiLm5EEELm10EEixB7v160006Em, symObjAddr: 0xD8C, symBinAddr: 0x100002744, symSize: 0x28 }
  - { offsetInCU: 0x880E, offset: 0x880E, size: 0x8, addend: 0x0, symName: __ZNSt3__15arrayIiLm5EEixB7v160006Em, symObjAddr: 0xDB4, symBinAddr: 0x10000276C, symSize: 0x20 }
  - { offsetInCU: 0x8860, offset: 0x8860, size: 0x8, addend: 0x0, symName: __ZNKSt3__113basic_ostreamIcNS_11char_traitsIcEEE6sentrycvbB7v160006Ev, symObjAddr: 0xFC8, symBinAddr: 0x100002980, symSize: 0x1C }
  - { offsetInCU: 0x8886, offset: 0x8886, size: 0x8, addend: 0x0, symName: __ZNSt3__119ostreambuf_iteratorIcNS_11char_traitsIcEEEC1B7v160006ERNS_13basic_ostreamIcS2_EE, symObjAddr: 0x122C, symBinAddr: 0x100002BE4, symSize: 0x34 }
  - { offsetInCU: 0x88BE, offset: 0x88BE, size: 0x8, addend: 0x0, symName: __ZNKSt3__18ios_base5flagsB7v160006Ev, symObjAddr: 0x1260, symBinAddr: 0x100002C18, symSize: 0x18 }
  - { offsetInCU: 0x88E6, offset: 0x88E6, size: 0x8, addend: 0x0, symName: __ZNKSt3__19basic_iosIcNS_11char_traitsIcEEE4fillB7v160006Ev, symObjAddr: 0x1278, symBinAddr: 0x100002C30, symSize: 0x64 }
  - { offsetInCU: 0x890E, offset: 0x890E, size: 0x8, addend: 0x0, symName: __ZNKSt3__119ostreambuf_iteratorIcNS_11char_traitsIcEEE6failedB7v160006Ev, symObjAddr: 0x12DC, symBinAddr: 0x100002C94, symSize: 0x24 }
  - { offsetInCU: 0x8934, offset: 0x8934, size: 0x8, addend: 0x0, symName: __ZNSt3__19basic_iosIcNS_11char_traitsIcEEE8setstateB7v160006Ej, symObjAddr: 0x1300, symBinAddr: 0x100002CB8, symSize: 0x2C }
  - { offsetInCU: 0x8969, offset: 0x8969, size: 0x8, addend: 0x0, symName: __ZNKSt3__18ios_base5widthB7v160006Ev, symObjAddr: 0x132C, symBinAddr: 0x100002CE4, symSize: 0x18 }
  - { offsetInCU: 0x8991, offset: 0x8991, size: 0x8, addend: 0x0, symName: __ZNSt3__115basic_streambufIcNS_11char_traitsIcEEE5sputnB7v160006EPKcl, symObjAddr: 0x1344, symBinAddr: 0x100002CFC, symSize: 0x3C }
  - { offsetInCU: 0x89D3, offset: 0x89D3, size: 0x8, addend: 0x0, symName: __ZNSt3__112basic_stringIcNS_11char_traitsIcEENS_9allocatorIcEEEC1B7v160006Emc, symObjAddr: 0x1380, symBinAddr: 0x100002D38, symSize: 0x3C }
  - { offsetInCU: 0x8A1B, offset: 0x8A1B, size: 0x8, addend: 0x0, symName: __ZNKSt3__112basic_stringIcNS_11char_traitsIcEENS_9allocatorIcEEE4dataB7v160006Ev, symObjAddr: 0x13BC, symBinAddr: 0x100002D74, symSize: 0x28 }
  - { offsetInCU: 0x8A41, offset: 0x8A41, size: 0x8, addend: 0x0, symName: __ZNSt3__18ios_base5widthB7v160006El, symObjAddr: 0x13E4, symBinAddr: 0x100002D9C, symSize: 0x2C }
  - { offsetInCU: 0x8A87, offset: 0x8A87, size: 0x8, addend: 0x0, symName: __ZNSt3__112basic_stringIcNS_11char_traitsIcEENS_9allocatorIcEEEC2B7v160006Emc, symObjAddr: 0x1410, symBinAddr: 0x100002DC8, symSize: 0x54 }
  - { offsetInCU: 0x8ACF, offset: 0x8ACF, size: 0x8, addend: 0x0, symName: __ZNKSt3__112basic_stringIcNS_11char_traitsIcEENS_9allocatorIcEEE13__get_pointerB7v160006Ev, symObjAddr: 0x1478, symBinAddr: 0x100002E30, symSize: 0x54 }
  - { offsetInCU: 0x8AF5, offset: 0x8AF5, size: 0x8, addend: 0x0, symName: __ZNKSt3__112basic_stringIcNS_11char_traitsIcEENS_9allocatorIcEEE9__is_longB7v160006Ev, symObjAddr: 0x14CC, symBinAddr: 0x100002E84, symSize: 0x74 }
  - { offsetInCU: 0x8B1B, offset: 0x8B1B, size: 0x8, addend: 0x0, symName: __ZNKSt3__112basic_stringIcNS_11char_traitsIcEENS_9allocatorIcEEE18__get_long_pointerB7v160006Ev, symObjAddr: 0x1540, symBinAddr: 0x100002EF8, symSize: 0x28 }
  - { offsetInCU: 0x8B41, offset: 0x8B41, size: 0x8, addend: 0x0, symName: __ZNKSt3__112basic_stringIcNS_11char_traitsIcEENS_9allocatorIcEEE19__get_short_pointerB7v160006Ev, symObjAddr: 0x1568, symBinAddr: 0x100002F20, symSize: 0x28 }
  - { offsetInCU: 0x8B67, offset: 0x8B67, size: 0x8, addend: 0x0, symName: __ZNKSt3__117__compressed_pairINS_12basic_stringIcNS_11char_traitsIcEENS_9allocatorIcEEE5__repES5_E5firstB7v160006Ev, symObjAddr: 0x159C, symBinAddr: 0x100002F54, symSize: 0x24 }
  - { offsetInCU: 0x8B8D, offset: 0x8B8D, size: 0x8, addend: 0x0, symName: __ZNKSt3__122__compressed_pair_elemINS_12basic_stringIcNS_11char_traitsIcEENS_9allocatorIcEEE5__repELi0ELb0EE5__getB7v160006Ev, symObjAddr: 0x15C0, symBinAddr: 0x100002F78, symSize: 0x14 }
  - { offsetInCU: 0x8BB3, offset: 0x8BB3, size: 0x8, addend: 0x0, symName: __ZNSt3__114pointer_traitsIPKcE10pointer_toB7v160006ERS1_, symObjAddr: 0x15D4, symBinAddr: 0x100002F8C, symSize: 0x14 }
  - { offsetInCU: 0x8BD6, offset: 0x8BD6, size: 0x8, addend: 0x0, symName: __ZNSt3__119ostreambuf_iteratorIcNS_11char_traitsIcEEEC2B7v160006ERNS_13basic_ostreamIcS2_EE, symObjAddr: 0x15E8, symBinAddr: 0x100002FA0, symSize: 0x68 }
  - { offsetInCU: 0x8C0E, offset: 0x8C0E, size: 0x8, addend: 0x0, symName: __ZNKSt3__19basic_iosIcNS_11char_traitsIcEEE5rdbufB7v160006Ev, symObjAddr: 0x1650, symBinAddr: 0x100003008, symSize: 0x24 }
  - { offsetInCU: 0x8C36, offset: 0x8C36, size: 0x8, addend: 0x0, symName: __ZNKSt3__18ios_base5rdbufB7v160006Ev, symObjAddr: 0x1674, symBinAddr: 0x10000302C, symSize: 0x18 }
  - { offsetInCU: 0x8C5C, offset: 0x8C5C, size: 0x8, addend: 0x0, symName: __ZNSt3__111char_traitsIcE11eq_int_typeEii, symObjAddr: 0x168C, symBinAddr: 0x100003044, symSize: 0x28 }
  - { offsetInCU: 0x8C8D, offset: 0x8C8D, size: 0x8, addend: 0x0, symName: __ZNSt3__111char_traitsIcE3eofEv, symObjAddr: 0x16B4, symBinAddr: 0x10000306C, symSize: 0x8 }
  - { offsetInCU: 0x8CA1, offset: 0x8CA1, size: 0x8, addend: 0x0, symName: __ZNKSt3__19basic_iosIcNS_11char_traitsIcEEE5widenB7v160006Ec, symObjAddr: 0x16BC, symBinAddr: 0x100003074, symSize: 0x8C }
  - { offsetInCU: 0x8D0F, offset: 0x8D0F, size: 0x8, addend: 0x0, symName: __ZNKSt3__15ctypeIcE5widenB7v160006Ec, symObjAddr: 0x1774, symBinAddr: 0x10000312C, symSize: 0x38 }
  - { offsetInCU: 0x8D44, offset: 0x8D44, size: 0x8, addend: 0x0, symName: __ZNSt3__18ios_base8setstateB7v160006Ej, symObjAddr: 0x17AC, symBinAddr: 0x100003164, symSize: 0x34 }
  - { offsetInCU: 0x8D7B, offset: 0x8D7B, size: 0x8, addend: 0x0, symName: __ZNKSt3__112basic_stringIcNS_11char_traitsIcEENS_9allocatorIcEEE4sizeB7v160006Ev, symObjAddr: 0x17E0, symBinAddr: 0x100003198, symSize: 0x54 }
  - { offsetInCU: 0x8DA1, offset: 0x8DA1, size: 0x8, addend: 0x0, symName: __ZNKSt3__112basic_stringIcNS_11char_traitsIcEENS_9allocatorIcEEE15__get_long_sizeB7v160006Ev, symObjAddr: 0x1834, symBinAddr: 0x1000031EC, symSize: 0x28 }
  - { offsetInCU: 0x8DC7, offset: 0x8DC7, size: 0x8, addend: 0x0, symName: __ZNKSt3__112basic_stringIcNS_11char_traitsIcEENS_9allocatorIcEEE16__get_short_sizeB7v160006Ev, symObjAddr: 0x185C, symBinAddr: 0x100003214, symSize: 0x34 }
  - { offsetInCU: 0x8DED, offset: 0x8DED, size: 0x8, addend: 0x0, symName: __ZNKSt3__18ios_base4failB7v160006Ev, symObjAddr: 0x1890, symBinAddr: 0x100003248, symSize: 0x28 }
  - { offsetInCU: 0x8E15, offset: 0x8E15, size: 0x8, addend: 0x0, symName: __ZNSt3__113basic_ostreamIcNS_11char_traitsIcEEElsB7v160006EPFRNS_8ios_baseES5_E, symObjAddr: 0x1924, symBinAddr: 0x1000032DC, symSize: 0x40 }
  - { offsetInCU: 0x8E49, offset: 0x8E49, size: 0x8, addend: 0x0, symName: __ZNSt3__114numeric_limitsIiE3maxB7v160006Ev, symObjAddr: 0x19C4, symBinAddr: 0x10000337C, symSize: 0x14 }
  - { offsetInCU: 0x8E5D, offset: 0x8E5D, size: 0x8, addend: 0x0, symName: __ZNSt3__112basic_stringIcNS_11char_traitsIcEENS_9allocatorIcEEEC1B7v160006Ev, symObjAddr: 0x19D8, symBinAddr: 0x100003390, symSize: 0x2C }
  - { offsetInCU: 0x8E87, offset: 0x8E87, size: 0x8, addend: 0x0, symName: __ZNSt3__18__iom_t6C1B7v160006Ei, symObjAddr: 0x1A04, symBinAddr: 0x1000033BC, symSize: 0x34 }
  - { offsetInCU: 0x8EBF, offset: 0x8EBF, size: 0x8, addend: 0x0, symName: __ZNSt3__18__iom_t6C2B7v160006Ei, symObjAddr: 0x1A38, symBinAddr: 0x1000033F0, symSize: 0x20 }
  - { offsetInCU: 0x8EF7, offset: 0x8EF7, size: 0x8, addend: 0x0, symName: __ZNSt3__18ios_base4setfB7v160006Ejj, symObjAddr: 0x1A58, symBinAddr: 0x100003410, symSize: 0x5C }
  - { offsetInCU: 0x8F4C, offset: 0x8F4C, size: 0x8, addend: 0x0, symName: __ZNSt3__18ios_base6unsetfB7v160006Ej, symObjAddr: 0x1AB4, symBinAddr: 0x10000346C, symSize: 0x28 }
  - { offsetInCU: 0x8F83, offset: 0x8F83, size: 0x8, addend: 0x0, symName: __ZNSt3__123__libcpp_numeric_limitsIiLb1EE3maxB7v160006Ev, symObjAddr: 0x1ADC, symBinAddr: 0x100003494, symSize: 0x8 }
  - { offsetInCU: 0x8F97, offset: 0x8F97, size: 0x8, addend: 0x0, symName: __ZNSt3__112basic_stringIcNS_11char_traitsIcEENS_9allocatorIcEEEC2B7v160006Ev, symObjAddr: 0x1AE4, symBinAddr: 0x10000349C, symSize: 0x44 }
  - { offsetInCU: 0x8FC1, offset: 0x8FC1, size: 0x8, addend: 0x0, symName: __ZNSt3__112basic_stringIcNS_11char_traitsIcEENS_9allocatorIcEEE14__default_initB7v160006Ev, symObjAddr: 0x1B28, symBinAddr: 0x1000034E0, symSize: 0xB0 }
  - { offsetInCU: 0x9014, offset: 0x9014, size: 0x8, addend: 0x0, symName: __ZNSt3__117__compressed_pairINS_12basic_stringIcNS_11char_traitsIcEENS_9allocatorIcEEE5__repES5_E5firstB7v160006Ev, symObjAddr: 0x1BD8, symBinAddr: 0x100003590, symSize: 0x24 }
  - { offsetInCU: 0x903A, offset: 0x903A, size: 0x8, addend: 0x0, symName: __ZNSt3__112basic_stringIcNS_11char_traitsIcEENS_9allocatorIcEEE11__recommendB7v160006Em, symObjAddr: 0x1BFC, symBinAddr: 0x1000035B4, symSize: 0x9C }
  - { offsetInCU: 0x906D, offset: 0x906D, size: 0x8, addend: 0x0, symName: __ZNSt3__116allocator_traitsINS_9allocatorIcEEE8allocateB7v160006ERS2_m, symObjAddr: 0x1C98, symBinAddr: 0x100003650, symSize: 0x2C }
  - { offsetInCU: 0x90A0, offset: 0x90A0, size: 0x8, addend: 0x0, symName: __ZNSt3__112basic_stringIcNS_11char_traitsIcEENS_9allocatorIcEEE7__allocB7v160006Ev, symObjAddr: 0x1CC4, symBinAddr: 0x10000367C, symSize: 0x24 }
  - { offsetInCU: 0x90C6, offset: 0x90C6, size: 0x8, addend: 0x0, symName: __ZNSt3__112basic_stringIcNS_11char_traitsIcEENS_9allocatorIcEEE16__begin_lifetimeB7v160006EPcm, symObjAddr: 0x1CE8, symBinAddr: 0x1000036A0, symSize: 0x14 }
  - { offsetInCU: 0x90F9, offset: 0x90F9, size: 0x8, addend: 0x0, symName: __ZNSt3__112basic_stringIcNS_11char_traitsIcEENS_9allocatorIcEEE18__set_long_pointerB7v160006EPc, symObjAddr: 0x1CFC, symBinAddr: 0x1000036B4, symSize: 0x38 }
  - { offsetInCU: 0x912E, offset: 0x912E, size: 0x8, addend: 0x0, symName: __ZNSt3__112basic_stringIcNS_11char_traitsIcEENS_9allocatorIcEEE14__set_long_capB7v160006Em, symObjAddr: 0x1D34, symBinAddr: 0x1000036EC, symSize: 0x70 }
  - { offsetInCU: 0x9163, offset: 0x9163, size: 0x8, addend: 0x0, symName: __ZNSt3__112basic_stringIcNS_11char_traitsIcEENS_9allocatorIcEEE15__set_long_sizeB7v160006Em, symObjAddr: 0x1DA4, symBinAddr: 0x10000375C, symSize: 0x38 }
  - { offsetInCU: 0x9198, offset: 0x9198, size: 0x8, addend: 0x0, symName: __ZNSt3__122__compressed_pair_elemINS_12basic_stringIcNS_11char_traitsIcEENS_9allocatorIcEEE5__repELi0ELb0EE5__getB7v160006Ev, symObjAddr: 0x1DDC, symBinAddr: 0x100003794, symSize: 0x14 }
  - { offsetInCU: 0x91BE, offset: 0x91BE, size: 0x8, addend: 0x0, symName: __ZNSt3__112basic_stringIcNS_11char_traitsIcEENS_9allocatorIcEEE10__align_itB7v160006ILm16EEEmm, symObjAddr: 0x1DF0, symBinAddr: 0x1000037A8, symSize: 0x1C }
  - { offsetInCU: 0x91EC, offset: 0x91EC, size: 0x8, addend: 0x0, symName: __ZNSt3__19allocatorIcE8allocateB7v160006Em, symObjAddr: 0x1E0C, symBinAddr: 0x1000037C4, symSize: 0x84 }
  - { offsetInCU: 0x922A, offset: 0x922A, size: 0x8, addend: 0x0, symName: __ZNSt3__116allocator_traitsINS_9allocatorIcEEE8max_sizeB7v160006IS2_vEEmRKS2_, symObjAddr: 0x1E90, symBinAddr: 0x100003848, symSize: 0x24 }
  - { offsetInCU: 0x9258, offset: 0x9258, size: 0x8, addend: 0x0, symName: __ZNKSt3__19allocatorIcE8max_sizeB7v160006Ev, symObjAddr: 0x1F10, symBinAddr: 0x1000038C8, symSize: 0x14 }
  - { offsetInCU: 0x927E, offset: 0x927E, size: 0x8, addend: 0x0, symName: __ZNSt3__117__compressed_pairINS_12basic_stringIcNS_11char_traitsIcEENS_9allocatorIcEEE5__repES5_E6secondB7v160006Ev, symObjAddr: 0x1F48, symBinAddr: 0x100003900, symSize: 0x24 }
  - { offsetInCU: 0x92A4, offset: 0x92A4, size: 0x8, addend: 0x0, symName: __ZNSt3__122__compressed_pair_elemINS_9allocatorIcEELi1ELb1EE5__getB7v160006Ev, symObjAddr: 0x1F6C, symBinAddr: 0x100003924, symSize: 0x14 }
  - { offsetInCU: 0x92CA, offset: 0x92CA, size: 0x8, addend: 0x0, symName: __ZN8FoodPollD2Ev, symObjAddr: 0x1F80, symBinAddr: 0x100003938, symSize: 0x2C }
  - { offsetInCU: 0x92F5, offset: 0x92F5, size: 0x8, addend: 0x0, symName: __ZNSt3__15arrayINS_12basic_stringIcNS_11char_traitsIcEENS_9allocatorIcEEEELm5EED1Ev, symObjAddr: 0x1FAC, symBinAddr: 0x100003964, symSize: 0x2C }
  - { offsetInCU: 0x9320, offset: 0x9320, size: 0x8, addend: 0x0, symName: __ZNSt3__15arrayINS_12basic_stringIcNS_11char_traitsIcEENS_9allocatorIcEEEELm5EED2Ev, symObjAddr: 0x1FD8, symBinAddr: 0x100003990, symSize: 0xD0 }
...
