---
triple:          'arm64-apple-darwin'
binary-path:     '/Users/spoofch/Documents/Lab_C++/Lab4/1_2'
relocations:
  - { offsetInCU: 0x43C0, offset: 0x43C0, size: 0x8, addend: 0x0, symName: __ZNSt3__124__put_character_sequenceB7v160006IcNS_11char_traitsIcEEEERNS_13basic_ostreamIT_T0_EES7_PKS4_m, symObjAddr: 0x2510, symBinAddr: 0x100002F08, symSize: 0x1EC }
  - { offsetInCU: 0x5F26, offset: 0x5F26, size: 0x8, addend: 0x0, symName: __ZNSt3__1lsB7v160006INS_11char_traitsIcEEEERNS_13basic_ostreamIcT_EES6_PKc, symObjAddr: 0x4D4, symBinAddr: 0x100000ECC, symSize: 0x48 }
  - { offsetInCU: 0x5F6C, offset: 0x5F6C, size: 0x8, addend: 0x0, symName: __ZNSt3__1neB7v160006IPdEEbRKNS_11__wrap_iterIT_EES6_, symObjAddr: 0x54C, symBinAddr: 0x100000F44, symSize: 0x34 }
  - { offsetInCU: 0x5FAF, offset: 0x5FAF, size: 0x8, addend: 0x0, symName: __ZNSt3__14endlB7v160006IcNS_11char_traitsIcEEEERNS_13basic_ostreamIT_T0_EES7_, symObjAddr: 0x5E4, symBinAddr: 0x100000FDC, symSize: 0x58 }
  - { offsetInCU: 0x5FEF, offset: 0x5FEF, size: 0x8, addend: 0x0, symName: __ZNSt3__1eqB7v160006IPdEEbRKNS_11__wrap_iterIT_EES6_, symObjAddr: 0x668, symBinAddr: 0x100001060, symSize: 0x48 }
  - { offsetInCU: 0x6032, offset: 0x6032, size: 0x8, addend: 0x0, symName: __ZNSt3__1miB7v160006IPKdS2_EEDTmicldtfp_4baseEcldtfp0_4baseEERKNS_11__wrap_iterIT_EERKNS4_IT0_EE, symObjAddr: 0x784, symBinAddr: 0x10000117C, symSize: 0x48 }
  - { offsetInCU: 0x607E, offset: 0x607E, size: 0x8, addend: 0x0, symName: __ZNSt3__14moveB7v160006IPdS1_EET0_T_S3_S2_, symObjAddr: 0x858, symBinAddr: 0x100001250, symSize: 0x40 }
  - { offsetInCU: 0x60D8, offset: 0x60D8, size: 0x8, addend: 0x0, symName: __ZNSt3__112__to_addressB7v160006IdEEPT_S2_, symObjAddr: 0xB28, symBinAddr: 0x100001520, symSize: 0x14 }
  - { offsetInCU: 0x610D, offset: 0x610D, size: 0x8, addend: 0x0, symName: __ZNSt3__16__moveB7v160006INS_17_ClassicAlgPolicyEPdS2_S2_EENS_4pairIT0_T2_EES4_T1_S5_, symObjAddr: 0xC70, symBinAddr: 0x100001668, symSize: 0x44 }
  - { offsetInCU: 0x6179, offset: 0x6179, size: 0x8, addend: 0x0, symName: __ZNSt3__123__dispatch_copy_or_moveB7v160006INS_17_ClassicAlgPolicyENS_11__move_loopIS1_EENS_14__move_trivialEPdS5_S5_EENS_4pairIT2_T4_EES7_T3_S8_, symObjAddr: 0xCB4, symBinAddr: 0x1000016AC, symSize: 0x44 }
  - { offsetInCU: 0x61F7, offset: 0x61F7, size: 0x8, addend: 0x0, symName: __ZNSt3__121__unwrap_and_dispatchB7v160006INS_10__overloadINS_11__move_loopINS_17_ClassicAlgPolicyEEENS_14__move_trivialEEEPdS7_S7_Li0EEENS_4pairIT0_T2_EES9_T1_SA_, symObjAddr: 0xCF8, symBinAddr: 0x1000016F0, symSize: 0xB4 }
  - { offsetInCU: 0x6285, offset: 0x6285, size: 0x8, addend: 0x0, symName: __ZNSt3__114__unwrap_rangeB7v160006IPdS1_EENS_4pairIT0_S3_EET_S5_, symObjAddr: 0xDAC, symBinAddr: 0x1000017A4, symSize: 0x60 }
  - { offsetInCU: 0x641A, offset: 0x641A, size: 0x8, addend: 0x0, symName: __ZNSt3__113__unwrap_iterB7v160006IPdNS_18__unwrap_iter_implIS1_Lb1EEELi0EEEDTclsrT0_8__unwrapclsr3stdE7declvalIT_EEEES5_, symObjAddr: 0xE54, symBinAddr: 0x10000184C, symSize: 0x24 }
  - { offsetInCU: 0x645E, offset: 0x645E, size: 0x8, addend: 0x0, symName: __ZNSt3__19make_pairB7v160006IPdS1_EENS_4pairINS_18__unwrap_ref_decayIT_E4typeENS3_IT0_E4typeEEEOS4_OS7_, symObjAddr: 0xE78, symBinAddr: 0x100001870, symSize: 0x38 }
  - { offsetInCU: 0x64AD, offset: 0x64AD, size: 0x8, addend: 0x0, symName: __ZNSt3__114__rewrap_rangeB7v160006IPdS1_EET_S2_T0_, symObjAddr: 0xEB0, symBinAddr: 0x1000018A8, symSize: 0x2C }
  - { offsetInCU: 0x64F9, offset: 0x64F9, size: 0x8, addend: 0x0, symName: __ZNSt3__113__rewrap_iterB7v160006IPdS1_NS_18__unwrap_iter_implIS1_Lb1EEEEET_S4_T0_, symObjAddr: 0xEDC, symBinAddr: 0x1000018D4, symSize: 0x3C }
  - { offsetInCU: 0x654E, offset: 0x654E, size: 0x8, addend: 0x0, symName: __ZNSt3__119__copy_trivial_implB7v160006IddEENS_4pairIPT_PT0_EES3_S3_S5_, symObjAddr: 0xF18, symBinAddr: 0x100001910, symSize: 0x84 }
  - { offsetInCU: 0x65B6, offset: 0x65B6, size: 0x8, addend: 0x0, symName: __ZNSt3__19make_pairB7v160006IRPdS1_EENS_4pairINS_18__unwrap_ref_decayIT_E4typeENS4_IT0_E4typeEEEOS5_OS8_, symObjAddr: 0xF9C, symBinAddr: 0x100001994, symSize: 0x38 }
  - { offsetInCU: 0x6658, offset: 0x6658, size: 0x8, addend: 0x0, symName: __ZNSt3__122__make_exception_guardB7v160006INS_6vectorIdNS_9allocatorIdEEE16__destroy_vectorEEENS_28__exception_guard_exceptionsIT_EES7_, symObjAddr: 0x12C8, symBinAddr: 0x100001CC0, symSize: 0x40 }
  - { offsetInCU: 0x668D, offset: 0x668D, size: 0x8, addend: 0x0, symName: __ZNSt3__119__debug_db_insert_cB7v160006INS_6vectorIdNS_9allocatorIdEEEEEEvPT_, symObjAddr: 0x133C, symBinAddr: 0x100001D34, symSize: 0x10 }
  - { offsetInCU: 0x66BE, offset: 0x66BE, size: 0x8, addend: 0x0, symName: __ZNSt3__119__allocate_at_leastB7v160006INS_9allocatorIdEEEENS_19__allocation_resultINS_16allocator_traitsIT_E7pointerEEERS5_m, symObjAddr: 0x16D8, symBinAddr: 0x1000020D0, symSize: 0x40 }
  - { offsetInCU: 0x6701, offset: 0x6701, size: 0x8, addend: 0x0, symName: __ZNSt3__13minB7v160006ImEERKT_S3_S3_, symObjAddr: 0x17EC, symBinAddr: 0x1000021E4, symSize: 0x2C }
  - { offsetInCU: 0x6945, offset: 0x6945, size: 0x8, addend: 0x0, symName: __ZNSt3__13minB7v160006ImNS_6__lessImmEEEERKT_S5_S5_T0_, symObjAddr: 0x1878, symBinAddr: 0x100002270, symSize: 0x54 }
  - { offsetInCU: 0x69DA, offset: 0x69DA, size: 0x8, addend: 0x0, symName: __ZNSt3__120__throw_length_errorB7v160006EPKc, symObjAddr: 0x1954, symBinAddr: 0x10000234C, symSize: 0x64 }
  - { offsetInCU: 0x6A02, offset: 0x6A02, size: 0x8, addend: 0x0, symName: __ZNSt3__117__libcpp_allocateB7v160006Emm, symObjAddr: 0x1AC4, symBinAddr: 0x1000024BC, symSize: 0x28 }
  - { offsetInCU: 0x6A3F, offset: 0x6A3F, size: 0x8, addend: 0x0, symName: __ZNSt3__121__libcpp_operator_newB7v160006IJmEEEPvDpT_, symObjAddr: 0x1AEC, symBinAddr: 0x1000024E4, symSize: 0x24 }
  - { offsetInCU: 0x6A78, offset: 0x6A78, size: 0x8, addend: 0x0, symName: __ZNSt3__130__uninitialized_allocator_copyB7v160006INS_9allocatorIdEEddLPv0EEEPT0_RT_PKS4_S9_S5_, symObjAddr: 0x1B84, symBinAddr: 0x10000257C, symSize: 0x38 }
  - { offsetInCU: 0x6AF0, offset: 0x6AF0, size: 0x8, addend: 0x0, symName: __ZNSt3__14copyB7v160006IPKdPdEET0_T_S5_S4_, symObjAddr: 0x1C2C, symBinAddr: 0x100002624, symSize: 0x40 }
  - { offsetInCU: 0x6B4A, offset: 0x6B4A, size: 0x8, addend: 0x0, symName: __ZNSt3__16__copyB7v160006INS_17_ClassicAlgPolicyEPKdS3_PdEENS_4pairIT0_T2_EES6_T1_S7_, symObjAddr: 0x1C6C, symBinAddr: 0x100002664, symSize: 0x44 }
  - { offsetInCU: 0x6BB6, offset: 0x6BB6, size: 0x8, addend: 0x0, symName: __ZNSt3__123__dispatch_copy_or_moveB7v160006INS_17_ClassicAlgPolicyENS_11__copy_loopIS1_EENS_14__copy_trivialEPKdS6_PdEENS_4pairIT2_T4_EES9_T3_SA_, symObjAddr: 0x1CB0, symBinAddr: 0x1000026A8, symSize: 0x44 }
  - { offsetInCU: 0x6C34, offset: 0x6C34, size: 0x8, addend: 0x0, symName: __ZNSt3__121__unwrap_and_dispatchB7v160006INS_10__overloadINS_11__copy_loopINS_17_ClassicAlgPolicyEEENS_14__copy_trivialEEEPKdS8_PdLi0EEENS_4pairIT0_T2_EESB_T1_SC_, symObjAddr: 0x1CF4, symBinAddr: 0x1000026EC, symSize: 0xB4 }
  - { offsetInCU: 0x6CC2, offset: 0x6CC2, size: 0x8, addend: 0x0, symName: __ZNSt3__114__unwrap_rangeB7v160006IPKdS2_EENS_4pairIT0_S4_EET_S6_, symObjAddr: 0x1DA8, symBinAddr: 0x1000027A0, symSize: 0x60 }
  - { offsetInCU: 0x6E57, offset: 0x6E57, size: 0x8, addend: 0x0, symName: __ZNSt3__19make_pairB7v160006IPKdPdEENS_4pairINS_18__unwrap_ref_decayIT_E4typeENS5_IT0_E4typeEEEOS6_OS9_, symObjAddr: 0x1E50, symBinAddr: 0x100002848, symSize: 0x38 }
  - { offsetInCU: 0x6EA6, offset: 0x6EA6, size: 0x8, addend: 0x0, symName: __ZNSt3__114__rewrap_rangeB7v160006IPKdS2_EET_S3_T0_, symObjAddr: 0x1E88, symBinAddr: 0x100002880, symSize: 0x2C }
  - { offsetInCU: 0x6EF2, offset: 0x6EF2, size: 0x8, addend: 0x0, symName: __ZNSt3__19make_pairB7v160006IPKdS2_EENS_4pairINS_18__unwrap_ref_decayIT_E4typeENS4_IT0_E4typeEEEOS5_OS8_, symObjAddr: 0x1EB4, symBinAddr: 0x1000028AC, symSize: 0x38 }
  - { offsetInCU: 0x6F41, offset: 0x6F41, size: 0x8, addend: 0x0, symName: __ZNSt3__113__unwrap_iterB7v160006IPKdNS_18__unwrap_iter_implIS2_Lb1EEELi0EEEDTclsrT0_8__unwrapclsr3stdE7declvalIT_EEEES6_, symObjAddr: 0x1EEC, symBinAddr: 0x1000028E4, symSize: 0x24 }
  - { offsetInCU: 0x70AC, offset: 0x70AC, size: 0x8, addend: 0x0, symName: __ZNSt3__112__to_addressB7v160006IKdEEPT_S3_, symObjAddr: 0x1FA4, symBinAddr: 0x10000299C, symSize: 0x14 }
  - { offsetInCU: 0x70E1, offset: 0x70E1, size: 0x8, addend: 0x0, symName: __ZNSt3__119__copy_trivial_implB7v160006IKddEENS_4pairIPT_PT0_EES4_S4_S6_, symObjAddr: 0x1FB8, symBinAddr: 0x1000029B0, symSize: 0x84 }
  - { offsetInCU: 0x7149, offset: 0x7149, size: 0x8, addend: 0x0, symName: __ZNSt3__19make_pairB7v160006IRPKdPdEENS_4pairINS_18__unwrap_ref_decayIT_E4typeENS6_IT0_E4typeEEEOS7_OSA_, symObjAddr: 0x203C, symBinAddr: 0x100002A34, symSize: 0x38 }
  - { offsetInCU: 0x7198, offset: 0x7198, size: 0x8, addend: 0x0, symName: __ZNSt3__113__rewrap_iterB7v160006IPKdS2_NS_18__unwrap_iter_implIS2_Lb1EEEEET_S5_T0_, symObjAddr: 0x2154, symBinAddr: 0x100002B4C, symSize: 0x3C }
  - { offsetInCU: 0x71ED, offset: 0x71ED, size: 0x8, addend: 0x0, symName: __ZNSt3__118__debug_db_erase_cB7v160006INS_6vectorIdNS_9allocatorIdEEEEEEvPT_, symObjAddr: 0x23A4, symBinAddr: 0x100002D9C, symSize: 0x10 }
  - { offsetInCU: 0x721E, offset: 0x721E, size: 0x8, addend: 0x0, symName: __ZNSt3__119__libcpp_deallocateB7v160006EPvmm, symObjAddr: 0x2450, symBinAddr: 0x100002E48, symSize: 0x30 }
  - { offsetInCU: 0x7266, offset: 0x7266, size: 0x8, addend: 0x0, symName: __ZNSt3__127__do_deallocate_handle_sizeB7v160006IJEEEvPvmDpT_, symObjAddr: 0x2480, symBinAddr: 0x100002E78, symSize: 0x28 }
  - { offsetInCU: 0x72A4, offset: 0x72A4, size: 0x8, addend: 0x0, symName: __ZNSt3__124__libcpp_operator_deleteB7v160006IJPvEEEvDpT_, symObjAddr: 0x24A8, symBinAddr: 0x100002EA0, symSize: 0x24 }
  - { offsetInCU: 0x72D9, offset: 0x72D9, size: 0x8, addend: 0x0, symName: __ZNSt3__116__pad_and_outputB7v160006IcNS_11char_traitsIcEEEENS_19ostreambuf_iteratorIT_T0_EES6_PKS4_S8_S8_RNS_8ios_baseES4_, symObjAddr: 0x274C, symBinAddr: 0x100003144, symSize: 0x240 }
  - { offsetInCU: 0x73A8, offset: 0x73A8, size: 0x8, addend: 0x0, symName: __ZNSt3__119__debug_db_insert_cB7v160006INS_12basic_stringIcNS_11char_traitsIcEENS_9allocatorIcEEEEEEvPT_, symObjAddr: 0x2C00, symBinAddr: 0x1000035F8, symSize: 0x10 }
  - { offsetInCU: 0x73D9, offset: 0x73D9, size: 0x8, addend: 0x0, symName: __ZNSt3__112__to_addressB7v160006IKcEEPT_S3_, symObjAddr: 0x2CCC, symBinAddr: 0x1000036C4, symSize: 0x14 }
  - { offsetInCU: 0x7441, offset: 0x7441, size: 0x8, addend: 0x0, symName: __ZNSt3__19use_facetB7v160006INS_5ctypeIcEEEERKT_RKNS_6localeE, symObjAddr: 0x2F4C, symBinAddr: 0x100003944, symSize: 0x2C }
  - { offsetInCU: 0x7910, offset: 0x7910, size: 0x8, addend: 0x0, symName: __ZNSt3__118__constexpr_strlenB7v160006EPKc, symObjAddr: 0x2FE4, symBinAddr: 0x1000039DC, symSize: 0x24 }
  - { offsetInCU: 0x7C85, offset: 0x7C85, size: 0x8, addend: 0x0, symName: __ZSt28__throw_bad_array_new_lengthB7v160006v, symObjAddr: 0x1A90, symBinAddr: 0x100002488, symSize: 0x34 }
  - { offsetInCU: 0xA2CA, offset: 0xA2CA, size: 0x8, addend: 0x0, symName: __Z15remove_negativeRNSt3__16vectorIdNS_9allocatorIdEEEE, symObjAddr: 0x0, symBinAddr: 0x1000009F8, symSize: 0xD4 }
  - { offsetInCU: 0xA310, offset: 0xA310, size: 0x8, addend: 0x0, symName: __ZNKSt3__16vectorIdNS_9allocatorIdEEE4sizeB7v160006Ev, symObjAddr: 0xD4, symBinAddr: 0x100000ACC, symSize: 0x28 }
  - { offsetInCU: 0xA336, offset: 0xA336, size: 0x8, addend: 0x0, symName: __ZNSt3__16vectorIdNS_9allocatorIdEEEixB7v160006Em, symObjAddr: 0xFC, symBinAddr: 0x100000AF4, symSize: 0x24 }
  - { offsetInCU: 0xA36D, offset: 0xA36D, size: 0x8, addend: 0x0, symName: __ZNSt3__16vectorIdNS_9allocatorIdEEE5eraseB7v160006ENS_11__wrap_iterIPKdEE, symObjAddr: 0x120, symBinAddr: 0x100000B18, symSize: 0xA4 }
  - { offsetInCU: 0xA3C2, offset: 0xA3C2, size: 0x8, addend: 0x0, symName: __ZNSt3__16vectorIdNS_9allocatorIdEEE5beginB7v160006Ev, symObjAddr: 0x1C4, symBinAddr: 0x100000BBC, symSize: 0x30 }
  - { offsetInCU: 0xA3EA, offset: 0xA3EA, size: 0x8, addend: 0x0, symName: __ZNKSt3__111__wrap_iterIPdEplB7v160006El, symObjAddr: 0x1F4, symBinAddr: 0x100000BEC, symSize: 0x3C }
  - { offsetInCU: 0xA436, offset: 0xA436, size: 0x8, addend: 0x0, symName: __ZNSt3__111__wrap_iterIPKdEC1B7v160006IPdEERKNS0_IT_EEPNS_9enable_ifIXsr14is_convertibleIS6_S2_EE5valueEvE4typeE, symObjAddr: 0x230, symBinAddr: 0x100000C28, symSize: 0x3C }
  - { offsetInCU: 0xA482, offset: 0xA482, size: 0x8, addend: 0x0, symName: _main, symObjAddr: 0x26C, symBinAddr: 0x100000C64, symSize: 0x22C }
  - { offsetInCU: 0xA558, offset: 0xA558, size: 0x8, addend: 0x0, symName: __ZNSt3__16vectorIdNS_9allocatorIdEEEC1B7v160006ESt16initializer_listIdE, symObjAddr: 0x498, symBinAddr: 0x100000E90, symSize: 0x3C }
  - { offsetInCU: 0xA593, offset: 0xA593, size: 0x8, addend: 0x0, symName: __ZNSt3__16vectorIdNS_9allocatorIdEEE3endB7v160006Ev, symObjAddr: 0x51C, symBinAddr: 0x100000F14, symSize: 0x30 }
  - { offsetInCU: 0xA5BB, offset: 0xA5BB, size: 0x8, addend: 0x0, symName: __ZNKSt3__111__wrap_iterIPdEdeB7v160006Ev, symObjAddr: 0x580, symBinAddr: 0x100000F78, symSize: 0x18 }
  - { offsetInCU: 0xA5E1, offset: 0xA5E1, size: 0x8, addend: 0x0, symName: __ZNSt3__111__wrap_iterIPdEppB7v160006Ev, symObjAddr: 0x598, symBinAddr: 0x100000F90, symSize: 0x20 }
  - { offsetInCU: 0xA607, offset: 0xA607, size: 0x8, addend: 0x0, symName: __ZNSt3__113basic_ostreamIcNS_11char_traitsIcEEElsB7v160006EPFRS3_S4_E, symObjAddr: 0x5B8, symBinAddr: 0x100000FB0, symSize: 0x2C }
  - { offsetInCU: 0xA63B, offset: 0xA63B, size: 0x8, addend: 0x0, symName: __ZNSt3__16vectorIdNS_9allocatorIdEEED1B7v160006Ev, symObjAddr: 0x63C, symBinAddr: 0x100001034, symSize: 0x2C }
  - { offsetInCU: 0xA665, offset: 0xA665, size: 0x8, addend: 0x0, symName: __ZNKSt3__111__wrap_iterIPdE4baseB7v160006Ev, symObjAddr: 0x6B0, symBinAddr: 0x1000010A8, symSize: 0x18 }
  - { offsetInCU: 0xA68B, offset: 0xA68B, size: 0x8, addend: 0x0, symName: __ZNSt3__16vectorIdNS_9allocatorIdEEE11__make_iterB7v160006EPd, symObjAddr: 0x6C8, symBinAddr: 0x1000010C0, symSize: 0x34 }
  - { offsetInCU: 0xA6C0, offset: 0xA6C0, size: 0x8, addend: 0x0, symName: __ZNSt3__111__wrap_iterIPdEC1B7v160006EPKvS1_, symObjAddr: 0x6FC, symBinAddr: 0x1000010F4, symSize: 0x3C }
  - { offsetInCU: 0xA706, offset: 0xA706, size: 0x8, addend: 0x0, symName: __ZNSt3__111__wrap_iterIPdEC2B7v160006EPKvS1_, symObjAddr: 0x738, symBinAddr: 0x100001130, symSize: 0x24 }
  - { offsetInCU: 0xA74C, offset: 0xA74C, size: 0x8, addend: 0x0, symName: __ZNSt3__111__wrap_iterIPdEpLB7v160006El, symObjAddr: 0x75C, symBinAddr: 0x100001154, symSize: 0x28 }
  - { offsetInCU: 0xA780, offset: 0xA780, size: 0x8, addend: 0x0, symName: __ZNKSt3__16vectorIdNS_9allocatorIdEEE6cbeginB7v160006Ev, symObjAddr: 0x7CC, symBinAddr: 0x1000011C4, symSize: 0x2C }
  - { offsetInCU: 0xA7A6, offset: 0xA7A6, size: 0x8, addend: 0x0, symName: __ZNSt3__16vectorIdNS_9allocatorIdEEE17__destruct_at_endB7v160006EPd, symObjAddr: 0x7F8, symBinAddr: 0x1000011F0, symSize: 0x60 }
  - { offsetInCU: 0xA7EA, offset: 0xA7EA, size: 0x8, addend: 0x0, symName: __ZNSt3__16vectorIdNS_9allocatorIdEEE27__invalidate_iterators_pastB7v160006EPd, symObjAddr: 0x898, symBinAddr: 0x100001290, symSize: 0x14 }
  - { offsetInCU: 0xA821, offset: 0xA821, size: 0x8, addend: 0x0, symName: __ZNKSt3__111__wrap_iterIPKdE4baseB7v160006Ev, symObjAddr: 0x8AC, symBinAddr: 0x1000012A4, symSize: 0x18 }
  - { offsetInCU: 0xA847, offset: 0xA847, size: 0x8, addend: 0x0, symName: __ZNKSt3__16vectorIdNS_9allocatorIdEEE5beginB7v160006Ev, symObjAddr: 0x8C4, symBinAddr: 0x1000012BC, symSize: 0x30 }
  - { offsetInCU: 0xA86F, offset: 0xA86F, size: 0x8, addend: 0x0, symName: __ZNKSt3__16vectorIdNS_9allocatorIdEEE11__make_iterB7v160006EPKd, symObjAddr: 0x8F4, symBinAddr: 0x1000012EC, symSize: 0x34 }
  - { offsetInCU: 0xA8A4, offset: 0xA8A4, size: 0x8, addend: 0x0, symName: __ZNSt3__111__wrap_iterIPKdEC1B7v160006EPKvS2_, symObjAddr: 0x928, symBinAddr: 0x100001320, symSize: 0x3C }
  - { offsetInCU: 0xA8EA, offset: 0xA8EA, size: 0x8, addend: 0x0, symName: __ZNSt3__111__wrap_iterIPKdEC2B7v160006EPKvS2_, symObjAddr: 0x964, symBinAddr: 0x10000135C, symSize: 0x24 }
  - { offsetInCU: 0xA930, offset: 0xA930, size: 0x8, addend: 0x0, symName: __ZNSt3__16vectorIdNS_9allocatorIdEEE22__base_destruct_at_endB7v160006EPd, symObjAddr: 0x994, symBinAddr: 0x10000138C, symSize: 0x8C }
  - { offsetInCU: 0xA974, offset: 0xA974, size: 0x8, addend: 0x0, symName: __ZNKSt3__16vectorIdNS_9allocatorIdEEE17__annotate_shrinkB7v160006Em, symObjAddr: 0xA20, symBinAddr: 0x100001418, symSize: 0xB4 }
  - { offsetInCU: 0xA9A9, offset: 0xA9A9, size: 0x8, addend: 0x0, symName: __ZNSt3__116allocator_traitsINS_9allocatorIdEEE7destroyB7v160006IdvEEvRS2_PT_, symObjAddr: 0xAD4, symBinAddr: 0x1000014CC, symSize: 0x2C }
  - { offsetInCU: 0xA9E6, offset: 0xA9E6, size: 0x8, addend: 0x0, symName: __ZNSt3__16vectorIdNS_9allocatorIdEEE7__allocB7v160006Ev, symObjAddr: 0xB00, symBinAddr: 0x1000014F8, symSize: 0x28 }
  - { offsetInCU: 0xAA0C, offset: 0xAA0C, size: 0x8, addend: 0x0, symName: __ZNSt3__19allocatorIdE7destroyB7v160006EPd, symObjAddr: 0xB3C, symBinAddr: 0x100001534, symSize: 0x14 }
  - { offsetInCU: 0xAA40, offset: 0xAA40, size: 0x8, addend: 0x0, symName: __ZNSt3__117__compressed_pairIPdNS_9allocatorIdEEE6secondB7v160006Ev, symObjAddr: 0xB50, symBinAddr: 0x100001548, symSize: 0x24 }
  - { offsetInCU: 0xAA66, offset: 0xAA66, size: 0x8, addend: 0x0, symName: __ZNSt3__122__compressed_pair_elemINS_9allocatorIdEELi1ELb1EE5__getB7v160006Ev, symObjAddr: 0xB74, symBinAddr: 0x10000156C, symSize: 0x14 }
  - { offsetInCU: 0xAA8C, offset: 0xAA8C, size: 0x8, addend: 0x0, symName: __ZNKSt3__16vectorIdNS_9allocatorIdEEE31__annotate_contiguous_containerB7v160006EPKvS5_S5_S5_, symObjAddr: 0xB88, symBinAddr: 0x100001580, symSize: 0x20 }
  - { offsetInCU: 0xAADE, offset: 0xAADE, size: 0x8, addend: 0x0, symName: __ZNKSt3__16vectorIdNS_9allocatorIdEEE4dataB7v160006Ev, symObjAddr: 0xBA8, symBinAddr: 0x1000015A0, symSize: 0x28 }
  - { offsetInCU: 0xAB04, offset: 0xAB04, size: 0x8, addend: 0x0, symName: __ZNKSt3__16vectorIdNS_9allocatorIdEEE8capacityB7v160006Ev, symObjAddr: 0xBD0, symBinAddr: 0x1000015C8, symSize: 0x40 }
  - { offsetInCU: 0xAB2A, offset: 0xAB2A, size: 0x8, addend: 0x0, symName: __ZNKSt3__16vectorIdNS_9allocatorIdEEE9__end_capB7v160006Ev, symObjAddr: 0xC10, symBinAddr: 0x100001608, symSize: 0x28 }
  - { offsetInCU: 0xAB50, offset: 0xAB50, size: 0x8, addend: 0x0, symName: __ZNKSt3__117__compressed_pairIPdNS_9allocatorIdEEE5firstB7v160006Ev, symObjAddr: 0xC38, symBinAddr: 0x100001630, symSize: 0x24 }
  - { offsetInCU: 0xAB76, offset: 0xAB76, size: 0x8, addend: 0x0, symName: __ZNKSt3__122__compressed_pair_elemIPdLi0ELb0EE5__getB7v160006Ev, symObjAddr: 0xC5C, symBinAddr: 0x100001654, symSize: 0x14 }
  - { offsetInCU: 0xABBF, offset: 0xABBF, size: 0x8, addend: 0x0, symName: __ZNKSt3__114__move_trivialclB7v160006IddLi0EEENS_4pairIPT_PT0_EES4_S4_S6_, symObjAddr: 0xE0C, symBinAddr: 0x100001804, symSize: 0x48 }
  - { offsetInCU: 0xAC2C, offset: 0xAC2C, size: 0x8, addend: 0x0, symName: __ZNSt3__14pairIPdS1_EC1B7v160006IRS1_S1_LPv0EEEOT_OT0_, symObjAddr: 0xFD4, symBinAddr: 0x1000019CC, symSize: 0x3C }
  - { offsetInCU: 0xAC8A, offset: 0xAC8A, size: 0x8, addend: 0x0, symName: __ZNSt3__14pairIPdS1_EC2B7v160006IRS1_S1_LPv0EEEOT_OT0_, symObjAddr: 0x1010, symBinAddr: 0x100001A08, symSize: 0x34 }
  - { offsetInCU: 0xACE8, offset: 0xACE8, size: 0x8, addend: 0x0, symName: __ZNSt3__118__unwrap_iter_implIPdLb1EE8__unwrapB7v160006ES1_, symObjAddr: 0x1044, symBinAddr: 0x100001A3C, symSize: 0x24 }
  - { offsetInCU: 0xAD0B, offset: 0xAD0B, size: 0x8, addend: 0x0, symName: __ZNSt3__14pairIPdS1_EC1B7v160006IS1_S1_LPv0EEEOT_OT0_, symObjAddr: 0x1068, symBinAddr: 0x100001A60, symSize: 0x3C }
  - { offsetInCU: 0xAD69, offset: 0xAD69, size: 0x8, addend: 0x0, symName: __ZNSt3__14pairIPdS1_EC2B7v160006IS1_S1_LPv0EEEOT_OT0_, symObjAddr: 0x10A4, symBinAddr: 0x100001A9C, symSize: 0x34 }
  - { offsetInCU: 0xADC7, offset: 0xADC7, size: 0x8, addend: 0x0, symName: __ZNSt3__118__unwrap_iter_implIPdLb1EE8__rewrapB7v160006ES1_S1_, symObjAddr: 0x10D8, symBinAddr: 0x100001AD0, symSize: 0x50 }
  - { offsetInCU: 0xADF8, offset: 0xADF8, size: 0x8, addend: 0x0, symName: __ZNSt3__111__wrap_iterIPKdEC2B7v160006IPdEERKNS0_IT_EEPNS_9enable_ifIXsr14is_convertibleIS6_S2_EE5valueEvE4typeE, symObjAddr: 0x1128, symBinAddr: 0x100001B20, symSize: 0x40 }
  - { offsetInCU: 0xAE44, offset: 0xAE44, size: 0x8, addend: 0x0, symName: __ZNSt3__16vectorIdNS_9allocatorIdEEEC2B7v160006ESt16initializer_listIdE, symObjAddr: 0x1168, symBinAddr: 0x100001B60, symSize: 0x124 }
  - { offsetInCU: 0xAE9F, offset: 0xAE9F, size: 0x8, addend: 0x0, symName: __ZNSt3__117__compressed_pairIPdNS_9allocatorIdEEEC1B7v160006IDnNS_18__default_init_tagEEEOT_OT0_, symObjAddr: 0x128C, symBinAddr: 0x100001C84, symSize: 0x3C }
  - { offsetInCU: 0xAEF7, offset: 0xAEF7, size: 0x8, addend: 0x0, symName: __ZNSt3__16vectorIdNS_9allocatorIdEEE16__destroy_vectorC1ERS3_, symObjAddr: 0x1308, symBinAddr: 0x100001D00, symSize: 0x34 }
  - { offsetInCU: 0xAF30, offset: 0xAF30, size: 0x8, addend: 0x0, symName: __ZNKSt16initializer_listIdE4sizeB7v160006Ev, symObjAddr: 0x134C, symBinAddr: 0x100001D44, symSize: 0x18 }
  - { offsetInCU: 0xAF56, offset: 0xAF56, size: 0x8, addend: 0x0, symName: __ZNSt3__16vectorIdNS_9allocatorIdEEE11__vallocateB7v160006Em, symObjAddr: 0x1364, symBinAddr: 0x100001D5C, symSize: 0xAC }
  - { offsetInCU: 0xAF9A, offset: 0xAF9A, size: 0x8, addend: 0x0, symName: __ZNSt3__16vectorIdNS_9allocatorIdEEE18__construct_at_endIPKdLi0EEEvT_S7_m, symObjAddr: 0x1410, symBinAddr: 0x100001E08, symSize: 0x8C }
  - { offsetInCU: 0xB00D, offset: 0xB00D, size: 0x8, addend: 0x0, symName: __ZNKSt16initializer_listIdE5beginB7v160006Ev, symObjAddr: 0x149C, symBinAddr: 0x100001E94, symSize: 0x18 }
  - { offsetInCU: 0xB033, offset: 0xB033, size: 0x8, addend: 0x0, symName: __ZNKSt16initializer_listIdE3endB7v160006Ev, symObjAddr: 0x14B4, symBinAddr: 0x100001EAC, symSize: 0x20 }
  - { offsetInCU: 0xB059, offset: 0xB059, size: 0x8, addend: 0x0, symName: __ZNSt3__128__exception_guard_exceptionsINS_6vectorIdNS_9allocatorIdEEE16__destroy_vectorEE10__completeB7v160006Ev, symObjAddr: 0x14D4, symBinAddr: 0x100001ECC, symSize: 0x1C }
  - { offsetInCU: 0xB07F, offset: 0xB07F, size: 0x8, addend: 0x0, symName: __ZNSt3__128__exception_guard_exceptionsINS_6vectorIdNS_9allocatorIdEEE16__destroy_vectorEED1B7v160006Ev, symObjAddr: 0x14F0, symBinAddr: 0x100001EE8, symSize: 0x2C }
  - { offsetInCU: 0xB0A9, offset: 0xB0A9, size: 0x8, addend: 0x0, symName: __ZNSt3__117__compressed_pairIPdNS_9allocatorIdEEEC2B7v160006IDnNS_18__default_init_tagEEEOT_OT0_, symObjAddr: 0x151C, symBinAddr: 0x100001F14, symSize: 0x40 }
  - { offsetInCU: 0xB101, offset: 0xB101, size: 0x8, addend: 0x0, symName: __ZNSt3__122__compressed_pair_elemIPdLi0ELb0EEC2B7v160006IDnvEEOT_, symObjAddr: 0x155C, symBinAddr: 0x100001F54, symSize: 0x1C }
  - { offsetInCU: 0xB143, offset: 0xB143, size: 0x8, addend: 0x0, symName: __ZNSt3__122__compressed_pair_elemINS_9allocatorIdEELi1ELb1EEC2B7v160006ENS_18__default_init_tagE, symObjAddr: 0x1578, symBinAddr: 0x100001F70, symSize: 0x2C }
  - { offsetInCU: 0xB178, offset: 0xB178, size: 0x8, addend: 0x0, symName: __ZNSt3__19allocatorIdEC2B7v160006Ev, symObjAddr: 0x15A4, symBinAddr: 0x100001F9C, symSize: 0x2C }
  - { offsetInCU: 0xB1A2, offset: 0xB1A2, size: 0x8, addend: 0x0, symName: __ZNSt3__116__non_trivial_ifILb1ENS_9allocatorIdEEEC2B7v160006Ev, symObjAddr: 0x15D0, symBinAddr: 0x100001FC8, symSize: 0x14 }
  - { offsetInCU: 0xB1CC, offset: 0xB1CC, size: 0x8, addend: 0x0, symName: __ZNSt3__128__exception_guard_exceptionsINS_6vectorIdNS_9allocatorIdEEE16__destroy_vectorEEC1B7v160006ES5_, symObjAddr: 0x15E4, symBinAddr: 0x100001FDC, symSize: 0x34 }
  - { offsetInCU: 0xB204, offset: 0xB204, size: 0x8, addend: 0x0, symName: __ZNSt3__128__exception_guard_exceptionsINS_6vectorIdNS_9allocatorIdEEE16__destroy_vectorEEC2B7v160006ES5_, symObjAddr: 0x1618, symBinAddr: 0x100002010, symSize: 0x24 }
  - { offsetInCU: 0xB23C, offset: 0xB23C, size: 0x8, addend: 0x0, symName: __ZNSt3__16vectorIdNS_9allocatorIdEEE16__destroy_vectorC2ERS3_, symObjAddr: 0x163C, symBinAddr: 0x100002034, symSize: 0x20 }
  - { offsetInCU: 0xB275, offset: 0xB275, size: 0x8, addend: 0x0, symName: __ZNKSt3__16vectorIdNS_9allocatorIdEEE8max_sizeEv, symObjAddr: 0x165C, symBinAddr: 0x100002054, symSize: 0x60 }
  - { offsetInCU: 0xB29D, offset: 0xB29D, size: 0x8, addend: 0x0, symName: __ZNKSt3__16vectorIdNS_9allocatorIdEEE20__throw_length_errorB7v160006Ev, symObjAddr: 0x16BC, symBinAddr: 0x1000020B4, symSize: 0x1C }
  - { offsetInCU: 0xB2C3, offset: 0xB2C3, size: 0x8, addend: 0x0, symName: __ZNSt3__16vectorIdNS_9allocatorIdEEE9__end_capB7v160006Ev, symObjAddr: 0x1718, symBinAddr: 0x100002110, symSize: 0x28 }
  - { offsetInCU: 0xB2E9, offset: 0xB2E9, size: 0x8, addend: 0x0, symName: __ZNKSt3__16vectorIdNS_9allocatorIdEEE14__annotate_newB7v160006Em, symObjAddr: 0x1740, symBinAddr: 0x100002138, symSize: 0xAC }
  - { offsetInCU: 0xB328, offset: 0xB328, size: 0x8, addend: 0x0, symName: __ZNSt3__116allocator_traitsINS_9allocatorIdEEE8max_sizeB7v160006IS2_vEEmRKS2_, symObjAddr: 0x1818, symBinAddr: 0x100002210, symSize: 0x24 }
  - { offsetInCU: 0xB356, offset: 0xB356, size: 0x8, addend: 0x0, symName: __ZNKSt3__16vectorIdNS_9allocatorIdEEE7__allocB7v160006Ev, symObjAddr: 0x183C, symBinAddr: 0x100002234, symSize: 0x28 }
  - { offsetInCU: 0xB37C, offset: 0xB37C, size: 0x8, addend: 0x0, symName: __ZNSt3__114numeric_limitsIlE3maxB7v160006Ev, symObjAddr: 0x1864, symBinAddr: 0x10000225C, symSize: 0x14 }
  - { offsetInCU: 0xB3A4, offset: 0xB3A4, size: 0x8, addend: 0x0, symName: __ZNKSt3__16__lessImmEclB7v160006ERKmS3_, symObjAddr: 0x18CC, symBinAddr: 0x1000022C4, symSize: 0x34 }
  - { offsetInCU: 0xB3E6, offset: 0xB3E6, size: 0x8, addend: 0x0, symName: __ZNKSt3__19allocatorIdE8max_sizeB7v160006Ev, symObjAddr: 0x1900, symBinAddr: 0x1000022F8, symSize: 0x14 }
  - { offsetInCU: 0xB40C, offset: 0xB40C, size: 0x8, addend: 0x0, symName: __ZNKSt3__117__compressed_pairIPdNS_9allocatorIdEEE6secondB7v160006Ev, symObjAddr: 0x1914, symBinAddr: 0x10000230C, symSize: 0x24 }
  - { offsetInCU: 0xB432, offset: 0xB432, size: 0x8, addend: 0x0, symName: __ZNKSt3__122__compressed_pair_elemINS_9allocatorIdEELi1ELb1EE5__getB7v160006Ev, symObjAddr: 0x1938, symBinAddr: 0x100002330, symSize: 0x14 }
  - { offsetInCU: 0xB458, offset: 0xB458, size: 0x8, addend: 0x0, symName: __ZNSt3__123__libcpp_numeric_limitsIlLb1EE3maxB7v160006Ev, symObjAddr: 0x194C, symBinAddr: 0x100002344, symSize: 0x8 }
  - { offsetInCU: 0xB46C, offset: 0xB46C, size: 0x8, addend: 0x0, symName: __ZNSt12length_errorC1B7v160006EPKc, symObjAddr: 0x19B8, symBinAddr: 0x1000023B0, symSize: 0x34 }
  - { offsetInCU: 0xB4A4, offset: 0xB4A4, size: 0x8, addend: 0x0, symName: __ZNSt12length_errorC2B7v160006EPKc, symObjAddr: 0x19EC, symBinAddr: 0x1000023E4, symSize: 0x4C }
  - { offsetInCU: 0xB4DC, offset: 0xB4DC, size: 0x8, addend: 0x0, symName: __ZNSt3__19allocatorIdE8allocateB7v160006Em, symObjAddr: 0x1A38, symBinAddr: 0x100002430, symSize: 0x58 }
  - { offsetInCU: 0xB510, offset: 0xB510, size: 0x8, addend: 0x0, symName: __ZNSt3__117__compressed_pairIPdNS_9allocatorIdEEE5firstB7v160006Ev, symObjAddr: 0x1B10, symBinAddr: 0x100002508, symSize: 0x24 }
  - { offsetInCU: 0xB536, offset: 0xB536, size: 0x8, addend: 0x0, symName: __ZNSt3__122__compressed_pair_elemIPdLi0ELb0EE5__getB7v160006Ev, symObjAddr: 0x1B34, symBinAddr: 0x10000252C, symSize: 0x14 }
  - { offsetInCU: 0xB575, offset: 0xB575, size: 0x8, addend: 0x0, symName: __ZNSt3__16vectorIdNS_9allocatorIdEEE21_ConstructTransactionC1B7v160006ERS3_m, symObjAddr: 0x1B48, symBinAddr: 0x100002540, symSize: 0x3C }
  - { offsetInCU: 0xB5BD, offset: 0xB5BD, size: 0x8, addend: 0x0, symName: __ZNSt3__16vectorIdNS_9allocatorIdEEE21_ConstructTransactionD1B7v160006Ev, symObjAddr: 0x1BBC, symBinAddr: 0x1000025B4, symSize: 0x2C }
  - { offsetInCU: 0xB5E7, offset: 0xB5E7, size: 0x8, addend: 0x0, symName: __ZNSt3__16vectorIdNS_9allocatorIdEEE21_ConstructTransactionC2B7v160006ERS3_m, symObjAddr: 0x1BE8, symBinAddr: 0x1000025E0, symSize: 0x44 }
  - { offsetInCU: 0xB652, offset: 0xB652, size: 0x8, addend: 0x0, symName: __ZNKSt3__114__copy_trivialclB7v160006IKddLi0EEENS_4pairIPT_PT0_EES5_S5_S7_, symObjAddr: 0x1E08, symBinAddr: 0x100002800, symSize: 0x48 }
  - { offsetInCU: 0xB6D8, offset: 0xB6D8, size: 0x8, addend: 0x0, symName: __ZNSt3__14pairIPKdS2_EC1B7v160006IS2_S2_LPv0EEEOT_OT0_, symObjAddr: 0x1F10, symBinAddr: 0x100002908, symSize: 0x3C }
  - { offsetInCU: 0xB736, offset: 0xB736, size: 0x8, addend: 0x0, symName: __ZNSt3__14pairIPKdS2_EC2B7v160006IS2_S2_LPv0EEEOT_OT0_, symObjAddr: 0x1F4C, symBinAddr: 0x100002944, symSize: 0x34 }
  - { offsetInCU: 0xB794, offset: 0xB794, size: 0x8, addend: 0x0, symName: __ZNSt3__118__unwrap_iter_implIPKdLb1EE8__unwrapB7v160006ES2_, symObjAddr: 0x1F80, symBinAddr: 0x100002978, symSize: 0x24 }
  - { offsetInCU: 0xB7BC, offset: 0xB7BC, size: 0x8, addend: 0x0, symName: __ZNSt3__14pairIPKdPdEC1B7v160006IRS2_S3_LPv0EEEOT_OT0_, symObjAddr: 0x2074, symBinAddr: 0x100002A6C, symSize: 0x3C }
  - { offsetInCU: 0xB81A, offset: 0xB81A, size: 0x8, addend: 0x0, symName: __ZNSt3__14pairIPKdPdEC2B7v160006IRS2_S3_LPv0EEEOT_OT0_, symObjAddr: 0x20B0, symBinAddr: 0x100002AA8, symSize: 0x34 }
  - { offsetInCU: 0xB878, offset: 0xB878, size: 0x8, addend: 0x0, symName: __ZNSt3__14pairIPKdPdEC1B7v160006IS2_S3_LPv0EEEOT_OT0_, symObjAddr: 0x20E4, symBinAddr: 0x100002ADC, symSize: 0x3C }
  - { offsetInCU: 0xB8D6, offset: 0xB8D6, size: 0x8, addend: 0x0, symName: __ZNSt3__14pairIPKdPdEC2B7v160006IS2_S3_LPv0EEEOT_OT0_, symObjAddr: 0x2120, symBinAddr: 0x100002B18, symSize: 0x34 }
  - { offsetInCU: 0xB934, offset: 0xB934, size: 0x8, addend: 0x0, symName: __ZNSt3__118__unwrap_iter_implIPKdLb1EE8__rewrapB7v160006ES2_S2_, symObjAddr: 0x2190, symBinAddr: 0x100002B88, symSize: 0x50 }
  - { offsetInCU: 0xB965, offset: 0xB965, size: 0x8, addend: 0x0, symName: __ZNSt3__16vectorIdNS_9allocatorIdEEE21_ConstructTransactionD2B7v160006Ev, symObjAddr: 0x21E0, symBinAddr: 0x100002BD8, symSize: 0x20 }
  - { offsetInCU: 0xB98F, offset: 0xB98F, size: 0x8, addend: 0x0, symName: __ZNSt3__128__exception_guard_exceptionsINS_6vectorIdNS_9allocatorIdEEE16__destroy_vectorEED2B7v160006Ev, symObjAddr: 0x2200, symBinAddr: 0x100002BF8, symSize: 0x50 }
  - { offsetInCU: 0xB9B9, offset: 0xB9B9, size: 0x8, addend: 0x0, symName: __ZNSt3__16vectorIdNS_9allocatorIdEEE16__destroy_vectorclB7v160006Ev, symObjAddr: 0x2250, symBinAddr: 0x100002C48, symSize: 0x9C }
  - { offsetInCU: 0xB9DF, offset: 0xB9DF, size: 0x8, addend: 0x0, symName: __ZNKSt3__16vectorIdNS_9allocatorIdEEE17__annotate_deleteB7v160006Ev, symObjAddr: 0x22EC, symBinAddr: 0x100002CE4, symSize: 0xB8 }
  - { offsetInCU: 0xBA05, offset: 0xBA05, size: 0x8, addend: 0x0, symName: __ZNSt3__16vectorIdNS_9allocatorIdEEE7__clearB7v160006Ev, symObjAddr: 0x23B4, symBinAddr: 0x100002DAC, symSize: 0x28 }
  - { offsetInCU: 0xBA2B, offset: 0xBA2B, size: 0x8, addend: 0x0, symName: __ZNSt3__116allocator_traitsINS_9allocatorIdEEE10deallocateB7v160006ERS2_Pdm, symObjAddr: 0x23DC, symBinAddr: 0x100002DD4, symSize: 0x34 }
  - { offsetInCU: 0xBA6D, offset: 0xBA6D, size: 0x8, addend: 0x0, symName: __ZNSt3__19allocatorIdE10deallocateB7v160006EPdm, symObjAddr: 0x2410, symBinAddr: 0x100002E08, symSize: 0x40 }
  - { offsetInCU: 0xBAAF, offset: 0xBAAF, size: 0x8, addend: 0x0, symName: __ZNSt3__16vectorIdNS_9allocatorIdEEED2B7v160006Ev, symObjAddr: 0x24CC, symBinAddr: 0x100002EC4, symSize: 0x44 }
  - { offsetInCU: 0xBAD9, offset: 0xBAD9, size: 0x8, addend: 0x0, symName: __ZNSt3__111char_traitsIcE6lengthEPKc, symObjAddr: 0x26FC, symBinAddr: 0x1000030F4, symSize: 0x34 }
  - { offsetInCU: 0xBB1A, offset: 0xBB1A, size: 0x8, addend: 0x0, symName: __ZNKSt3__113basic_ostreamIcNS_11char_traitsIcEEE6sentrycvbB7v160006Ev, symObjAddr: 0x2730, symBinAddr: 0x100003128, symSize: 0x1C }
  - { offsetInCU: 0xBB40, offset: 0xBB40, size: 0x8, addend: 0x0, symName: __ZNSt3__119ostreambuf_iteratorIcNS_11char_traitsIcEEEC1B7v160006ERNS_13basic_ostreamIcS2_EE, symObjAddr: 0x298C, symBinAddr: 0x100003384, symSize: 0x34 }
  - { offsetInCU: 0xBB78, offset: 0xBB78, size: 0x8, addend: 0x0, symName: __ZNKSt3__18ios_base5flagsB7v160006Ev, symObjAddr: 0x29C0, symBinAddr: 0x1000033B8, symSize: 0x18 }
  - { offsetInCU: 0xBBA0, offset: 0xBBA0, size: 0x8, addend: 0x0, symName: __ZNKSt3__19basic_iosIcNS_11char_traitsIcEEE4fillB7v160006Ev, symObjAddr: 0x29D8, symBinAddr: 0x1000033D0, symSize: 0x64 }
  - { offsetInCU: 0xBBC8, offset: 0xBBC8, size: 0x8, addend: 0x0, symName: __ZNKSt3__119ostreambuf_iteratorIcNS_11char_traitsIcEEE6failedB7v160006Ev, symObjAddr: 0x2A3C, symBinAddr: 0x100003434, symSize: 0x24 }
  - { offsetInCU: 0xBBEE, offset: 0xBBEE, size: 0x8, addend: 0x0, symName: __ZNSt3__19basic_iosIcNS_11char_traitsIcEEE8setstateB7v160006Ej, symObjAddr: 0x2A60, symBinAddr: 0x100003458, symSize: 0x2C }
  - { offsetInCU: 0xBC23, offset: 0xBC23, size: 0x8, addend: 0x0, symName: __ZNKSt3__18ios_base5widthB7v160006Ev, symObjAddr: 0x2A8C, symBinAddr: 0x100003484, symSize: 0x18 }
  - { offsetInCU: 0xBC4B, offset: 0xBC4B, size: 0x8, addend: 0x0, symName: __ZNSt3__115basic_streambufIcNS_11char_traitsIcEEE5sputnB7v160006EPKcl, symObjAddr: 0x2AA4, symBinAddr: 0x10000349C, symSize: 0x3C }
  - { offsetInCU: 0xBC8D, offset: 0xBC8D, size: 0x8, addend: 0x0, symName: __ZNSt3__112basic_stringIcNS_11char_traitsIcEENS_9allocatorIcEEEC1B7v160006Emc, symObjAddr: 0x2AE0, symBinAddr: 0x1000034D8, symSize: 0x3C }
  - { offsetInCU: 0xBCD5, offset: 0xBCD5, size: 0x8, addend: 0x0, symName: __ZNKSt3__112basic_stringIcNS_11char_traitsIcEENS_9allocatorIcEEE4dataB7v160006Ev, symObjAddr: 0x2B1C, symBinAddr: 0x100003514, symSize: 0x28 }
  - { offsetInCU: 0xBCFB, offset: 0xBCFB, size: 0x8, addend: 0x0, symName: __ZNSt3__18ios_base5widthB7v160006El, symObjAddr: 0x2B44, symBinAddr: 0x10000353C, symSize: 0x2C }
  - { offsetInCU: 0xBD41, offset: 0xBD41, size: 0x8, addend: 0x0, symName: __ZNSt3__112basic_stringIcNS_11char_traitsIcEENS_9allocatorIcEEEC2B7v160006Emc, symObjAddr: 0x2B70, symBinAddr: 0x100003568, symSize: 0x54 }
  - { offsetInCU: 0xBD89, offset: 0xBD89, size: 0x8, addend: 0x0, symName: __ZNSt3__117__compressed_pairINS_12basic_stringIcNS_11char_traitsIcEENS_9allocatorIcEEE5__repES5_EC1B7v160006INS_18__default_init_tagESA_EEOT_OT0_, symObjAddr: 0x2BC4, symBinAddr: 0x1000035BC, symSize: 0x3C }
  - { offsetInCU: 0xBDE1, offset: 0xBDE1, size: 0x8, addend: 0x0, symName: __ZNSt3__117__compressed_pairINS_12basic_stringIcNS_11char_traitsIcEENS_9allocatorIcEEE5__repES5_EC2B7v160006INS_18__default_init_tagESA_EEOT_OT0_, symObjAddr: 0x2C10, symBinAddr: 0x100003608, symSize: 0x3C }
  - { offsetInCU: 0xBE39, offset: 0xBE39, size: 0x8, addend: 0x0, symName: __ZNSt3__122__compressed_pair_elemINS_12basic_stringIcNS_11char_traitsIcEENS_9allocatorIcEEE5__repELi0ELb0EEC2B7v160006ENS_18__default_init_tagE, symObjAddr: 0x2C4C, symBinAddr: 0x100003644, symSize: 0x14 }
  - { offsetInCU: 0xBE6E, offset: 0xBE6E, size: 0x8, addend: 0x0, symName: __ZNSt3__122__compressed_pair_elemINS_9allocatorIcEELi1ELb1EEC2B7v160006ENS_18__default_init_tagE, symObjAddr: 0x2C60, symBinAddr: 0x100003658, symSize: 0x2C }
  - { offsetInCU: 0xBEA3, offset: 0xBEA3, size: 0x8, addend: 0x0, symName: __ZNSt3__19allocatorIcEC2B7v160006Ev, symObjAddr: 0x2C8C, symBinAddr: 0x100003684, symSize: 0x2C }
  - { offsetInCU: 0xBECD, offset: 0xBECD, size: 0x8, addend: 0x0, symName: __ZNSt3__116__non_trivial_ifILb1ENS_9allocatorIcEEEC2B7v160006Ev, symObjAddr: 0x2CB8, symBinAddr: 0x1000036B0, symSize: 0x14 }
  - { offsetInCU: 0xBEF7, offset: 0xBEF7, size: 0x8, addend: 0x0, symName: __ZNKSt3__112basic_stringIcNS_11char_traitsIcEENS_9allocatorIcEEE13__get_pointerB7v160006Ev, symObjAddr: 0x2CE0, symBinAddr: 0x1000036D8, symSize: 0x54 }
  - { offsetInCU: 0xBF1D, offset: 0xBF1D, size: 0x8, addend: 0x0, symName: __ZNKSt3__112basic_stringIcNS_11char_traitsIcEENS_9allocatorIcEEE9__is_longB7v160006Ev, symObjAddr: 0x2D34, symBinAddr: 0x10000372C, symSize: 0x38 }
  - { offsetInCU: 0xBF43, offset: 0xBF43, size: 0x8, addend: 0x0, symName: __ZNKSt3__112basic_stringIcNS_11char_traitsIcEENS_9allocatorIcEEE18__get_long_pointerB7v160006Ev, symObjAddr: 0x2D6C, symBinAddr: 0x100003764, symSize: 0x28 }
  - { offsetInCU: 0xBF69, offset: 0xBF69, size: 0x8, addend: 0x0, symName: __ZNKSt3__112basic_stringIcNS_11char_traitsIcEENS_9allocatorIcEEE19__get_short_pointerB7v160006Ev, symObjAddr: 0x2D94, symBinAddr: 0x10000378C, symSize: 0x28 }
  - { offsetInCU: 0xBF8F, offset: 0xBF8F, size: 0x8, addend: 0x0, symName: __ZNKSt3__117__compressed_pairINS_12basic_stringIcNS_11char_traitsIcEENS_9allocatorIcEEE5__repES5_E5firstB7v160006Ev, symObjAddr: 0x2DBC, symBinAddr: 0x1000037B4, symSize: 0x24 }
  - { offsetInCU: 0xBFB5, offset: 0xBFB5, size: 0x8, addend: 0x0, symName: __ZNKSt3__122__compressed_pair_elemINS_12basic_stringIcNS_11char_traitsIcEENS_9allocatorIcEEE5__repELi0ELb0EE5__getB7v160006Ev, symObjAddr: 0x2DE0, symBinAddr: 0x1000037D8, symSize: 0x14 }
  - { offsetInCU: 0xBFDB, offset: 0xBFDB, size: 0x8, addend: 0x0, symName: __ZNSt3__114pointer_traitsIPKcE10pointer_toB7v160006ERS1_, symObjAddr: 0x2DF4, symBinAddr: 0x1000037EC, symSize: 0x14 }
  - { offsetInCU: 0xBFFE, offset: 0xBFFE, size: 0x8, addend: 0x0, symName: __ZNSt3__119ostreambuf_iteratorIcNS_11char_traitsIcEEEC2B7v160006ERNS_13basic_ostreamIcS2_EE, symObjAddr: 0x2E08, symBinAddr: 0x100003800, symSize: 0x54 }
  - { offsetInCU: 0xC036, offset: 0xC036, size: 0x8, addend: 0x0, symName: __ZNKSt3__19basic_iosIcNS_11char_traitsIcEEE5rdbufB7v160006Ev, symObjAddr: 0x2E5C, symBinAddr: 0x100003854, symSize: 0x24 }
  - { offsetInCU: 0xC05E, offset: 0xC05E, size: 0x8, addend: 0x0, symName: __ZNKSt3__18ios_base5rdbufB7v160006Ev, symObjAddr: 0x2E80, symBinAddr: 0x100003878, symSize: 0x18 }
  - { offsetInCU: 0xC084, offset: 0xC084, size: 0x8, addend: 0x0, symName: __ZNSt3__111char_traitsIcE11eq_int_typeEii, symObjAddr: 0x2E98, symBinAddr: 0x100003890, symSize: 0x28 }
  - { offsetInCU: 0xC0B5, offset: 0xC0B5, size: 0x8, addend: 0x0, symName: __ZNSt3__111char_traitsIcE3eofEv, symObjAddr: 0x2EC0, symBinAddr: 0x1000038B8, symSize: 0x8 }
  - { offsetInCU: 0xC0C9, offset: 0xC0C9, size: 0x8, addend: 0x0, symName: __ZNKSt3__19basic_iosIcNS_11char_traitsIcEEE5widenB7v160006Ec, symObjAddr: 0x2EC8, symBinAddr: 0x1000038C0, symSize: 0x84 }
  - { offsetInCU: 0xC137, offset: 0xC137, size: 0x8, addend: 0x0, symName: __ZNKSt3__15ctypeIcE5widenB7v160006Ec, symObjAddr: 0x2F78, symBinAddr: 0x100003970, symSize: 0x38 }
  - { offsetInCU: 0xC16C, offset: 0xC16C, size: 0x8, addend: 0x0, symName: __ZNSt3__18ios_base8setstateB7v160006Ej, symObjAddr: 0x2FB0, symBinAddr: 0x1000039A8, symSize: 0x34 }
...
