---
triple:          'arm64-apple-darwin'
binary-path:     '/Users/spoofch/Documents/Lab_C++/Lab7/3'
relocations:
  - { offsetInCU: 0x2E21, offset: 0x2E21, size: 0x8, addend: 0x0, symName: __ZNSt3__124__put_character_sequenceB7v160006IcNS_11char_traitsIcEEEERNS_13basic_ostreamIT_T0_EES7_PKS4_m, symObjAddr: 0xB50, symBinAddr: 0x100002A8C, symSize: 0x1F4 }
  - { offsetInCU: 0x495C, offset: 0x495C, size: 0x8, addend: 0x0, symName: __ZNSt3__14swapB7v160006IcEEvRT_S2_, symObjAddr: 0x80, symBinAddr: 0x100001FBC, symSize: 0x3C }
  - { offsetInCU: 0x49AD, offset: 0x49AD, size: 0x8, addend: 0x0, symName: __ZNSt3__1lsB7v160006INS_11char_traitsIcEEEERNS_13basic_ostreamIcT_EES6_PKc, symObjAddr: 0x268, symBinAddr: 0x1000021A4, symSize: 0x48 }
  - { offsetInCU: 0x49F3, offset: 0x49F3, size: 0x8, addend: 0x0, symName: __ZNSt3__17getlineB7v160006IcNS_11char_traitsIcEENS_9allocatorIcEEEERNS_13basic_istreamIT_T0_EES9_RNS_12basic_stringIS6_S7_T1_EE, symObjAddr: 0x2B0, symBinAddr: 0x1000021EC, symSize: 0x5C }
  - { offsetInCU: 0x4A4B, offset: 0x4A4B, size: 0x8, addend: 0x0, symName: __ZNSt3__14endlB7v160006IcNS_11char_traitsIcEEEERNS_13basic_ostreamIT_T0_EES7_, symObjAddr: 0x368, symBinAddr: 0x1000022A4, symSize: 0x58 }
  - { offsetInCU: 0x4A8B, offset: 0x4A8B, size: 0x8, addend: 0x0, symName: __ZNSt3__1lsB7v160006IcNS_11char_traitsIcEENS_9allocatorIcEEEERNS_13basic_ostreamIT_T0_EES9_RKNS_12basic_stringIS6_S7_T1_EE, symObjAddr: 0x3E4, symBinAddr: 0x100002320, symSize: 0x4C }
  - { offsetInCU: 0x4AE3, offset: 0x4AE3, size: 0x8, addend: 0x0, symName: __ZNSt3__130__libcpp_is_constant_evaluatedB7v160006Ev, symObjAddr: 0x554, symBinAddr: 0x100002490, symSize: 0xC }
  - { offsetInCU: 0x4B33, offset: 0x4B33, size: 0x8, addend: 0x0, symName: __ZNSt3__119__debug_db_insert_cB7v160006INS_12basic_stringIcNS_11char_traitsIcEENS_9allocatorIcEEEEEEvPT_, symObjAddr: 0x664, symBinAddr: 0x1000025A0, symSize: 0x10 }
  - { offsetInCU: 0x4B64, offset: 0x4B64, size: 0x8, addend: 0x0, symName: __ZNSt3__117__libcpp_allocateB7v160006Emm, symObjAddr: 0xAB8, symBinAddr: 0x1000029F4, symSize: 0x28 }
  - { offsetInCU: 0x4BA1, offset: 0x4BA1, size: 0x8, addend: 0x0, symName: __ZNSt3__121__libcpp_operator_newB7v160006IJmEEEPvDpT_, symObjAddr: 0xAF4, symBinAddr: 0x100002A30, symSize: 0x24 }
  - { offsetInCU: 0x4BDA, offset: 0x4BDA, size: 0x8, addend: 0x0, symName: __ZNSt3__116__pad_and_outputB7v160006IcNS_11char_traitsIcEEEENS_19ostreambuf_iteratorIT_T0_EES6_PKS4_S8_S8_RNS_8ios_baseES4_, symObjAddr: 0xDA8, symBinAddr: 0x100002CE4, symSize: 0x248 }
  - { offsetInCU: 0x4CA9, offset: 0x4CA9, size: 0x8, addend: 0x0, symName: __ZNSt3__112__to_addressB7v160006IKcEEPT_S3_, symObjAddr: 0x1228, symBinAddr: 0x100003164, symSize: 0x14 }
  - { offsetInCU: 0x4D11, offset: 0x4D11, size: 0x8, addend: 0x0, symName: __ZNSt3__19use_facetB7v160006INS_5ctypeIcEEEERKT_RKNS_6localeE, symObjAddr: 0x1454, symBinAddr: 0x100003390, symSize: 0x2C }
  - { offsetInCU: 0x51E0, offset: 0x51E0, size: 0x8, addend: 0x0, symName: __ZNSt3__118__constexpr_strlenB7v160006EPKc, symObjAddr: 0x14EC, symBinAddr: 0x100003428, symSize: 0x24 }
  - { offsetInCU: 0x520C, offset: 0x520C, size: 0x8, addend: 0x0, symName: __ZNSt3__17getlineB7v160006IcNS_11char_traitsIcEENS_9allocatorIcEEEERNS_13basic_istreamIT_T0_EES9_RNS_12basic_stringIS6_S7_T1_EES6_, symObjAddr: 0x1510, symBinAddr: 0x10000344C, symSize: 0x238 }
  - { offsetInCU: 0x5854, offset: 0x5854, size: 0x8, addend: 0x0, symName: __ZNSt3__125__debug_db_invalidate_allB7v160006INS_12basic_stringIcNS_11char_traitsIcEENS_9allocatorIcEEEEEEvPT_, symObjAddr: 0x1A40, symBinAddr: 0x10000397C, symSize: 0x10 }
  - { offsetInCU: 0x5A8F, offset: 0x5A8F, size: 0x8, addend: 0x0, symName: __ZSt28__throw_bad_array_new_lengthB7v160006v, symObjAddr: 0xA84, symBinAddr: 0x1000029C0, symSize: 0x34 }
  - { offsetInCU: 0x7F13, offset: 0x7F13, size: 0x8, addend: 0x0, symName: __Z13reverseStringRNSt3__112basic_stringIcNS_11char_traitsIcEENS_9allocatorIcEEEEii, symObjAddr: 0x0, symBinAddr: 0x100001F3C, symSize: 0x80 }
  - { offsetInCU: 0x7F57, offset: 0x7F57, size: 0x8, addend: 0x0, symName: __ZNSt3__112basic_stringIcNS_11char_traitsIcEENS_9allocatorIcEEEixB7v160006Em, symObjAddr: 0xBC, symBinAddr: 0x100001FF8, symSize: 0x30 }
  - { offsetInCU: 0x7F8B, offset: 0x7F8B, size: 0x8, addend: 0x0, symName: _main, symObjAddr: 0xEC, symBinAddr: 0x100002028, symSize: 0x150 }
  - { offsetInCU: 0x7FB3, offset: 0x7FB3, size: 0x8, addend: 0x0, symName: __ZNSt3__112basic_stringIcNS_11char_traitsIcEENS_9allocatorIcEEEC1B7v160006Ev, symObjAddr: 0x23C, symBinAddr: 0x100002178, symSize: 0x2C }
  - { offsetInCU: 0x7FDB, offset: 0x7FDB, size: 0x8, addend: 0x0, symName: __ZNKSt3__112basic_stringIcNS_11char_traitsIcEENS_9allocatorIcEEE5emptyB7v160006Ev, symObjAddr: 0x30C, symBinAddr: 0x100002248, symSize: 0x30 }
  - { offsetInCU: 0x7FFF, offset: 0x7FFF, size: 0x8, addend: 0x0, symName: __ZNSt3__113basic_ostreamIcNS_11char_traitsIcEEElsB7v160006EPFRS3_S4_E, symObjAddr: 0x33C, symBinAddr: 0x100002278, symSize: 0x2C }
  - { offsetInCU: 0x8031, offset: 0x8031, size: 0x8, addend: 0x0, symName: __ZNKSt3__112basic_stringIcNS_11char_traitsIcEENS_9allocatorIcEEE6lengthB7v160006Ev, symObjAddr: 0x3C0, symBinAddr: 0x1000022FC, symSize: 0x24 }
  - { offsetInCU: 0x8055, offset: 0x8055, size: 0x8, addend: 0x0, symName: __ZNSt3__112basic_stringIcNS_11char_traitsIcEENS_9allocatorIcEEE13__get_pointerB7v160006Ev, symObjAddr: 0x43C, symBinAddr: 0x100002378, symSize: 0x54 }
  - { offsetInCU: 0x8079, offset: 0x8079, size: 0x8, addend: 0x0, symName: __ZNKSt3__112basic_stringIcNS_11char_traitsIcEENS_9allocatorIcEEE9__is_longB7v160006Ev, symObjAddr: 0x490, symBinAddr: 0x1000023CC, symSize: 0x74 }
  - { offsetInCU: 0x809D, offset: 0x809D, size: 0x8, addend: 0x0, symName: __ZNSt3__112basic_stringIcNS_11char_traitsIcEENS_9allocatorIcEEE18__get_long_pointerB7v160006Ev, symObjAddr: 0x504, symBinAddr: 0x100002440, symSize: 0x28 }
  - { offsetInCU: 0x80C1, offset: 0x80C1, size: 0x8, addend: 0x0, symName: __ZNSt3__112basic_stringIcNS_11char_traitsIcEENS_9allocatorIcEEE19__get_short_pointerB7v160006Ev, symObjAddr: 0x52C, symBinAddr: 0x100002468, symSize: 0x28 }
  - { offsetInCU: 0x80E5, offset: 0x80E5, size: 0x8, addend: 0x0, symName: __ZNKSt3__117__compressed_pairINS_12basic_stringIcNS_11char_traitsIcEENS_9allocatorIcEEE5__repES5_E5firstB7v160006Ev, symObjAddr: 0x560, symBinAddr: 0x10000249C, symSize: 0x24 }
  - { offsetInCU: 0x810A, offset: 0x810A, size: 0x8, addend: 0x0, symName: __ZNKSt3__122__compressed_pair_elemINS_12basic_stringIcNS_11char_traitsIcEENS_9allocatorIcEEE5__repELi0ELb0EE5__getB7v160006Ev, symObjAddr: 0x584, symBinAddr: 0x1000024C0, symSize: 0x14 }
  - { offsetInCU: 0x812E, offset: 0x812E, size: 0x8, addend: 0x0, symName: __ZNSt3__117__compressed_pairINS_12basic_stringIcNS_11char_traitsIcEENS_9allocatorIcEEE5__repES5_E5firstB7v160006Ev, symObjAddr: 0x598, symBinAddr: 0x1000024D4, symSize: 0x24 }
  - { offsetInCU: 0x8153, offset: 0x8153, size: 0x8, addend: 0x0, symName: __ZNSt3__122__compressed_pair_elemINS_12basic_stringIcNS_11char_traitsIcEENS_9allocatorIcEEE5__repELi0ELb0EE5__getB7v160006Ev, symObjAddr: 0x5BC, symBinAddr: 0x1000024F8, symSize: 0x14 }
  - { offsetInCU: 0x8178, offset: 0x8178, size: 0x8, addend: 0x0, symName: __ZNSt3__114pointer_traitsIPcE10pointer_toB7v160006ERc, symObjAddr: 0x5D0, symBinAddr: 0x10000250C, symSize: 0x14 }
  - { offsetInCU: 0x819B, offset: 0x819B, size: 0x8, addend: 0x0, symName: __ZNSt3__112basic_stringIcNS_11char_traitsIcEENS_9allocatorIcEEEC2B7v160006Ev, symObjAddr: 0x5E4, symBinAddr: 0x100002520, symSize: 0x44 }
  - { offsetInCU: 0x81C9, offset: 0x81C9, size: 0x8, addend: 0x0, symName: __ZNSt3__117__compressed_pairINS_12basic_stringIcNS_11char_traitsIcEENS_9allocatorIcEEE5__repES5_EC1B7v160006INS_18__default_init_tagESA_EEOT_OT0_, symObjAddr: 0x628, symBinAddr: 0x100002564, symSize: 0x3C }
  - { offsetInCU: 0x821F, offset: 0x821F, size: 0x8, addend: 0x0, symName: __ZNSt3__112basic_stringIcNS_11char_traitsIcEENS_9allocatorIcEEE14__default_initB7v160006Ev, symObjAddr: 0x674, symBinAddr: 0x1000025B0, symSize: 0xB0 }
  - { offsetInCU: 0x8271, offset: 0x8271, size: 0x8, addend: 0x0, symName: __ZNSt3__117__compressed_pairINS_12basic_stringIcNS_11char_traitsIcEENS_9allocatorIcEEE5__repES5_EC2B7v160006INS_18__default_init_tagESA_EEOT_OT0_, symObjAddr: 0x724, symBinAddr: 0x100002660, symSize: 0x3C }
  - { offsetInCU: 0x82C8, offset: 0x82C8, size: 0x8, addend: 0x0, symName: __ZNSt3__122__compressed_pair_elemINS_12basic_stringIcNS_11char_traitsIcEENS_9allocatorIcEEE5__repELi0ELb0EEC2B7v160006ENS_18__default_init_tagE, symObjAddr: 0x760, symBinAddr: 0x10000269C, symSize: 0x14 }
  - { offsetInCU: 0x82FC, offset: 0x82FC, size: 0x8, addend: 0x0, symName: __ZNSt3__122__compressed_pair_elemINS_9allocatorIcEELi1ELb1EEC2B7v160006ENS_18__default_init_tagE, symObjAddr: 0x774, symBinAddr: 0x1000026B0, symSize: 0x2C }
  - { offsetInCU: 0x8330, offset: 0x8330, size: 0x8, addend: 0x0, symName: __ZNSt3__19allocatorIcEC2B7v160006Ev, symObjAddr: 0x7A0, symBinAddr: 0x1000026DC, symSize: 0x2C }
  - { offsetInCU: 0x8359, offset: 0x8359, size: 0x8, addend: 0x0, symName: __ZNSt3__116__non_trivial_ifILb1ENS_9allocatorIcEEEC2B7v160006Ev, symObjAddr: 0x7CC, symBinAddr: 0x100002708, symSize: 0x14 }
  - { offsetInCU: 0x8382, offset: 0x8382, size: 0x8, addend: 0x0, symName: __ZNSt3__112basic_stringIcNS_11char_traitsIcEENS_9allocatorIcEEE11__recommendB7v160006Em, symObjAddr: 0x7E0, symBinAddr: 0x10000271C, symSize: 0x9C }
  - { offsetInCU: 0x83B5, offset: 0x83B5, size: 0x8, addend: 0x0, symName: __ZNSt3__116allocator_traitsINS_9allocatorIcEEE8allocateB7v160006ERS2_m, symObjAddr: 0x87C, symBinAddr: 0x1000027B8, symSize: 0x2C }
  - { offsetInCU: 0x83E7, offset: 0x83E7, size: 0x8, addend: 0x0, symName: __ZNSt3__112basic_stringIcNS_11char_traitsIcEENS_9allocatorIcEEE7__allocB7v160006Ev, symObjAddr: 0x8A8, symBinAddr: 0x1000027E4, symSize: 0x24 }
  - { offsetInCU: 0x840C, offset: 0x840C, size: 0x8, addend: 0x0, symName: __ZNSt3__112basic_stringIcNS_11char_traitsIcEENS_9allocatorIcEEE16__begin_lifetimeB7v160006EPcm, symObjAddr: 0x8CC, symBinAddr: 0x100002808, symSize: 0x14 }
  - { offsetInCU: 0x843E, offset: 0x843E, size: 0x8, addend: 0x0, symName: __ZNSt3__112basic_stringIcNS_11char_traitsIcEENS_9allocatorIcEEE18__set_long_pointerB7v160006EPc, symObjAddr: 0x8E0, symBinAddr: 0x10000281C, symSize: 0x38 }
  - { offsetInCU: 0x8471, offset: 0x8471, size: 0x8, addend: 0x0, symName: __ZNSt3__112basic_stringIcNS_11char_traitsIcEENS_9allocatorIcEEE14__set_long_capB7v160006Em, symObjAddr: 0x918, symBinAddr: 0x100002854, symSize: 0x70 }
  - { offsetInCU: 0x84A4, offset: 0x84A4, size: 0x8, addend: 0x0, symName: __ZNSt3__112basic_stringIcNS_11char_traitsIcEENS_9allocatorIcEEE15__set_long_sizeB7v160006Em, symObjAddr: 0x988, symBinAddr: 0x1000028C4, symSize: 0x38 }
  - { offsetInCU: 0x84D8, offset: 0x84D8, size: 0x8, addend: 0x0, symName: __ZNSt3__112basic_stringIcNS_11char_traitsIcEENS_9allocatorIcEEE10__align_itB7v160006ILm16EEEmm, symObjAddr: 0x9C0, symBinAddr: 0x1000028FC, symSize: 0x1C }
  - { offsetInCU: 0x8505, offset: 0x8505, size: 0x8, addend: 0x0, symName: __ZNSt3__19allocatorIcE8allocateB7v160006Em, symObjAddr: 0x9DC, symBinAddr: 0x100002918, symSize: 0x84 }
  - { offsetInCU: 0x8542, offset: 0x8542, size: 0x8, addend: 0x0, symName: __ZNSt3__116allocator_traitsINS_9allocatorIcEEE8max_sizeB7v160006IS2_vEEmRKS2_, symObjAddr: 0xA60, symBinAddr: 0x10000299C, symSize: 0x24 }
  - { offsetInCU: 0x8570, offset: 0x8570, size: 0x8, addend: 0x0, symName: __ZNKSt3__19allocatorIcE8max_sizeB7v160006Ev, symObjAddr: 0xAE0, symBinAddr: 0x100002A1C, symSize: 0x14 }
  - { offsetInCU: 0x8594, offset: 0x8594, size: 0x8, addend: 0x0, symName: __ZNSt3__117__compressed_pairINS_12basic_stringIcNS_11char_traitsIcEENS_9allocatorIcEEE5__repES5_E6secondB7v160006Ev, symObjAddr: 0xB18, symBinAddr: 0x100002A54, symSize: 0x24 }
  - { offsetInCU: 0x85B9, offset: 0x85B9, size: 0x8, addend: 0x0, symName: __ZNSt3__122__compressed_pair_elemINS_9allocatorIcEELi1ELb1EE5__getB7v160006Ev, symObjAddr: 0xB3C, symBinAddr: 0x100002A78, symSize: 0x14 }
  - { offsetInCU: 0x85DE, offset: 0x85DE, size: 0x8, addend: 0x0, symName: __ZNSt3__111char_traitsIcE6lengthEPKc, symObjAddr: 0xD44, symBinAddr: 0x100002C80, symSize: 0x48 }
  - { offsetInCU: 0x861F, offset: 0x861F, size: 0x8, addend: 0x0, symName: __ZNKSt3__113basic_ostreamIcNS_11char_traitsIcEEE6sentrycvbB7v160006Ev, symObjAddr: 0xD8C, symBinAddr: 0x100002CC8, symSize: 0x1C }
  - { offsetInCU: 0x8644, offset: 0x8644, size: 0x8, addend: 0x0, symName: __ZNSt3__119ostreambuf_iteratorIcNS_11char_traitsIcEEEC1B7v160006ERNS_13basic_ostreamIcS2_EE, symObjAddr: 0xFF0, symBinAddr: 0x100002F2C, symSize: 0x34 }
  - { offsetInCU: 0x867B, offset: 0x867B, size: 0x8, addend: 0x0, symName: __ZNKSt3__18ios_base5flagsB7v160006Ev, symObjAddr: 0x1024, symBinAddr: 0x100002F60, symSize: 0x18 }
  - { offsetInCU: 0x86A2, offset: 0x86A2, size: 0x8, addend: 0x0, symName: __ZNKSt3__19basic_iosIcNS_11char_traitsIcEEE4fillB7v160006Ev, symObjAddr: 0x103C, symBinAddr: 0x100002F78, symSize: 0x64 }
  - { offsetInCU: 0x86C9, offset: 0x86C9, size: 0x8, addend: 0x0, symName: __ZNKSt3__119ostreambuf_iteratorIcNS_11char_traitsIcEEE6failedB7v160006Ev, symObjAddr: 0x10A0, symBinAddr: 0x100002FDC, symSize: 0x24 }
  - { offsetInCU: 0x86ED, offset: 0x86ED, size: 0x8, addend: 0x0, symName: __ZNSt3__19basic_iosIcNS_11char_traitsIcEEE8setstateB7v160006Ej, symObjAddr: 0x10C4, symBinAddr: 0x100003000, symSize: 0x2C }
  - { offsetInCU: 0x8721, offset: 0x8721, size: 0x8, addend: 0x0, symName: __ZNKSt3__18ios_base5widthB7v160006Ev, symObjAddr: 0x10F0, symBinAddr: 0x10000302C, symSize: 0x18 }
  - { offsetInCU: 0x8747, offset: 0x8747, size: 0x8, addend: 0x0, symName: __ZNSt3__115basic_streambufIcNS_11char_traitsIcEEE5sputnB7v160006EPKcl, symObjAddr: 0x1108, symBinAddr: 0x100003044, symSize: 0x3C }
  - { offsetInCU: 0x8788, offset: 0x8788, size: 0x8, addend: 0x0, symName: __ZNSt3__112basic_stringIcNS_11char_traitsIcEENS_9allocatorIcEEEC1B7v160006Emc, symObjAddr: 0x1144, symBinAddr: 0x100003080, symSize: 0x3C }
  - { offsetInCU: 0x87CE, offset: 0x87CE, size: 0x8, addend: 0x0, symName: __ZNKSt3__112basic_stringIcNS_11char_traitsIcEENS_9allocatorIcEEE4dataB7v160006Ev, symObjAddr: 0x1180, symBinAddr: 0x1000030BC, symSize: 0x28 }
  - { offsetInCU: 0x87F3, offset: 0x87F3, size: 0x8, addend: 0x0, symName: __ZNSt3__18ios_base5widthB7v160006El, symObjAddr: 0x11A8, symBinAddr: 0x1000030E4, symSize: 0x2C }
  - { offsetInCU: 0x8838, offset: 0x8838, size: 0x8, addend: 0x0, symName: __ZNSt3__112basic_stringIcNS_11char_traitsIcEENS_9allocatorIcEEEC2B7v160006Emc, symObjAddr: 0x11D4, symBinAddr: 0x100003110, symSize: 0x54 }
  - { offsetInCU: 0x887E, offset: 0x887E, size: 0x8, addend: 0x0, symName: __ZNKSt3__112basic_stringIcNS_11char_traitsIcEENS_9allocatorIcEEE13__get_pointerB7v160006Ev, symObjAddr: 0x123C, symBinAddr: 0x100003178, symSize: 0x54 }
  - { offsetInCU: 0x88A2, offset: 0x88A2, size: 0x8, addend: 0x0, symName: __ZNKSt3__112basic_stringIcNS_11char_traitsIcEENS_9allocatorIcEEE18__get_long_pointerB7v160006Ev, symObjAddr: 0x1290, symBinAddr: 0x1000031CC, symSize: 0x28 }
  - { offsetInCU: 0x88C6, offset: 0x88C6, size: 0x8, addend: 0x0, symName: __ZNKSt3__112basic_stringIcNS_11char_traitsIcEENS_9allocatorIcEEE19__get_short_pointerB7v160006Ev, symObjAddr: 0x12B8, symBinAddr: 0x1000031F4, symSize: 0x28 }
  - { offsetInCU: 0x88EB, offset: 0x88EB, size: 0x8, addend: 0x0, symName: __ZNSt3__114pointer_traitsIPKcE10pointer_toB7v160006ERS1_, symObjAddr: 0x12E0, symBinAddr: 0x10000321C, symSize: 0x14 }
  - { offsetInCU: 0x890E, offset: 0x890E, size: 0x8, addend: 0x0, symName: __ZNSt3__119ostreambuf_iteratorIcNS_11char_traitsIcEEEC2B7v160006ERNS_13basic_ostreamIcS2_EE, symObjAddr: 0x12F4, symBinAddr: 0x100003230, symSize: 0x68 }
  - { offsetInCU: 0x8945, offset: 0x8945, size: 0x8, addend: 0x0, symName: __ZNKSt3__19basic_iosIcNS_11char_traitsIcEEE5rdbufB7v160006Ev, symObjAddr: 0x135C, symBinAddr: 0x100003298, symSize: 0x24 }
  - { offsetInCU: 0x896C, offset: 0x896C, size: 0x8, addend: 0x0, symName: __ZNKSt3__18ios_base5rdbufB7v160006Ev, symObjAddr: 0x1380, symBinAddr: 0x1000032BC, symSize: 0x18 }
  - { offsetInCU: 0x8991, offset: 0x8991, size: 0x8, addend: 0x0, symName: __ZNSt3__111char_traitsIcE11eq_int_typeEii, symObjAddr: 0x1398, symBinAddr: 0x1000032D4, symSize: 0x28 }
  - { offsetInCU: 0x89C2, offset: 0x89C2, size: 0x8, addend: 0x0, symName: __ZNSt3__111char_traitsIcE3eofEv, symObjAddr: 0x13C0, symBinAddr: 0x1000032FC, symSize: 0x8 }
  - { offsetInCU: 0x89D6, offset: 0x89D6, size: 0x8, addend: 0x0, symName: __ZNKSt3__19basic_iosIcNS_11char_traitsIcEEE5widenB7v160006Ec, symObjAddr: 0x13C8, symBinAddr: 0x100003304, symSize: 0x8C }
  - { offsetInCU: 0x8A42, offset: 0x8A42, size: 0x8, addend: 0x0, symName: __ZNKSt3__15ctypeIcE5widenB7v160006Ec, symObjAddr: 0x1480, symBinAddr: 0x1000033BC, symSize: 0x38 }
  - { offsetInCU: 0x8A76, offset: 0x8A76, size: 0x8, addend: 0x0, symName: __ZNSt3__18ios_base8setstateB7v160006Ej, symObjAddr: 0x14B8, symBinAddr: 0x1000033F4, symSize: 0x34 }
  - { offsetInCU: 0x8B3E, offset: 0x8B3E, size: 0x8, addend: 0x0, symName: __ZNKSt3__113basic_istreamIcNS_11char_traitsIcEEE6sentrycvbB7v160006Ev, symObjAddr: 0x1748, symBinAddr: 0x100003684, symSize: 0x1C }
  - { offsetInCU: 0x8B63, offset: 0x8B63, size: 0x8, addend: 0x0, symName: __ZNSt3__112basic_stringIcNS_11char_traitsIcEENS_9allocatorIcEEE5clearB7v160006Ev, symObjAddr: 0x1764, symBinAddr: 0x1000036A0, symSize: 0x9C }
  - { offsetInCU: 0x8B89, offset: 0x8B89, size: 0x8, addend: 0x0, symName: __ZNSt3__115basic_streambufIcNS_11char_traitsIcEEE6sbumpcB7v160006Ev, symObjAddr: 0x1800, symBinAddr: 0x10000373C, symSize: 0x78 }
  - { offsetInCU: 0x8BAE, offset: 0x8BAE, size: 0x8, addend: 0x0, symName: __ZNSt3__111char_traitsIcE12to_char_typeEi, symObjAddr: 0x1878, symBinAddr: 0x1000037B4, symSize: 0x18 }
  - { offsetInCU: 0x8BD1, offset: 0x8BD1, size: 0x8, addend: 0x0, symName: __ZNSt3__111char_traitsIcE2eqEcc, symObjAddr: 0x1890, symBinAddr: 0x1000037CC, symSize: 0x28 }
  - { offsetInCU: 0x8C01, offset: 0x8C01, size: 0x8, addend: 0x0, symName: __ZNKSt3__112basic_stringIcNS_11char_traitsIcEENS_9allocatorIcEEE4sizeB7v160006Ev, symObjAddr: 0x18B8, symBinAddr: 0x1000037F4, symSize: 0x54 }
  - { offsetInCU: 0x8C25, offset: 0x8C25, size: 0x8, addend: 0x0, symName: __ZNKSt3__112basic_stringIcNS_11char_traitsIcEENS_9allocatorIcEEE8max_sizeB7v160006Ev, symObjAddr: 0x190C, symBinAddr: 0x100003848, symSize: 0xAC }
  - { offsetInCU: 0x8C77, offset: 0x8C77, size: 0x8, addend: 0x0, symName: __ZNSt3__18ios_base18__setstate_nothrowB7v160006Ej, symObjAddr: 0x19B8, symBinAddr: 0x1000038F4, symSize: 0x64 }
  - { offsetInCU: 0x8CAA, offset: 0x8CAA, size: 0x8, addend: 0x0, symName: __ZNKSt3__19basic_iosIcNS_11char_traitsIcEEE10exceptionsB7v160006Ev, symObjAddr: 0x1A1C, symBinAddr: 0x100003958, symSize: 0x24 }
  - { offsetInCU: 0x8CCF, offset: 0x8CCF, size: 0x8, addend: 0x0, symName: __ZNSt3__111char_traitsIcE6assignERcRKc, symObjAddr: 0x1A50, symBinAddr: 0x10000398C, symSize: 0x24 }
  - { offsetInCU: 0x8CFF, offset: 0x8CFF, size: 0x8, addend: 0x0, symName: __ZNSt3__112basic_stringIcNS_11char_traitsIcEENS_9allocatorIcEEE16__set_short_sizeB7v160006Em, symObjAddr: 0x1A74, symBinAddr: 0x1000039B0, symSize: 0x78 }
  - { offsetInCU: 0x8D33, offset: 0x8D33, size: 0x8, addend: 0x0, symName: __ZNSt3__111char_traitsIcE11to_int_typeEc, symObjAddr: 0x1AEC, symBinAddr: 0x100003A28, symSize: 0x14 }
  - { offsetInCU: 0x8D55, offset: 0x8D55, size: 0x8, addend: 0x0, symName: __ZNKSt3__112basic_stringIcNS_11char_traitsIcEENS_9allocatorIcEEE15__get_long_sizeB7v160006Ev, symObjAddr: 0x1B00, symBinAddr: 0x100003A3C, symSize: 0x28 }
  - { offsetInCU: 0x8D79, offset: 0x8D79, size: 0x8, addend: 0x0, symName: __ZNKSt3__112basic_stringIcNS_11char_traitsIcEENS_9allocatorIcEEE16__get_short_sizeB7v160006Ev, symObjAddr: 0x1B28, symBinAddr: 0x100003A64, symSize: 0x34 }
  - { offsetInCU: 0x8D9D, offset: 0x8D9D, size: 0x8, addend: 0x0, symName: __ZNKSt3__112basic_stringIcNS_11char_traitsIcEENS_9allocatorIcEEE7__allocB7v160006Ev, symObjAddr: 0x1B5C, symBinAddr: 0x100003A98, symSize: 0x24 }
  - { offsetInCU: 0x8DC2, offset: 0x8DC2, size: 0x8, addend: 0x0, symName: __ZNSt3__114numeric_limitsImE3maxB7v160006Ev, symObjAddr: 0x1B80, symBinAddr: 0x100003ABC, symSize: 0x14 }
  - { offsetInCU: 0x8DD5, offset: 0x8DD5, size: 0x8, addend: 0x0, symName: __ZNKSt3__117__compressed_pairINS_12basic_stringIcNS_11char_traitsIcEENS_9allocatorIcEEE5__repES5_E6secondB7v160006Ev, symObjAddr: 0x1B94, symBinAddr: 0x100003AD0, symSize: 0x24 }
  - { offsetInCU: 0x8DFA, offset: 0x8DFA, size: 0x8, addend: 0x0, symName: __ZNKSt3__122__compressed_pair_elemINS_9allocatorIcEELi1ELb1EE5__getB7v160006Ev, symObjAddr: 0x1BB8, symBinAddr: 0x100003AF4, symSize: 0x14 }
  - { offsetInCU: 0x8E1F, offset: 0x8E1F, size: 0x8, addend: 0x0, symName: __ZNSt3__123__libcpp_numeric_limitsImLb1EE3maxB7v160006Ev, symObjAddr: 0x1BCC, symBinAddr: 0x100003B08, symSize: 0x8 }
  - { offsetInCU: 0x8E33, offset: 0x8E33, size: 0x8, addend: 0x0, symName: __ZNKSt3__18ios_base10exceptionsB7v160006Ev, symObjAddr: 0x1BD4, symBinAddr: 0x100003B10, symSize: 0x18 }
...
