---
triple:          'arm64-apple-darwin'
binary-path:     '/Users/spoofch/Documents/Lab_C++/Lab6/2'
relocations:
  - { offsetInCU: 0x2E3A, offset: 0x2E3A, size: 0x8, addend: 0x0, symName: __ZNSt3__124__put_character_sequenceB7v160006IcNS_11char_traitsIcEEEERNS_13basic_ostreamIT_T0_EES7_PKS4_m, symObjAddr: 0xB78, symBinAddr: 0x100001BB8, symSize: 0x1F4 }
  - { offsetInCU: 0x4C70, offset: 0x4C70, size: 0x8, addend: 0x0, symName: __ZNSt3__1lsB7v160006INS_11char_traitsIcEEEERNS_13basic_ostreamIcT_EES6_PKc, symObjAddr: 0x9F8, symBinAddr: 0x100001A38, symSize: 0x48 }
  - { offsetInCU: 0x4CB6, offset: 0x4CB6, size: 0x8, addend: 0x0, symName: __ZNSt3__14endlB7v160006IcNS_11char_traitsIcEEEERNS_13basic_ostreamIT_T0_EES7_, symObjAddr: 0xA6C, symBinAddr: 0x100001AAC, symSize: 0x58 }
  - { offsetInCU: 0x4CF6, offset: 0x4CF6, size: 0x8, addend: 0x0, symName: __ZNSt3__1lsB7v160006IcNS_11char_traitsIcEENS_9allocatorIcEEEERNS_13basic_ostreamIT_T0_EES9_RKNS_12basic_stringIS6_S7_T1_EE, symObjAddr: 0xB2C, symBinAddr: 0x100001B6C, symSize: 0x4C }
  - { offsetInCU: 0x4D4E, offset: 0x4D4E, size: 0x8, addend: 0x0, symName: __ZNSt3__116__pad_and_outputB7v160006IcNS_11char_traitsIcEEEENS_19ostreambuf_iteratorIT_T0_EES6_PKS4_S8_S8_RNS_8ios_baseES4_, symObjAddr: 0xE04, symBinAddr: 0x100001E44, symSize: 0x248 }
  - { offsetInCU: 0x4E1D, offset: 0x4E1D, size: 0x8, addend: 0x0, symName: __ZNSt3__119__debug_db_insert_cB7v160006INS_12basic_stringIcNS_11char_traitsIcEENS_9allocatorIcEEEEEEvPT_, symObjAddr: 0x1298, symBinAddr: 0x1000022D8, symSize: 0x10 }
  - { offsetInCU: 0x4E4E, offset: 0x4E4E, size: 0x8, addend: 0x0, symName: __ZNSt3__19use_facetB7v160006INS_5ctypeIcEEEERKT_RKNS_6localeE, symObjAddr: 0x14C4, symBinAddr: 0x100002504, symSize: 0x2C }
  - { offsetInCU: 0x522E, offset: 0x522E, size: 0x8, addend: 0x0, symName: __ZNSt3__112__to_addressB7v160006IKcEEPT_S3_, symObjAddr: 0x155C, symBinAddr: 0x10000259C, symSize: 0x14 }
  - { offsetInCU: 0x5263, offset: 0x5263, size: 0x8, addend: 0x0, symName: __ZNSt3__130__libcpp_is_constant_evaluatedB7v160006Ev, symObjAddr: 0x1688, symBinAddr: 0x1000026C8, symSize: 0xC }
  - { offsetInCU: 0x52B3, offset: 0x52B3, size: 0x8, addend: 0x0, symName: __ZNSt3__1rsB7v160006IcNS_11char_traitsIcEENS_9allocatorIcEEEERNS_13basic_istreamIT_T0_EES9_RNS_12basic_stringIS6_S7_T1_EE, symObjAddr: 0x173C, symBinAddr: 0x10000277C, symSize: 0x314 }
  - { offsetInCU: 0x5380, offset: 0x5380, size: 0x8, addend: 0x0, symName: __ZNSt3__1eqB7v160006INS_9allocatorIcEEEEbRKNS_12basic_stringIcNS_11char_traitsIcEET_EES9_, symObjAddr: 0x1A80, symBinAddr: 0x100002AC0, symSize: 0x148 }
  - { offsetInCU: 0x5B7E, offset: 0x5B7E, size: 0x8, addend: 0x0, symName: __ZNSt3__125__debug_db_invalidate_allB7v160006INS_12basic_stringIcNS_11char_traitsIcEENS_9allocatorIcEEEEEEvPT_, symObjAddr: 0x1F44, symBinAddr: 0x100002F84, symSize: 0x10 }
  - { offsetInCU: 0x5DE4, offset: 0x5DE4, size: 0x8, addend: 0x0, symName: __ZNSt3__118__constexpr_memcmpB7v160006IcEEiPKT_S3_m, symObjAddr: 0x22A0, symBinAddr: 0x1000032E0, symSize: 0x34 }
  - { offsetInCU: 0x5E35, offset: 0x5E35, size: 0x8, addend: 0x0, symName: __ZNSt3__117__libcpp_allocateB7v160006Emm, symObjAddr: 0x2644, symBinAddr: 0x100003684, symSize: 0x28 }
  - { offsetInCU: 0x5E72, offset: 0x5E72, size: 0x8, addend: 0x0, symName: __ZNSt3__121__libcpp_operator_newB7v160006IJmEEEPvDpT_, symObjAddr: 0x266C, symBinAddr: 0x1000036AC, symSize: 0x24 }
  - { offsetInCU: 0x5EAB, offset: 0x5EAB, size: 0x8, addend: 0x0, symName: __ZNSt3__118__constexpr_strlenB7v160006EPKc, symObjAddr: 0x2710, symBinAddr: 0x100003750, symSize: 0x24 }
  - { offsetInCU: 0x5ED8, offset: 0x5ED8, size: 0x8, addend: 0x0, symName: __ZSt28__throw_bad_array_new_lengthB7v160006v, symObjAddr: 0x2610, symBinAddr: 0x100003650, symSize: 0x34 }
  - { offsetInCU: 0x840A, offset: 0x840A, size: 0x8, addend: 0x0, symName: __ZN12QuizQuestionC2ENSt3__112basic_stringIcNS0_11char_traitsIcEENS0_9allocatorIcEEEES6_, symObjAddr: 0x0, symBinAddr: 0x100001040, symSize: 0xC0 }
  - { offsetInCU: 0x8451, offset: 0x8451, size: 0x8, addend: 0x0, symName: __ZNSt3__112basic_stringIcNS_11char_traitsIcEENS_9allocatorIcEEEC1B7v160006Ev, symObjAddr: 0xC0, symBinAddr: 0x100001100, symSize: 0x2C }
  - { offsetInCU: 0x8479, offset: 0x8479, size: 0x8, addend: 0x0, symName: __ZN12QuizQuestionC1ENSt3__112basic_stringIcNS0_11char_traitsIcEENS0_9allocatorIcEEEES6_, symObjAddr: 0xF8, symBinAddr: 0x100001138, symSize: 0x3C }
  - { offsetInCU: 0x84C0, offset: 0x84C0, size: 0x8, addend: 0x0, symName: _main, symObjAddr: 0x134, symBinAddr: 0x100001174, symSize: 0x670 }
  - { offsetInCU: 0x851B, offset: 0x851B, size: 0x8, addend: 0x0, symName: __ZNSt3__112basic_stringIcNS_11char_traitsIcEENS_9allocatorIcEEEC1B7v160006IDnEEPKc, symObjAddr: 0x7A4, symBinAddr: 0x1000017E4, symSize: 0x34 }
  - { offsetInCU: 0x8558, offset: 0x8558, size: 0x8, addend: 0x0, symName: __ZN12QuizQuestionD1Ev, symObjAddr: 0x7D8, symBinAddr: 0x100001818, symSize: 0x2C }
  - { offsetInCU: 0x8583, offset: 0x8583, size: 0x8, addend: 0x0, symName: __ZN12QuizQuestion15displayQuestionEv, symObjAddr: 0x804, symBinAddr: 0x100001844, symSize: 0x38 }
  - { offsetInCU: 0x85A8, offset: 0x85A8, size: 0x8, addend: 0x0, symName: __ZN12QuizQuestion11checkAnswerEv, symObjAddr: 0x83C, symBinAddr: 0x10000187C, symSize: 0x1BC }
  - { offsetInCU: 0x85DB, offset: 0x85DB, size: 0x8, addend: 0x0, symName: __ZNSt3__113basic_ostreamIcNS_11char_traitsIcEEElsB7v160006EPFRS3_S4_E, symObjAddr: 0xA40, symBinAddr: 0x100001A80, symSize: 0x2C }
  - { offsetInCU: 0x860E, offset: 0x860E, size: 0x8, addend: 0x0, symName: __ZN12QuizQuestionD2Ev, symObjAddr: 0xAC4, symBinAddr: 0x100001B04, symSize: 0x68 }
  - { offsetInCU: 0x8639, offset: 0x8639, size: 0x8, addend: 0x0, symName: __ZNKSt3__112basic_stringIcNS_11char_traitsIcEENS_9allocatorIcEEE4dataB7v160006Ev, symObjAddr: 0xD6C, symBinAddr: 0x100001DAC, symSize: 0x28 }
  - { offsetInCU: 0x865E, offset: 0x865E, size: 0x8, addend: 0x0, symName: __ZNKSt3__112basic_stringIcNS_11char_traitsIcEENS_9allocatorIcEEE4sizeB7v160006Ev, symObjAddr: 0xD94, symBinAddr: 0x100001DD4, symSize: 0x54 }
  - { offsetInCU: 0x86A1, offset: 0x86A1, size: 0x8, addend: 0x0, symName: __ZNKSt3__113basic_ostreamIcNS_11char_traitsIcEEE6sentrycvbB7v160006Ev, symObjAddr: 0xDE8, symBinAddr: 0x100001E28, symSize: 0x1C }
  - { offsetInCU: 0x86C5, offset: 0x86C5, size: 0x8, addend: 0x0, symName: __ZNSt3__119ostreambuf_iteratorIcNS_11char_traitsIcEEEC1B7v160006ERNS_13basic_ostreamIcS2_EE, symObjAddr: 0x104C, symBinAddr: 0x10000208C, symSize: 0x34 }
  - { offsetInCU: 0x86FC, offset: 0x86FC, size: 0x8, addend: 0x0, symName: __ZNKSt3__18ios_base5flagsB7v160006Ev, symObjAddr: 0x1080, symBinAddr: 0x1000020C0, symSize: 0x18 }
  - { offsetInCU: 0x8723, offset: 0x8723, size: 0x8, addend: 0x0, symName: __ZNKSt3__19basic_iosIcNS_11char_traitsIcEEE4fillB7v160006Ev, symObjAddr: 0x1098, symBinAddr: 0x1000020D8, symSize: 0x64 }
  - { offsetInCU: 0x874A, offset: 0x874A, size: 0x8, addend: 0x0, symName: __ZNKSt3__119ostreambuf_iteratorIcNS_11char_traitsIcEEE6failedB7v160006Ev, symObjAddr: 0x10FC, symBinAddr: 0x10000213C, symSize: 0x24 }
  - { offsetInCU: 0x876F, offset: 0x876F, size: 0x8, addend: 0x0, symName: __ZNSt3__19basic_iosIcNS_11char_traitsIcEEE8setstateB7v160006Ej, symObjAddr: 0x1120, symBinAddr: 0x100002160, symSize: 0x2C }
  - { offsetInCU: 0x87A3, offset: 0x87A3, size: 0x8, addend: 0x0, symName: __ZNKSt3__18ios_base5widthB7v160006Ev, symObjAddr: 0x114C, symBinAddr: 0x10000218C, symSize: 0x18 }
  - { offsetInCU: 0x87CA, offset: 0x87CA, size: 0x8, addend: 0x0, symName: __ZNSt3__115basic_streambufIcNS_11char_traitsIcEEE5sputnB7v160006EPKcl, symObjAddr: 0x1164, symBinAddr: 0x1000021A4, symSize: 0x3C }
  - { offsetInCU: 0x880A, offset: 0x880A, size: 0x8, addend: 0x0, symName: __ZNSt3__112basic_stringIcNS_11char_traitsIcEENS_9allocatorIcEEEC1B7v160006Emc, symObjAddr: 0x11A0, symBinAddr: 0x1000021E0, symSize: 0x3C }
  - { offsetInCU: 0x8851, offset: 0x8851, size: 0x8, addend: 0x0, symName: __ZNSt3__18ios_base5widthB7v160006El, symObjAddr: 0x11DC, symBinAddr: 0x10000221C, symSize: 0x2C }
  - { offsetInCU: 0x8895, offset: 0x8895, size: 0x8, addend: 0x0, symName: __ZNSt3__112basic_stringIcNS_11char_traitsIcEENS_9allocatorIcEEEC2B7v160006Emc, symObjAddr: 0x1208, symBinAddr: 0x100002248, symSize: 0x54 }
  - { offsetInCU: 0x88E0, offset: 0x88E0, size: 0x8, addend: 0x0, symName: __ZNSt3__117__compressed_pairINS_12basic_stringIcNS_11char_traitsIcEENS_9allocatorIcEEE5__repES5_EC1B7v160006INS_18__default_init_tagESA_EEOT_OT0_, symObjAddr: 0x125C, symBinAddr: 0x10000229C, symSize: 0x3C }
  - { offsetInCU: 0x8936, offset: 0x8936, size: 0x8, addend: 0x0, symName: __ZNSt3__117__compressed_pairINS_12basic_stringIcNS_11char_traitsIcEENS_9allocatorIcEEE5__repES5_EC2B7v160006INS_18__default_init_tagESA_EEOT_OT0_, symObjAddr: 0x12A8, symBinAddr: 0x1000022E8, symSize: 0x3C }
  - { offsetInCU: 0x898D, offset: 0x898D, size: 0x8, addend: 0x0, symName: __ZNSt3__122__compressed_pair_elemINS_12basic_stringIcNS_11char_traitsIcEENS_9allocatorIcEEE5__repELi0ELb0EEC2B7v160006ENS_18__default_init_tagE, symObjAddr: 0x12E4, symBinAddr: 0x100002324, symSize: 0x14 }
  - { offsetInCU: 0x89C0, offset: 0x89C0, size: 0x8, addend: 0x0, symName: __ZNSt3__122__compressed_pair_elemINS_9allocatorIcEELi1ELb1EEC2B7v160006ENS_18__default_init_tagE, symObjAddr: 0x12F8, symBinAddr: 0x100002338, symSize: 0x2C }
  - { offsetInCU: 0x89F3, offset: 0x89F3, size: 0x8, addend: 0x0, symName: __ZNSt3__19allocatorIcEC2B7v160006Ev, symObjAddr: 0x1324, symBinAddr: 0x100002364, symSize: 0x2C }
  - { offsetInCU: 0x8A1C, offset: 0x8A1C, size: 0x8, addend: 0x0, symName: __ZNSt3__116__non_trivial_ifILb1ENS_9allocatorIcEEEC2B7v160006Ev, symObjAddr: 0x1350, symBinAddr: 0x100002390, symSize: 0x14 }
  - { offsetInCU: 0x8A44, offset: 0x8A44, size: 0x8, addend: 0x0, symName: __ZNSt3__119ostreambuf_iteratorIcNS_11char_traitsIcEEEC2B7v160006ERNS_13basic_ostreamIcS2_EE, symObjAddr: 0x1364, symBinAddr: 0x1000023A4, symSize: 0x68 }
  - { offsetInCU: 0x8A7B, offset: 0x8A7B, size: 0x8, addend: 0x0, symName: __ZNKSt3__19basic_iosIcNS_11char_traitsIcEEE5rdbufB7v160006Ev, symObjAddr: 0x13CC, symBinAddr: 0x10000240C, symSize: 0x24 }
  - { offsetInCU: 0x8AA2, offset: 0x8AA2, size: 0x8, addend: 0x0, symName: __ZNKSt3__18ios_base5rdbufB7v160006Ev, symObjAddr: 0x13F0, symBinAddr: 0x100002430, symSize: 0x18 }
  - { offsetInCU: 0x8AC7, offset: 0x8AC7, size: 0x8, addend: 0x0, symName: __ZNSt3__111char_traitsIcE11eq_int_typeEii, symObjAddr: 0x1408, symBinAddr: 0x100002448, symSize: 0x28 }
  - { offsetInCU: 0x8AF8, offset: 0x8AF8, size: 0x8, addend: 0x0, symName: __ZNSt3__111char_traitsIcE3eofEv, symObjAddr: 0x1430, symBinAddr: 0x100002470, symSize: 0x8 }
  - { offsetInCU: 0x8B0C, offset: 0x8B0C, size: 0x8, addend: 0x0, symName: __ZNKSt3__19basic_iosIcNS_11char_traitsIcEEE5widenB7v160006Ec, symObjAddr: 0x1438, symBinAddr: 0x100002478, symSize: 0x8C }
  - { offsetInCU: 0x8B6F, offset: 0x8B6F, size: 0x8, addend: 0x0, symName: __ZNKSt3__15ctypeIcE5widenB7v160006Ec, symObjAddr: 0x14F0, symBinAddr: 0x100002530, symSize: 0x38 }
  - { offsetInCU: 0x8BA3, offset: 0x8BA3, size: 0x8, addend: 0x0, symName: __ZNSt3__18ios_base8setstateB7v160006Ej, symObjAddr: 0x1528, symBinAddr: 0x100002568, symSize: 0x34 }
  - { offsetInCU: 0x8BD9, offset: 0x8BD9, size: 0x8, addend: 0x0, symName: __ZNKSt3__112basic_stringIcNS_11char_traitsIcEENS_9allocatorIcEEE13__get_pointerB7v160006Ev, symObjAddr: 0x1570, symBinAddr: 0x1000025B0, symSize: 0x54 }
  - { offsetInCU: 0x8BFE, offset: 0x8BFE, size: 0x8, addend: 0x0, symName: __ZNKSt3__112basic_stringIcNS_11char_traitsIcEENS_9allocatorIcEEE9__is_longB7v160006Ev, symObjAddr: 0x15C4, symBinAddr: 0x100002604, symSize: 0x74 }
  - { offsetInCU: 0x8C23, offset: 0x8C23, size: 0x8, addend: 0x0, symName: __ZNKSt3__112basic_stringIcNS_11char_traitsIcEENS_9allocatorIcEEE18__get_long_pointerB7v160006Ev, symObjAddr: 0x1638, symBinAddr: 0x100002678, symSize: 0x28 }
  - { offsetInCU: 0x8C48, offset: 0x8C48, size: 0x8, addend: 0x0, symName: __ZNKSt3__112basic_stringIcNS_11char_traitsIcEENS_9allocatorIcEEE19__get_short_pointerB7v160006Ev, symObjAddr: 0x1660, symBinAddr: 0x1000026A0, symSize: 0x28 }
  - { offsetInCU: 0x8C6D, offset: 0x8C6D, size: 0x8, addend: 0x0, symName: __ZNKSt3__117__compressed_pairINS_12basic_stringIcNS_11char_traitsIcEENS_9allocatorIcEEE5__repES5_E5firstB7v160006Ev, symObjAddr: 0x1694, symBinAddr: 0x1000026D4, symSize: 0x24 }
  - { offsetInCU: 0x8C92, offset: 0x8C92, size: 0x8, addend: 0x0, symName: __ZNKSt3__122__compressed_pair_elemINS_12basic_stringIcNS_11char_traitsIcEENS_9allocatorIcEEE5__repELi0ELb0EE5__getB7v160006Ev, symObjAddr: 0x16B8, symBinAddr: 0x1000026F8, symSize: 0x14 }
  - { offsetInCU: 0x8CB7, offset: 0x8CB7, size: 0x8, addend: 0x0, symName: __ZNSt3__114pointer_traitsIPKcE10pointer_toB7v160006ERS1_, symObjAddr: 0x16CC, symBinAddr: 0x10000270C, symSize: 0x14 }
  - { offsetInCU: 0x8CDA, offset: 0x8CDA, size: 0x8, addend: 0x0, symName: __ZNKSt3__112basic_stringIcNS_11char_traitsIcEENS_9allocatorIcEEE15__get_long_sizeB7v160006Ev, symObjAddr: 0x16E0, symBinAddr: 0x100002720, symSize: 0x28 }
  - { offsetInCU: 0x8CFF, offset: 0x8CFF, size: 0x8, addend: 0x0, symName: __ZNKSt3__112basic_stringIcNS_11char_traitsIcEENS_9allocatorIcEEE16__get_short_sizeB7v160006Ev, symObjAddr: 0x1708, symBinAddr: 0x100002748, symSize: 0x34 }
  - { offsetInCU: 0x8D24, offset: 0x8D24, size: 0x8, addend: 0x0, symName: __ZNSt3__112basic_stringIcNS_11char_traitsIcEENS_9allocatorIcEEEixB7v160006Em, symObjAddr: 0x1A50, symBinAddr: 0x100002A90, symSize: 0x30 }
  - { offsetInCU: 0x8DEA, offset: 0x8DEA, size: 0x8, addend: 0x0, symName: __ZNKSt3__113basic_istreamIcNS_11char_traitsIcEEE6sentrycvbB7v160006Ev, symObjAddr: 0x1BC8, symBinAddr: 0x100002C08, symSize: 0x1C }
  - { offsetInCU: 0x8E0F, offset: 0x8E0F, size: 0x8, addend: 0x0, symName: __ZNSt3__112basic_stringIcNS_11char_traitsIcEENS_9allocatorIcEEE5clearB7v160006Ev, symObjAddr: 0x1BE4, symBinAddr: 0x100002C24, symSize: 0x9C }
  - { offsetInCU: 0x8E36, offset: 0x8E36, size: 0x8, addend: 0x0, symName: __ZNKSt3__112basic_stringIcNS_11char_traitsIcEENS_9allocatorIcEEE8max_sizeB7v160006Ev, symObjAddr: 0x1C80, symBinAddr: 0x100002CC0, symSize: 0xAC }
  - { offsetInCU: 0x8E88, offset: 0x8E88, size: 0x8, addend: 0x0, symName: __ZNSt3__114numeric_limitsIlE3maxB7v160006Ev, symObjAddr: 0x1D2C, symBinAddr: 0x100002D6C, symSize: 0x14 }
  - { offsetInCU: 0x8E9C, offset: 0x8E9C, size: 0x8, addend: 0x0, symName: __ZNSt3__115basic_streambufIcNS_11char_traitsIcEEE5sgetcB7v160006Ev, symObjAddr: 0x1D40, symBinAddr: 0x100002D80, symSize: 0x70 }
  - { offsetInCU: 0x8EC1, offset: 0x8EC1, size: 0x8, addend: 0x0, symName: __ZNSt3__111char_traitsIcE12to_char_typeEi, symObjAddr: 0x1DB0, symBinAddr: 0x100002DF0, symSize: 0x18 }
  - { offsetInCU: 0x8EE4, offset: 0x8EE4, size: 0x8, addend: 0x0, symName: __ZNKSt3__15ctypeIcE2isB7v160006Ejc, symObjAddr: 0x1DC8, symBinAddr: 0x100002E08, symSize: 0x7C }
  - { offsetInCU: 0x8F27, offset: 0x8F27, size: 0x8, addend: 0x0, symName: __ZNSt3__115basic_streambufIcNS_11char_traitsIcEEE6sbumpcB7v160006Ev, symObjAddr: 0x1E44, symBinAddr: 0x100002E84, symSize: 0x78 }
  - { offsetInCU: 0x8F4C, offset: 0x8F4C, size: 0x8, addend: 0x0, symName: __ZNSt3__18ios_base18__setstate_nothrowB7v160006Ej, symObjAddr: 0x1EBC, symBinAddr: 0x100002EFC, symSize: 0x64 }
  - { offsetInCU: 0x8F80, offset: 0x8F80, size: 0x8, addend: 0x0, symName: __ZNKSt3__19basic_iosIcNS_11char_traitsIcEEE10exceptionsB7v160006Ev, symObjAddr: 0x1F20, symBinAddr: 0x100002F60, symSize: 0x24 }
  - { offsetInCU: 0x8FA5, offset: 0x8FA5, size: 0x8, addend: 0x0, symName: __ZNSt3__111char_traitsIcE6assignERcRKc, symObjAddr: 0x1F54, symBinAddr: 0x100002F94, symSize: 0x24 }
  - { offsetInCU: 0x8FD6, offset: 0x8FD6, size: 0x8, addend: 0x0, symName: __ZNSt3__112basic_stringIcNS_11char_traitsIcEENS_9allocatorIcEEE18__get_long_pointerB7v160006Ev, symObjAddr: 0x1F78, symBinAddr: 0x100002FB8, symSize: 0x28 }
  - { offsetInCU: 0x8FFB, offset: 0x8FFB, size: 0x8, addend: 0x0, symName: __ZNSt3__112basic_stringIcNS_11char_traitsIcEENS_9allocatorIcEEE15__set_long_sizeB7v160006Em, symObjAddr: 0x1FA0, symBinAddr: 0x100002FE0, symSize: 0x38 }
  - { offsetInCU: 0x902F, offset: 0x902F, size: 0x8, addend: 0x0, symName: __ZNSt3__112basic_stringIcNS_11char_traitsIcEENS_9allocatorIcEEE19__get_short_pointerB7v160006Ev, symObjAddr: 0x1FD8, symBinAddr: 0x100003018, symSize: 0x28 }
  - { offsetInCU: 0x9054, offset: 0x9054, size: 0x8, addend: 0x0, symName: __ZNSt3__112basic_stringIcNS_11char_traitsIcEENS_9allocatorIcEEE16__set_short_sizeB7v160006Em, symObjAddr: 0x2000, symBinAddr: 0x100003040, symSize: 0x78 }
  - { offsetInCU: 0x9088, offset: 0x9088, size: 0x8, addend: 0x0, symName: __ZNSt3__117__compressed_pairINS_12basic_stringIcNS_11char_traitsIcEENS_9allocatorIcEEE5__repES5_E5firstB7v160006Ev, symObjAddr: 0x2078, symBinAddr: 0x1000030B8, symSize: 0x24 }
  - { offsetInCU: 0x90AD, offset: 0x90AD, size: 0x8, addend: 0x0, symName: __ZNSt3__122__compressed_pair_elemINS_12basic_stringIcNS_11char_traitsIcEENS_9allocatorIcEEE5__repELi0ELb0EE5__getB7v160006Ev, symObjAddr: 0x209C, symBinAddr: 0x1000030DC, symSize: 0x14 }
  - { offsetInCU: 0x90D2, offset: 0x90D2, size: 0x8, addend: 0x0, symName: __ZNSt3__114pointer_traitsIPcE10pointer_toB7v160006ERc, symObjAddr: 0x20B0, symBinAddr: 0x1000030F0, symSize: 0x14 }
  - { offsetInCU: 0x90FF, offset: 0x90FF, size: 0x8, addend: 0x0, symName: __ZNSt3__116allocator_traitsINS_9allocatorIcEEE8max_sizeB7v160006IS2_vEEmRKS2_, symObjAddr: 0x20C4, symBinAddr: 0x100003104, symSize: 0x24 }
  - { offsetInCU: 0x912D, offset: 0x912D, size: 0x8, addend: 0x0, symName: __ZNKSt3__112basic_stringIcNS_11char_traitsIcEENS_9allocatorIcEEE7__allocB7v160006Ev, symObjAddr: 0x20E8, symBinAddr: 0x100003128, symSize: 0x24 }
  - { offsetInCU: 0x9152, offset: 0x9152, size: 0x8, addend: 0x0, symName: __ZNSt3__114numeric_limitsImE3maxB7v160006Ev, symObjAddr: 0x210C, symBinAddr: 0x10000314C, symSize: 0x14 }
  - { offsetInCU: 0x9166, offset: 0x9166, size: 0x8, addend: 0x0, symName: __ZNKSt3__19allocatorIcE8max_sizeB7v160006Ev, symObjAddr: 0x2120, symBinAddr: 0x100003160, symSize: 0x14 }
  - { offsetInCU: 0x918B, offset: 0x918B, size: 0x8, addend: 0x0, symName: __ZNKSt3__117__compressed_pairINS_12basic_stringIcNS_11char_traitsIcEENS_9allocatorIcEEE5__repES5_E6secondB7v160006Ev, symObjAddr: 0x2134, symBinAddr: 0x100003174, symSize: 0x24 }
  - { offsetInCU: 0x91B0, offset: 0x91B0, size: 0x8, addend: 0x0, symName: __ZNKSt3__122__compressed_pair_elemINS_9allocatorIcEELi1ELb1EE5__getB7v160006Ev, symObjAddr: 0x2158, symBinAddr: 0x100003198, symSize: 0x14 }
  - { offsetInCU: 0x91D5, offset: 0x91D5, size: 0x8, addend: 0x0, symName: __ZNSt3__123__libcpp_numeric_limitsImLb1EE3maxB7v160006Ev, symObjAddr: 0x216C, symBinAddr: 0x1000031AC, symSize: 0x8 }
  - { offsetInCU: 0x91E9, offset: 0x91E9, size: 0x8, addend: 0x0, symName: __ZNSt3__123__libcpp_numeric_limitsIlLb1EE3maxB7v160006Ev, symObjAddr: 0x2174, symBinAddr: 0x1000031B4, symSize: 0x8 }
  - { offsetInCU: 0x91FD, offset: 0x91FD, size: 0x8, addend: 0x0, symName: __ZNSt3__111char_traitsIcE11to_int_typeEc, symObjAddr: 0x217C, symBinAddr: 0x1000031BC, symSize: 0x14 }
  - { offsetInCU: 0x921F, offset: 0x921F, size: 0x8, addend: 0x0, symName: __Z7isasciii, symObjAddr: 0x2190, symBinAddr: 0x1000031D0, symSize: 0x24 }
  - { offsetInCU: 0x924C, offset: 0x924C, size: 0x8, addend: 0x0, symName: __ZNKSt3__18ios_base10exceptionsB7v160006Ev, symObjAddr: 0x21B4, symBinAddr: 0x1000031F4, symSize: 0x18 }
  - { offsetInCU: 0x9273, offset: 0x9273, size: 0x8, addend: 0x0, symName: __ZNSt3__112basic_stringIcNS_11char_traitsIcEENS_9allocatorIcEEE13__get_pointerB7v160006Ev, symObjAddr: 0x21CC, symBinAddr: 0x10000320C, symSize: 0x54 }
  - { offsetInCU: 0x9298, offset: 0x9298, size: 0x8, addend: 0x0, symName: __ZNSt3__111char_traitsIcE7compareEPKcS3_m, symObjAddr: 0x2220, symBinAddr: 0x100003260, symSize: 0x80 }
  - { offsetInCU: 0x92D6, offset: 0x92D6, size: 0x8, addend: 0x0, symName: __ZNSt3__112basic_stringIcNS_11char_traitsIcEENS_9allocatorIcEEEC2B7v160006Ev, symObjAddr: 0x22D4, symBinAddr: 0x100003314, symSize: 0x44 }
  - { offsetInCU: 0x92FF, offset: 0x92FF, size: 0x8, addend: 0x0, symName: __ZNSt3__112basic_stringIcNS_11char_traitsIcEENS_9allocatorIcEEE14__default_initB7v160006Ev, symObjAddr: 0x2318, symBinAddr: 0x100003358, symSize: 0xB0 }
  - { offsetInCU: 0x9351, offset: 0x9351, size: 0x8, addend: 0x0, symName: __ZNSt3__112basic_stringIcNS_11char_traitsIcEENS_9allocatorIcEEE11__recommendB7v160006Em, symObjAddr: 0x23C8, symBinAddr: 0x100003408, symSize: 0x9C }
  - { offsetInCU: 0x9384, offset: 0x9384, size: 0x8, addend: 0x0, symName: __ZNSt3__116allocator_traitsINS_9allocatorIcEEE8allocateB7v160006ERS2_m, symObjAddr: 0x2464, symBinAddr: 0x1000034A4, symSize: 0x2C }
  - { offsetInCU: 0x93B7, offset: 0x93B7, size: 0x8, addend: 0x0, symName: __ZNSt3__112basic_stringIcNS_11char_traitsIcEENS_9allocatorIcEEE7__allocB7v160006Ev, symObjAddr: 0x2490, symBinAddr: 0x1000034D0, symSize: 0x24 }
  - { offsetInCU: 0x93DC, offset: 0x93DC, size: 0x8, addend: 0x0, symName: __ZNSt3__112basic_stringIcNS_11char_traitsIcEENS_9allocatorIcEEE16__begin_lifetimeB7v160006EPcm, symObjAddr: 0x24B4, symBinAddr: 0x1000034F4, symSize: 0x14 }
  - { offsetInCU: 0x940F, offset: 0x940F, size: 0x8, addend: 0x0, symName: __ZNSt3__112basic_stringIcNS_11char_traitsIcEENS_9allocatorIcEEE18__set_long_pointerB7v160006EPc, symObjAddr: 0x24C8, symBinAddr: 0x100003508, symSize: 0x38 }
  - { offsetInCU: 0x9443, offset: 0x9443, size: 0x8, addend: 0x0, symName: __ZNSt3__112basic_stringIcNS_11char_traitsIcEENS_9allocatorIcEEE14__set_long_capB7v160006Em, symObjAddr: 0x2500, symBinAddr: 0x100003540, symSize: 0x70 }
  - { offsetInCU: 0x9477, offset: 0x9477, size: 0x8, addend: 0x0, symName: __ZNSt3__112basic_stringIcNS_11char_traitsIcEENS_9allocatorIcEEE10__align_itB7v160006ILm16EEEmm, symObjAddr: 0x2570, symBinAddr: 0x1000035B0, symSize: 0x1C }
  - { offsetInCU: 0x94A5, offset: 0x94A5, size: 0x8, addend: 0x0, symName: __ZNSt3__19allocatorIcE8allocateB7v160006Em, symObjAddr: 0x258C, symBinAddr: 0x1000035CC, symSize: 0x84 }
  - { offsetInCU: 0x94D8, offset: 0x94D8, size: 0x8, addend: 0x0, symName: __ZNSt3__117__compressed_pairINS_12basic_stringIcNS_11char_traitsIcEENS_9allocatorIcEEE5__repES5_E6secondB7v160006Ev, symObjAddr: 0x2690, symBinAddr: 0x1000036D0, symSize: 0x24 }
  - { offsetInCU: 0x94FD, offset: 0x94FD, size: 0x8, addend: 0x0, symName: __ZNSt3__122__compressed_pair_elemINS_9allocatorIcEELi1ELb1EE5__getB7v160006Ev, symObjAddr: 0x26B4, symBinAddr: 0x1000036F4, symSize: 0x14 }
  - { offsetInCU: 0x9522, offset: 0x9522, size: 0x8, addend: 0x0, symName: __ZNSt3__111char_traitsIcE6lengthEPKc, symObjAddr: 0x26C8, symBinAddr: 0x100003708, symSize: 0x48 }
  - { offsetInCU: 0x9544, offset: 0x9544, size: 0x8, addend: 0x0, symName: __ZNSt3__112basic_stringIcNS_11char_traitsIcEENS_9allocatorIcEEEC2B7v160006IDnEEPKc, symObjAddr: 0x2734, symBinAddr: 0x100003774, symSize: 0x60 }
...
