---
triple:          'arm64-apple-darwin'
binary-path:     '/Users/spoofch/Documents/Lab_C++/Lab8/2'
relocations:
  - { offsetInCU: 0x2EA1, offset: 0x2EA1, size: 0x8, addend: 0x0, symName: __ZNSt3__124__put_character_sequenceB7v160006IcNS_11char_traitsIcEEEERNS_13basic_ostreamIT_T0_EES7_PKS4_m, symObjAddr: 0x658, symBinAddr: 0x100001C2C, symSize: 0x1F4 }
  - { offsetInCU: 0x3D99, offset: 0x3D99, size: 0x8, addend: 0x0, symName: __ZNSt3__16copy_nB7v160006IPKcmPcEENS_9enable_ifIXsr33__is_cpp17_random_access_iteratorIT_EE5valueET1_E4typeES5_T0_S6_, symObjAddr: 0x1E1C, symBinAddr: 0x1000033F0, symSize: 0x44 }
  - { offsetInCU: 0x4B13, offset: 0x4B13, size: 0x8, addend: 0x0, symName: __ZNSt3__1lsB7v160006INS_11char_traitsIcEEEERNS_13basic_ostreamIcT_EES6_PKc, symObjAddr: 0x1A8, symBinAddr: 0x10000177C, symSize: 0x48 }
  - { offsetInCU: 0x506B, offset: 0x506B, size: 0x8, addend: 0x0, symName: __ZNSt3__14endlB7v160006IcNS_11char_traitsIcEEEERNS_13basic_ostreamIT_T0_EES7_, symObjAddr: 0x2AC, symBinAddr: 0x100001880, symSize: 0x58 }
  - { offsetInCU: 0x50AB, offset: 0x50AB, size: 0x8, addend: 0x0, symName: __ZNSt3__1lsB7v160006IcNS_11char_traitsIcEENS_9allocatorIcEEEERNS_13basic_ostreamIT_T0_EES9_RKNS_12basic_stringIS6_S7_T1_EE, symObjAddr: 0x4C0, symBinAddr: 0x100001A94, symSize: 0x4C }
  - { offsetInCU: 0x5103, offset: 0x5103, size: 0x8, addend: 0x0, symName: __ZNSt3__1plB7v160006IcNS_11char_traitsIcEENS_9allocatorIcEEEENS_12basic_stringIT_T0_T1_EES6_RKS9_, symObjAddr: 0x54C, symBinAddr: 0x100001B20, symSize: 0x10C }
  - { offsetInCU: 0x5195, offset: 0x5195, size: 0x8, addend: 0x0, symName: __ZNSt3__116__pad_and_outputB7v160006IcNS_11char_traitsIcEEEENS_19ostreambuf_iteratorIT_T0_EES6_PKS4_S8_S8_RNS_8ios_baseES4_, symObjAddr: 0x8B0, symBinAddr: 0x100001E84, symSize: 0x248 }
  - { offsetInCU: 0x5264, offset: 0x5264, size: 0x8, addend: 0x0, symName: __ZNSt3__119__debug_db_insert_cB7v160006INS_12basic_stringIcNS_11char_traitsIcEENS_9allocatorIcEEEEEEvPT_, symObjAddr: 0xD6C, symBinAddr: 0x100002340, symSize: 0x10 }
  - { offsetInCU: 0x5295, offset: 0x5295, size: 0x8, addend: 0x0, symName: __ZNSt3__112__to_addressB7v160006IKcEEPT_S3_, symObjAddr: 0xE38, symBinAddr: 0x10000240C, symSize: 0x14 }
  - { offsetInCU: 0x52CA, offset: 0x52CA, size: 0x8, addend: 0x0, symName: __ZNSt3__130__libcpp_is_constant_evaluatedB7v160006Ev, symObjAddr: 0xF64, symBinAddr: 0x100002538, symSize: 0xC }
  - { offsetInCU: 0x531A, offset: 0x531A, size: 0x8, addend: 0x0, symName: __ZNSt3__19use_facetB7v160006INS_5ctypeIcEEEERKT_RKNS_6localeE, symObjAddr: 0x111C, symBinAddr: 0x1000026F0, symSize: 0x2C }
  - { offsetInCU: 0x57E9, offset: 0x57E9, size: 0x8, addend: 0x0, symName: __ZNSt3__118__constexpr_strlenB7v160006EPKc, symObjAddr: 0x11B4, symBinAddr: 0x100002788, symSize: 0x24 }
  - { offsetInCU: 0x5815, offset: 0x5815, size: 0x8, addend: 0x0, symName: __ZNSt3__112__to_addressB7v160006IcEEPT_S2_, symObjAddr: 0x1380, symBinAddr: 0x100002954, symSize: 0x14 }
  - { offsetInCU: 0x5A4C, offset: 0x5A4C, size: 0x8, addend: 0x0, symName: __ZNSt3__120__throw_length_errorB7v160006EPKc, symObjAddr: 0x1AAC, symBinAddr: 0x100003080, symSize: 0x64 }
  - { offsetInCU: 0x5A74, offset: 0x5A74, size: 0x8, addend: 0x0, symName: __ZNSt3__117__libcpp_allocateB7v160006Emm, symObjAddr: 0x1C78, symBinAddr: 0x10000324C, symSize: 0x28 }
  - { offsetInCU: 0x5AB1, offset: 0x5AB1, size: 0x8, addend: 0x0, symName: __ZNSt3__121__libcpp_operator_newB7v160006IJmEEEPvDpT_, symObjAddr: 0x1CA0, symBinAddr: 0x100003274, symSize: 0x24 }
  - { offsetInCU: 0x5B1D, offset: 0x5B1D, size: 0x8, addend: 0x0, symName: __ZNSt3__16fill_nB7v160006IPcmcEET_S2_T0_RKT1_, symObjAddr: 0x1D60, symBinAddr: 0x100003334, symSize: 0x44 }
  - { offsetInCU: 0x5B80, offset: 0x5B80, size: 0x8, addend: 0x0, symName: __ZNSt3__18__fill_nB7v160006IPcmcEET_S2_T0_RKT1_, symObjAddr: 0x1DA4, symBinAddr: 0x100003378, symSize: 0x64 }
  - { offsetInCU: 0x5BE3, offset: 0x5BE3, size: 0x8, addend: 0x0, symName: __ZNSt3__121__convert_to_integralB7v160006Em, symObjAddr: 0x1E08, symBinAddr: 0x1000033DC, symSize: 0x14 }
  - { offsetInCU: 0x5C0F, offset: 0x5C0F, size: 0x8, addend: 0x0, symName: __ZNSt3__14copyB7v160006IPKcPcEET0_T_S5_S4_, symObjAddr: 0x1E60, symBinAddr: 0x100003434, symSize: 0x40 }
  - { offsetInCU: 0x5C69, offset: 0x5C69, size: 0x8, addend: 0x0, symName: __ZNSt3__16__copyB7v160006INS_17_ClassicAlgPolicyEPKcS3_PcEENS_4pairIT0_T2_EES6_T1_S7_, symObjAddr: 0x1EA0, symBinAddr: 0x100003474, symSize: 0x44 }
  - { offsetInCU: 0x5CD5, offset: 0x5CD5, size: 0x8, addend: 0x0, symName: __ZNSt3__123__dispatch_copy_or_moveB7v160006INS_17_ClassicAlgPolicyENS_11__copy_loopIS1_EENS_14__copy_trivialEPKcS6_PcEENS_4pairIT2_T4_EES9_T3_SA_, symObjAddr: 0x1EE4, symBinAddr: 0x1000034B8, symSize: 0x54 }
  - { offsetInCU: 0x5D53, offset: 0x5D53, size: 0x8, addend: 0x0, symName: __ZNSt3__121__unwrap_and_dispatchB7v160006INS_10__overloadINS_11__copy_loopINS_17_ClassicAlgPolicyEEENS_14__copy_trivialEEEPKcS8_PcLi0EEENS_4pairIT0_T2_EESB_T1_SC_, symObjAddr: 0x1F38, symBinAddr: 0x10000350C, symSize: 0xB4 }
  - { offsetInCU: 0x5DE1, offset: 0x5DE1, size: 0x8, addend: 0x0, symName: __ZNSt3__114__unwrap_rangeB7v160006IPKcS2_EENS_4pairIT0_S4_EET_S6_, symObjAddr: 0x1FEC, symBinAddr: 0x1000035C0, symSize: 0x60 }
  - { offsetInCU: 0x5F20, offset: 0x5F20, size: 0x8, addend: 0x0, symName: __ZNSt3__113__unwrap_iterB7v160006IPcNS_18__unwrap_iter_implIS1_Lb1EEELi0EEEDTclsrT0_8__unwrapclsr3stdE7declvalIT_EEEES5_, symObjAddr: 0x2094, symBinAddr: 0x100003668, symSize: 0x24 }
  - { offsetInCU: 0x5F64, offset: 0x5F64, size: 0x8, addend: 0x0, symName: __ZNSt3__19make_pairB7v160006IPKcPcEENS_4pairINS_18__unwrap_ref_decayIT_E4typeENS5_IT0_E4typeEEEOS6_OS9_, symObjAddr: 0x20B8, symBinAddr: 0x10000368C, symSize: 0x38 }
  - { offsetInCU: 0x5FB3, offset: 0x5FB3, size: 0x8, addend: 0x0, symName: __ZNSt3__114__rewrap_rangeB7v160006IPKcS2_EET_S3_T0_, symObjAddr: 0x20F0, symBinAddr: 0x1000036C4, symSize: 0x2C }
  - { offsetInCU: 0x5FFF, offset: 0x5FFF, size: 0x8, addend: 0x0, symName: __ZNSt3__113__rewrap_iterB7v160006IPcS1_NS_18__unwrap_iter_implIS1_Lb1EEEEET_S4_T0_, symObjAddr: 0x211C, symBinAddr: 0x1000036F0, symSize: 0x50 }
  - { offsetInCU: 0x6054, offset: 0x6054, size: 0x8, addend: 0x0, symName: __ZNSt3__19make_pairB7v160006IPKcS2_EENS_4pairINS_18__unwrap_ref_decayIT_E4typeENS4_IT0_E4typeEEEOS5_OS8_, symObjAddr: 0x216C, symBinAddr: 0x100003740, symSize: 0x38 }
  - { offsetInCU: 0x60A3, offset: 0x60A3, size: 0x8, addend: 0x0, symName: __ZNSt3__113__unwrap_iterB7v160006IPKcNS_18__unwrap_iter_implIS2_Lb1EEELi0EEEDTclsrT0_8__unwrapclsr3stdE7declvalIT_EEEES6_, symObjAddr: 0x21A4, symBinAddr: 0x100003778, symSize: 0x24 }
  - { offsetInCU: 0x61E7, offset: 0x61E7, size: 0x8, addend: 0x0, symName: __ZNSt3__119__copy_trivial_implB7v160006IKccEENS_4pairIPT_PT0_EES4_S4_S6_, symObjAddr: 0x225C, symBinAddr: 0x100003830, symSize: 0x7C }
  - { offsetInCU: 0x624F, offset: 0x624F, size: 0x8, addend: 0x0, symName: __ZNSt3__19make_pairB7v160006IRPKcPcEENS_4pairINS_18__unwrap_ref_decayIT_E4typeENS6_IT0_E4typeEEEOS7_OSA_, symObjAddr: 0x22D8, symBinAddr: 0x1000038AC, symSize: 0x38 }
  - { offsetInCU: 0x62F1, offset: 0x62F1, size: 0x8, addend: 0x0, symName: __ZNSt3__113__rewrap_iterB7v160006IPKcS2_NS_18__unwrap_iter_implIS2_Lb1EEEEET_S5_T0_, symObjAddr: 0x23A4, symBinAddr: 0x100003978, symSize: 0x50 }
  - { offsetInCU: 0x6529, offset: 0x6529, size: 0x8, addend: 0x0, symName: __ZSt28__throw_bad_array_new_lengthB7v160006v, symObjAddr: 0x1C44, symBinAddr: 0x100003218, symSize: 0x34 }
  - { offsetInCU: 0x8A03, offset: 0x8A03, size: 0x8, addend: 0x0, symName: _main, symObjAddr: 0x0, symBinAddr: 0x1000015D4, symSize: 0x1A8 }
  - { offsetInCU: 0x8ACD, offset: 0x8ACD, size: 0x8, addend: 0x0, symName: __ZNSt3__113basic_istreamIcNS_11char_traitsIcEEE7getlineB7v160006EPcl, symObjAddr: 0x1F0, symBinAddr: 0x1000017C4, symSize: 0x68 }
  - { offsetInCU: 0x8B11, offset: 0x8B11, size: 0x8, addend: 0x0, symName: __ZNKSt3__19basic_iosIcNS_11char_traitsIcEEE4failB7v160006Ev, symObjAddr: 0x258, symBinAddr: 0x10000182C, symSize: 0x28 }
  - { offsetInCU: 0x8B37, offset: 0x8B37, size: 0x8, addend: 0x0, symName: __ZNSt3__113basic_ostreamIcNS_11char_traitsIcEEElsB7v160006EPFRS3_S4_E, symObjAddr: 0x280, symBinAddr: 0x100001854, symSize: 0x2C }
  - { offsetInCU: 0x8B6A, offset: 0x8B6A, size: 0x8, addend: 0x0, symName: __Z8mystery3PKcRiS1_, symObjAddr: 0x304, symBinAddr: 0x1000018D8, symSize: 0xF8 }
  - { offsetInCU: 0x8BB2, offset: 0x8BB2, size: 0x8, addend: 0x0, symName: __Z13reverseStringPKcm, symObjAddr: 0x3FC, symBinAddr: 0x1000019D0, symSize: 0xC4 }
  - { offsetInCU: 0x8BF2, offset: 0x8BF2, size: 0x8, addend: 0x0, symName: __ZNSt3__112basic_stringIcNS_11char_traitsIcEENS_9allocatorIcEEEC1B7v160006IDnEEPKc, symObjAddr: 0x518, symBinAddr: 0x100001AEC, symSize: 0x34 }
  - { offsetInCU: 0x8C30, offset: 0x8C30, size: 0x8, addend: 0x0, symName: __ZNSt3__111char_traitsIcE6lengthEPKc, symObjAddr: 0x84C, symBinAddr: 0x100001E20, symSize: 0x48 }
  - { offsetInCU: 0x8C71, offset: 0x8C71, size: 0x8, addend: 0x0, symName: __ZNKSt3__113basic_ostreamIcNS_11char_traitsIcEEE6sentrycvbB7v160006Ev, symObjAddr: 0x894, symBinAddr: 0x100001E68, symSize: 0x1C }
  - { offsetInCU: 0x8C97, offset: 0x8C97, size: 0x8, addend: 0x0, symName: __ZNSt3__119ostreambuf_iteratorIcNS_11char_traitsIcEEEC1B7v160006ERNS_13basic_ostreamIcS2_EE, symObjAddr: 0xAF8, symBinAddr: 0x1000020CC, symSize: 0x34 }
  - { offsetInCU: 0x8CCF, offset: 0x8CCF, size: 0x8, addend: 0x0, symName: __ZNKSt3__18ios_base5flagsB7v160006Ev, symObjAddr: 0xB2C, symBinAddr: 0x100002100, symSize: 0x18 }
  - { offsetInCU: 0x8CF7, offset: 0x8CF7, size: 0x8, addend: 0x0, symName: __ZNKSt3__19basic_iosIcNS_11char_traitsIcEEE4fillB7v160006Ev, symObjAddr: 0xB44, symBinAddr: 0x100002118, symSize: 0x64 }
  - { offsetInCU: 0x8D1F, offset: 0x8D1F, size: 0x8, addend: 0x0, symName: __ZNKSt3__119ostreambuf_iteratorIcNS_11char_traitsIcEEE6failedB7v160006Ev, symObjAddr: 0xBA8, symBinAddr: 0x10000217C, symSize: 0x24 }
  - { offsetInCU: 0x8D45, offset: 0x8D45, size: 0x8, addend: 0x0, symName: __ZNSt3__19basic_iosIcNS_11char_traitsIcEEE8setstateB7v160006Ej, symObjAddr: 0xBCC, symBinAddr: 0x1000021A0, symSize: 0x2C }
  - { offsetInCU: 0x8D7A, offset: 0x8D7A, size: 0x8, addend: 0x0, symName: __ZNKSt3__18ios_base5widthB7v160006Ev, symObjAddr: 0xBF8, symBinAddr: 0x1000021CC, symSize: 0x18 }
  - { offsetInCU: 0x8DA2, offset: 0x8DA2, size: 0x8, addend: 0x0, symName: __ZNSt3__115basic_streambufIcNS_11char_traitsIcEEE5sputnB7v160006EPKcl, symObjAddr: 0xC10, symBinAddr: 0x1000021E4, symSize: 0x3C }
  - { offsetInCU: 0x8DE4, offset: 0x8DE4, size: 0x8, addend: 0x0, symName: __ZNSt3__112basic_stringIcNS_11char_traitsIcEENS_9allocatorIcEEEC1B7v160006Emc, symObjAddr: 0xC4C, symBinAddr: 0x100002220, symSize: 0x3C }
  - { offsetInCU: 0x8E2C, offset: 0x8E2C, size: 0x8, addend: 0x0, symName: __ZNKSt3__112basic_stringIcNS_11char_traitsIcEENS_9allocatorIcEEE4dataB7v160006Ev, symObjAddr: 0xC88, symBinAddr: 0x10000225C, symSize: 0x28 }
  - { offsetInCU: 0x8E52, offset: 0x8E52, size: 0x8, addend: 0x0, symName: __ZNSt3__18ios_base5widthB7v160006El, symObjAddr: 0xCB0, symBinAddr: 0x100002284, symSize: 0x2C }
  - { offsetInCU: 0x8E98, offset: 0x8E98, size: 0x8, addend: 0x0, symName: __ZNSt3__112basic_stringIcNS_11char_traitsIcEENS_9allocatorIcEEEC2B7v160006Emc, symObjAddr: 0xCDC, symBinAddr: 0x1000022B0, symSize: 0x54 }
  - { offsetInCU: 0x8EE5, offset: 0x8EE5, size: 0x8, addend: 0x0, symName: __ZNSt3__117__compressed_pairINS_12basic_stringIcNS_11char_traitsIcEENS_9allocatorIcEEE5__repES5_EC1B7v160006INS_18__default_init_tagESA_EEOT_OT0_, symObjAddr: 0xD30, symBinAddr: 0x100002304, symSize: 0x3C }
  - { offsetInCU: 0x8F3D, offset: 0x8F3D, size: 0x8, addend: 0x0, symName: __ZNSt3__117__compressed_pairINS_12basic_stringIcNS_11char_traitsIcEENS_9allocatorIcEEE5__repES5_EC2B7v160006INS_18__default_init_tagESA_EEOT_OT0_, symObjAddr: 0xD7C, symBinAddr: 0x100002350, symSize: 0x3C }
  - { offsetInCU: 0x8F95, offset: 0x8F95, size: 0x8, addend: 0x0, symName: __ZNSt3__122__compressed_pair_elemINS_12basic_stringIcNS_11char_traitsIcEENS_9allocatorIcEEE5__repELi0ELb0EEC2B7v160006ENS_18__default_init_tagE, symObjAddr: 0xDB8, symBinAddr: 0x10000238C, symSize: 0x14 }
  - { offsetInCU: 0x8FCA, offset: 0x8FCA, size: 0x8, addend: 0x0, symName: __ZNSt3__122__compressed_pair_elemINS_9allocatorIcEELi1ELb1EEC2B7v160006ENS_18__default_init_tagE, symObjAddr: 0xDCC, symBinAddr: 0x1000023A0, symSize: 0x2C }
  - { offsetInCU: 0x8FFF, offset: 0x8FFF, size: 0x8, addend: 0x0, symName: __ZNSt3__19allocatorIcEC2B7v160006Ev, symObjAddr: 0xDF8, symBinAddr: 0x1000023CC, symSize: 0x2C }
  - { offsetInCU: 0x9029, offset: 0x9029, size: 0x8, addend: 0x0, symName: __ZNSt3__116__non_trivial_ifILb1ENS_9allocatorIcEEEC2B7v160006Ev, symObjAddr: 0xE24, symBinAddr: 0x1000023F8, symSize: 0x14 }
  - { offsetInCU: 0x9053, offset: 0x9053, size: 0x8, addend: 0x0, symName: __ZNKSt3__112basic_stringIcNS_11char_traitsIcEENS_9allocatorIcEEE13__get_pointerB7v160006Ev, symObjAddr: 0xE4C, symBinAddr: 0x100002420, symSize: 0x54 }
  - { offsetInCU: 0x9079, offset: 0x9079, size: 0x8, addend: 0x0, symName: __ZNKSt3__112basic_stringIcNS_11char_traitsIcEENS_9allocatorIcEEE9__is_longB7v160006Ev, symObjAddr: 0xEA0, symBinAddr: 0x100002474, symSize: 0x74 }
  - { offsetInCU: 0x909F, offset: 0x909F, size: 0x8, addend: 0x0, symName: __ZNKSt3__112basic_stringIcNS_11char_traitsIcEENS_9allocatorIcEEE18__get_long_pointerB7v160006Ev, symObjAddr: 0xF14, symBinAddr: 0x1000024E8, symSize: 0x28 }
  - { offsetInCU: 0x90C5, offset: 0x90C5, size: 0x8, addend: 0x0, symName: __ZNKSt3__112basic_stringIcNS_11char_traitsIcEENS_9allocatorIcEEE19__get_short_pointerB7v160006Ev, symObjAddr: 0xF3C, symBinAddr: 0x100002510, symSize: 0x28 }
  - { offsetInCU: 0x90EB, offset: 0x90EB, size: 0x8, addend: 0x0, symName: __ZNKSt3__117__compressed_pairINS_12basic_stringIcNS_11char_traitsIcEENS_9allocatorIcEEE5__repES5_E5firstB7v160006Ev, symObjAddr: 0xF70, symBinAddr: 0x100002544, symSize: 0x24 }
  - { offsetInCU: 0x9111, offset: 0x9111, size: 0x8, addend: 0x0, symName: __ZNKSt3__122__compressed_pair_elemINS_12basic_stringIcNS_11char_traitsIcEENS_9allocatorIcEEE5__repELi0ELb0EE5__getB7v160006Ev, symObjAddr: 0xF94, symBinAddr: 0x100002568, symSize: 0x14 }
  - { offsetInCU: 0x9137, offset: 0x9137, size: 0x8, addend: 0x0, symName: __ZNSt3__114pointer_traitsIPKcE10pointer_toB7v160006ERS1_, symObjAddr: 0xFA8, symBinAddr: 0x10000257C, symSize: 0x14 }
  - { offsetInCU: 0x915A, offset: 0x915A, size: 0x8, addend: 0x0, symName: __ZNSt3__119ostreambuf_iteratorIcNS_11char_traitsIcEEEC2B7v160006ERNS_13basic_ostreamIcS2_EE, symObjAddr: 0xFBC, symBinAddr: 0x100002590, symSize: 0x68 }
  - { offsetInCU: 0x9192, offset: 0x9192, size: 0x8, addend: 0x0, symName: __ZNKSt3__19basic_iosIcNS_11char_traitsIcEEE5rdbufB7v160006Ev, symObjAddr: 0x1024, symBinAddr: 0x1000025F8, symSize: 0x24 }
  - { offsetInCU: 0x91BA, offset: 0x91BA, size: 0x8, addend: 0x0, symName: __ZNKSt3__18ios_base5rdbufB7v160006Ev, symObjAddr: 0x1048, symBinAddr: 0x10000261C, symSize: 0x18 }
  - { offsetInCU: 0x91E0, offset: 0x91E0, size: 0x8, addend: 0x0, symName: __ZNSt3__111char_traitsIcE11eq_int_typeEii, symObjAddr: 0x1060, symBinAddr: 0x100002634, symSize: 0x28 }
  - { offsetInCU: 0x9211, offset: 0x9211, size: 0x8, addend: 0x0, symName: __ZNSt3__111char_traitsIcE3eofEv, symObjAddr: 0x1088, symBinAddr: 0x10000265C, symSize: 0x8 }
  - { offsetInCU: 0x9225, offset: 0x9225, size: 0x8, addend: 0x0, symName: __ZNKSt3__19basic_iosIcNS_11char_traitsIcEEE5widenB7v160006Ec, symObjAddr: 0x1090, symBinAddr: 0x100002664, symSize: 0x8C }
  - { offsetInCU: 0x9293, offset: 0x9293, size: 0x8, addend: 0x0, symName: __ZNKSt3__15ctypeIcE5widenB7v160006Ec, symObjAddr: 0x1148, symBinAddr: 0x10000271C, symSize: 0x38 }
  - { offsetInCU: 0x92C8, offset: 0x92C8, size: 0x8, addend: 0x0, symName: __ZNSt3__18ios_base8setstateB7v160006Ej, symObjAddr: 0x1180, symBinAddr: 0x100002754, symSize: 0x34 }
  - { offsetInCU: 0x92FF, offset: 0x92FF, size: 0x8, addend: 0x0, symName: __ZNKSt3__18ios_base4failB7v160006Ev, symObjAddr: 0x11D8, symBinAddr: 0x1000027AC, symSize: 0x28 }
  - { offsetInCU: 0x9327, offset: 0x9327, size: 0x8, addend: 0x0, symName: __ZNKSt3__112basic_stringIcNS_11char_traitsIcEENS_9allocatorIcEEE4sizeB7v160006Ev, symObjAddr: 0x1200, symBinAddr: 0x1000027D4, symSize: 0x54 }
  - { offsetInCU: 0x934D, offset: 0x934D, size: 0x8, addend: 0x0, symName: __ZNKSt3__112basic_stringIcNS_11char_traitsIcEENS_9allocatorIcEEE15__get_long_sizeB7v160006Ev, symObjAddr: 0x1254, symBinAddr: 0x100002828, symSize: 0x28 }
  - { offsetInCU: 0x9373, offset: 0x9373, size: 0x8, addend: 0x0, symName: __ZNKSt3__112basic_stringIcNS_11char_traitsIcEENS_9allocatorIcEEE16__get_short_sizeB7v160006Ev, symObjAddr: 0x127C, symBinAddr: 0x100002850, symSize: 0x34 }
  - { offsetInCU: 0x9399, offset: 0x9399, size: 0x8, addend: 0x0, symName: __ZNSt3__112basic_stringIcNS_11char_traitsIcEENS_9allocatorIcEEEC2B7v160006IDnEEPKc, symObjAddr: 0x12B0, symBinAddr: 0x100002884, symSize: 0x60 }
  - { offsetInCU: 0x93E1, offset: 0x93E1, size: 0x8, addend: 0x0, symName: __ZNSt3__116allocator_traitsINS_9allocatorIcEEE37select_on_container_copy_constructionB7v160006IS2_vvEES2_RKS2_, symObjAddr: 0x1310, symBinAddr: 0x1000028E4, symSize: 0x10 }
  - { offsetInCU: 0x9410, offset: 0x9410, size: 0x8, addend: 0x0, symName: __ZNKSt3__112basic_stringIcNS_11char_traitsIcEENS_9allocatorIcEEE13get_allocatorB7v160006Ev, symObjAddr: 0x1320, symBinAddr: 0x1000028F4, symSize: 0x24 }
  - { offsetInCU: 0x9436, offset: 0x9436, size: 0x8, addend: 0x0, symName: __ZNSt3__112basic_stringIcNS_11char_traitsIcEENS_9allocatorIcEEEC1B7v160006ENS_24__uninitialized_size_tagEmRKS4_, symObjAddr: 0x1344, symBinAddr: 0x100002918, symSize: 0x3C }
  - { offsetInCU: 0x948A, offset: 0x948A, size: 0x8, addend: 0x0, symName: __ZNSt3__112basic_stringIcNS_11char_traitsIcEENS_9allocatorIcEEE13__get_pointerB7v160006Ev, symObjAddr: 0x1394, symBinAddr: 0x100002968, symSize: 0x54 }
  - { offsetInCU: 0x94B0, offset: 0x94B0, size: 0x8, addend: 0x0, symName: __ZNSt3__111char_traitsIcE6assignEPcmc, symObjAddr: 0x13E8, symBinAddr: 0x1000029BC, symSize: 0x58 }
  - { offsetInCU: 0x94EF, offset: 0x94EF, size: 0x8, addend: 0x0, symName: __ZNSt3__111char_traitsIcE4copyEPcPKcm, symObjAddr: 0x1440, symBinAddr: 0x100002A14, symSize: 0x80 }
  - { offsetInCU: 0x952E, offset: 0x952E, size: 0x8, addend: 0x0, symName: __ZNKSt3__112basic_stringIcNS_11char_traitsIcEENS_9allocatorIcEEE7__allocB7v160006Ev, symObjAddr: 0x14C0, symBinAddr: 0x100002A94, symSize: 0x24 }
  - { offsetInCU: 0x9554, offset: 0x9554, size: 0x8, addend: 0x0, symName: __ZNKSt3__117__compressed_pairINS_12basic_stringIcNS_11char_traitsIcEENS_9allocatorIcEEE5__repES5_E6secondB7v160006Ev, symObjAddr: 0x14E4, symBinAddr: 0x100002AB8, symSize: 0x24 }
  - { offsetInCU: 0x957A, offset: 0x957A, size: 0x8, addend: 0x0, symName: __ZNKSt3__122__compressed_pair_elemINS_9allocatorIcEELi1ELb1EE5__getB7v160006Ev, symObjAddr: 0x1508, symBinAddr: 0x100002ADC, symSize: 0x14 }
  - { offsetInCU: 0x95A0, offset: 0x95A0, size: 0x8, addend: 0x0, symName: __ZNSt3__112basic_stringIcNS_11char_traitsIcEENS_9allocatorIcEEEC2B7v160006ENS_24__uninitialized_size_tagEmRKS4_, symObjAddr: 0x151C, symBinAddr: 0x100002AF0, symSize: 0x118 }
  - { offsetInCU: 0x9621, offset: 0x9621, size: 0x8, addend: 0x0, symName: __ZNSt3__117__compressed_pairINS_12basic_stringIcNS_11char_traitsIcEENS_9allocatorIcEEE5__repES5_EC1B7v160006INS_18__default_init_tagERKS5_EEOT_OT0_, symObjAddr: 0x1634, symBinAddr: 0x100002C08, symSize: 0x3C }
  - { offsetInCU: 0x9679, offset: 0x9679, size: 0x8, addend: 0x0, symName: __ZNKSt3__112basic_stringIcNS_11char_traitsIcEENS_9allocatorIcEEE8max_sizeB7v160006Ev, symObjAddr: 0x1670, symBinAddr: 0x100002C44, symSize: 0xAC }
  - { offsetInCU: 0x96CC, offset: 0x96CC, size: 0x8, addend: 0x0, symName: __ZNKSt3__112basic_stringIcNS_11char_traitsIcEENS_9allocatorIcEEE20__throw_length_errorB7v160006Ev, symObjAddr: 0x171C, symBinAddr: 0x100002CF0, symSize: 0x1C }
  - { offsetInCU: 0x96F2, offset: 0x96F2, size: 0x8, addend: 0x0, symName: __ZNSt3__112basic_stringIcNS_11char_traitsIcEENS_9allocatorIcEEE13__fits_in_ssoB7v160006Em, symObjAddr: 0x1738, symBinAddr: 0x100002D0C, symSize: 0x4C }
  - { offsetInCU: 0x9716, offset: 0x9716, size: 0x8, addend: 0x0, symName: __ZNSt3__117__compressed_pairINS_12basic_stringIcNS_11char_traitsIcEENS_9allocatorIcEEE5__repES5_E5firstB7v160006Ev, symObjAddr: 0x1784, symBinAddr: 0x100002D58, symSize: 0x24 }
  - { offsetInCU: 0x973C, offset: 0x973C, size: 0x8, addend: 0x0, symName: __ZNSt3__112basic_stringIcNS_11char_traitsIcEENS_9allocatorIcEEE16__set_short_sizeB7v160006Em, symObjAddr: 0x17A8, symBinAddr: 0x100002D7C, symSize: 0x78 }
  - { offsetInCU: 0x9771, offset: 0x9771, size: 0x8, addend: 0x0, symName: __ZNSt3__112basic_stringIcNS_11char_traitsIcEENS_9allocatorIcEEE11__recommendB7v160006Em, symObjAddr: 0x1820, symBinAddr: 0x100002DF4, symSize: 0x9C }
  - { offsetInCU: 0x97A4, offset: 0x97A4, size: 0x8, addend: 0x0, symName: __ZNSt3__116allocator_traitsINS_9allocatorIcEEE8allocateB7v160006ERS2_m, symObjAddr: 0x18BC, symBinAddr: 0x100002E90, symSize: 0x2C }
  - { offsetInCU: 0x97D7, offset: 0x97D7, size: 0x8, addend: 0x0, symName: __ZNSt3__112basic_stringIcNS_11char_traitsIcEENS_9allocatorIcEEE7__allocB7v160006Ev, symObjAddr: 0x18E8, symBinAddr: 0x100002EBC, symSize: 0x24 }
  - { offsetInCU: 0x97FD, offset: 0x97FD, size: 0x8, addend: 0x0, symName: __ZNSt3__112basic_stringIcNS_11char_traitsIcEENS_9allocatorIcEEE16__begin_lifetimeB7v160006EPcm, symObjAddr: 0x190C, symBinAddr: 0x100002EE0, symSize: 0x14 }
  - { offsetInCU: 0x9830, offset: 0x9830, size: 0x8, addend: 0x0, symName: __ZNSt3__112basic_stringIcNS_11char_traitsIcEENS_9allocatorIcEEE14__set_long_capB7v160006Em, symObjAddr: 0x1920, symBinAddr: 0x100002EF4, symSize: 0x70 }
  - { offsetInCU: 0x9865, offset: 0x9865, size: 0x8, addend: 0x0, symName: __ZNSt3__112basic_stringIcNS_11char_traitsIcEENS_9allocatorIcEEE18__set_long_pointerB7v160006EPc, symObjAddr: 0x1990, symBinAddr: 0x100002F64, symSize: 0x38 }
  - { offsetInCU: 0x989A, offset: 0x989A, size: 0x8, addend: 0x0, symName: __ZNSt3__112basic_stringIcNS_11char_traitsIcEENS_9allocatorIcEEE15__set_long_sizeB7v160006Em, symObjAddr: 0x19C8, symBinAddr: 0x100002F9C, symSize: 0x38 }
  - { offsetInCU: 0x98CF, offset: 0x98CF, size: 0x8, addend: 0x0, symName: __ZNSt3__117__compressed_pairINS_12basic_stringIcNS_11char_traitsIcEENS_9allocatorIcEEE5__repES5_EC2B7v160006INS_18__default_init_tagERKS5_EEOT_OT0_, symObjAddr: 0x1A00, symBinAddr: 0x100002FD4, symSize: 0x40 }
  - { offsetInCU: 0x9927, offset: 0x9927, size: 0x8, addend: 0x0, symName: __ZNSt3__122__compressed_pair_elemINS_9allocatorIcEELi1ELb1EEC2B7v160006IRKS2_vEEOT_, symObjAddr: 0x1A40, symBinAddr: 0x100003014, symSize: 0x18 }
  - { offsetInCU: 0x9969, offset: 0x9969, size: 0x8, addend: 0x0, symName: __ZNSt3__116allocator_traitsINS_9allocatorIcEEE8max_sizeB7v160006IS2_vEEmRKS2_, symObjAddr: 0x1A58, symBinAddr: 0x10000302C, symSize: 0x24 }
  - { offsetInCU: 0x9997, offset: 0x9997, size: 0x8, addend: 0x0, symName: __ZNSt3__114numeric_limitsImE3maxB7v160006Ev, symObjAddr: 0x1A7C, symBinAddr: 0x100003050, symSize: 0x14 }
  - { offsetInCU: 0x99AB, offset: 0x99AB, size: 0x8, addend: 0x0, symName: __ZNKSt3__19allocatorIcE8max_sizeB7v160006Ev, symObjAddr: 0x1A90, symBinAddr: 0x100003064, symSize: 0x14 }
  - { offsetInCU: 0x99D1, offset: 0x99D1, size: 0x8, addend: 0x0, symName: __ZNSt3__123__libcpp_numeric_limitsImLb1EE3maxB7v160006Ev, symObjAddr: 0x1AA4, symBinAddr: 0x100003078, symSize: 0x8 }
  - { offsetInCU: 0x99E5, offset: 0x99E5, size: 0x8, addend: 0x0, symName: __ZNSt12length_errorC1B7v160006EPKc, symObjAddr: 0x1B10, symBinAddr: 0x1000030E4, symSize: 0x34 }
  - { offsetInCU: 0x9A1D, offset: 0x9A1D, size: 0x8, addend: 0x0, symName: __ZNSt12length_errorC2B7v160006EPKc, symObjAddr: 0x1B44, symBinAddr: 0x100003118, symSize: 0x4C }
  - { offsetInCU: 0x9A55, offset: 0x9A55, size: 0x8, addend: 0x0, symName: __ZNSt3__122__compressed_pair_elemINS_12basic_stringIcNS_11char_traitsIcEENS_9allocatorIcEEE5__repELi0ELb0EE5__getB7v160006Ev, symObjAddr: 0x1B90, symBinAddr: 0x100003164, symSize: 0x14 }
  - { offsetInCU: 0x9A7B, offset: 0x9A7B, size: 0x8, addend: 0x0, symName: __ZNSt3__112basic_stringIcNS_11char_traitsIcEENS_9allocatorIcEEE10__align_itB7v160006ILm16EEEmm, symObjAddr: 0x1BA4, symBinAddr: 0x100003178, symSize: 0x1C }
  - { offsetInCU: 0x9AA9, offset: 0x9AA9, size: 0x8, addend: 0x0, symName: __ZNSt3__19allocatorIcE8allocateB7v160006Em, symObjAddr: 0x1BC0, symBinAddr: 0x100003194, symSize: 0x84 }
  - { offsetInCU: 0x9ADD, offset: 0x9ADD, size: 0x8, addend: 0x0, symName: __ZNSt3__117__compressed_pairINS_12basic_stringIcNS_11char_traitsIcEENS_9allocatorIcEEE5__repES5_E6secondB7v160006Ev, symObjAddr: 0x1CC4, symBinAddr: 0x100003298, symSize: 0x24 }
  - { offsetInCU: 0x9B03, offset: 0x9B03, size: 0x8, addend: 0x0, symName: __ZNSt3__122__compressed_pair_elemINS_9allocatorIcEELi1ELb1EE5__getB7v160006Ev, symObjAddr: 0x1CE8, symBinAddr: 0x1000032BC, symSize: 0x14 }
  - { offsetInCU: 0x9B29, offset: 0x9B29, size: 0x8, addend: 0x0, symName: __ZNSt3__112basic_stringIcNS_11char_traitsIcEENS_9allocatorIcEEE18__get_long_pointerB7v160006Ev, symObjAddr: 0x1CFC, symBinAddr: 0x1000032D0, symSize: 0x28 }
  - { offsetInCU: 0x9B4F, offset: 0x9B4F, size: 0x8, addend: 0x0, symName: __ZNSt3__112basic_stringIcNS_11char_traitsIcEENS_9allocatorIcEEE19__get_short_pointerB7v160006Ev, symObjAddr: 0x1D24, symBinAddr: 0x1000032F8, symSize: 0x28 }
  - { offsetInCU: 0x9B75, offset: 0x9B75, size: 0x8, addend: 0x0, symName: __ZNSt3__114pointer_traitsIPcE10pointer_toB7v160006ERc, symObjAddr: 0x1D4C, symBinAddr: 0x100003320, symSize: 0x14 }
  - { offsetInCU: 0x9BCF, offset: 0x9BCF, size: 0x8, addend: 0x0, symName: __ZNKSt3__114__copy_trivialclB7v160006IKccLi0EEENS_4pairIPT_PT0_EES5_S5_S7_, symObjAddr: 0x204C, symBinAddr: 0x100003620, symSize: 0x48 }
  - { offsetInCU: 0x9C50, offset: 0x9C50, size: 0x8, addend: 0x0, symName: __ZNSt3__14pairIPKcS2_EC1B7v160006ERKS2_S5_, symObjAddr: 0x21C8, symBinAddr: 0x10000379C, symSize: 0x3C }
  - { offsetInCU: 0x9C96, offset: 0x9C96, size: 0x8, addend: 0x0, symName: __ZNSt3__14pairIPKcS2_EC2B7v160006ERKS2_S5_, symObjAddr: 0x2204, symBinAddr: 0x1000037D8, symSize: 0x34 }
  - { offsetInCU: 0x9CDC, offset: 0x9CDC, size: 0x8, addend: 0x0, symName: __ZNSt3__118__unwrap_iter_implIPKcLb1EE8__unwrapB7v160006ES2_, symObjAddr: 0x2238, symBinAddr: 0x10000380C, symSize: 0x24 }
  - { offsetInCU: 0x9CFF, offset: 0x9CFF, size: 0x8, addend: 0x0, symName: __ZNSt3__14pairIPKcPcEC1B7v160006ERKS2_RKS3_, symObjAddr: 0x2310, symBinAddr: 0x1000038E4, symSize: 0x3C }
  - { offsetInCU: 0x9D45, offset: 0x9D45, size: 0x8, addend: 0x0, symName: __ZNSt3__14pairIPKcPcEC2B7v160006ERKS2_RKS3_, symObjAddr: 0x234C, symBinAddr: 0x100003920, symSize: 0x34 }
  - { offsetInCU: 0x9D8B, offset: 0x9D8B, size: 0x8, addend: 0x0, symName: __ZNSt3__118__unwrap_iter_implIPcLb1EE8__unwrapB7v160006ES1_, symObjAddr: 0x2380, symBinAddr: 0x100003954, symSize: 0x24 }
  - { offsetInCU: 0x9DAE, offset: 0x9DAE, size: 0x8, addend: 0x0, symName: __ZNSt3__118__unwrap_iter_implIPKcLb1EE8__rewrapB7v160006ES2_S2_, symObjAddr: 0x23F4, symBinAddr: 0x1000039C8, symSize: 0x48 }
  - { offsetInCU: 0x9DDF, offset: 0x9DDF, size: 0x8, addend: 0x0, symName: __ZNSt3__118__unwrap_iter_implIPcLb1EE8__rewrapB7v160006ES1_S1_, symObjAddr: 0x243C, symBinAddr: 0x100003A10, symSize: 0x48 }
...
