---
triple:          'arm64-apple-darwin'
binary-path:     '/Users/spoofch/Documents/Lab_C++/Lab8/1'
relocations:
  - { offsetInCU: 0x2DC1, offset: 0x2DC1, size: 0x8, addend: 0x0, symName: __ZNSt3__124__put_character_sequenceB7v160006IcNS_11char_traitsIcEEEERNS_13basic_ostreamIT_T0_EES7_PKS4_m, symObjAddr: 0x54C, symBinAddr: 0x100002A4C, symSize: 0x1F4 }
  - { offsetInCU: 0x49F3, offset: 0x49F3, size: 0x8, addend: 0x0, symName: __ZNSt3__1lsB7v160006INS_11char_traitsIcEEEERNS_13basic_ostreamIcT_EES6_PKc, symObjAddr: 0x214, symBinAddr: 0x100002714, symSize: 0x48 }
  - { offsetInCU: 0x4A39, offset: 0x4A39, size: 0x8, addend: 0x0, symName: __ZNSt3__1rsB7v160006IcNS_11char_traitsIcEEEERNS_13basic_istreamIT_T0_EES7_PS4_, symObjAddr: 0x25C, symBinAddr: 0x10000275C, symSize: 0x74 }
  - { offsetInCU: 0x4A97, offset: 0x4A97, size: 0x8, addend: 0x0, symName: __ZNSt3__14endlB7v160006IcNS_11char_traitsIcEEEERNS_13basic_ostreamIT_T0_EES7_, symObjAddr: 0x3E8, symBinAddr: 0x1000028E8, symSize: 0x58 }
  - { offsetInCU: 0x4AD7, offset: 0x4AD7, size: 0x8, addend: 0x0, symName: __ZNSt3__116__pad_and_outputB7v160006IcNS_11char_traitsIcEEEENS_19ostreambuf_iteratorIT_T0_EES6_PKS4_S8_S8_RNS_8ios_baseES4_, symObjAddr: 0x7A4, symBinAddr: 0x100002CA4, symSize: 0x248 }
  - { offsetInCU: 0x4BA6, offset: 0x4BA6, size: 0x8, addend: 0x0, symName: __ZNSt3__119__debug_db_insert_cB7v160006INS_12basic_stringIcNS_11char_traitsIcEENS_9allocatorIcEEEEEEvPT_, symObjAddr: 0xC6C, symBinAddr: 0x10000316C, symSize: 0x10 }
  - { offsetInCU: 0x4BD7, offset: 0x4BD7, size: 0x8, addend: 0x0, symName: __ZNSt3__112__to_addressB7v160006IKcEEPT_S3_, symObjAddr: 0xD38, symBinAddr: 0x100003238, symSize: 0x14 }
  - { offsetInCU: 0x4C0C, offset: 0x4C0C, size: 0x8, addend: 0x0, symName: __ZNSt3__130__libcpp_is_constant_evaluatedB7v160006Ev, symObjAddr: 0xE64, symBinAddr: 0x100003364, symSize: 0xC }
  - { offsetInCU: 0x4C5C, offset: 0x4C5C, size: 0x8, addend: 0x0, symName: __ZNSt3__19use_facetB7v160006INS_5ctypeIcEEEERKT_RKNS_6localeE, symObjAddr: 0x101C, symBinAddr: 0x10000351C, symSize: 0x2C }
  - { offsetInCU: 0x503C, offset: 0x503C, size: 0x8, addend: 0x0, symName: __ZNSt3__118__constexpr_strlenB7v160006EPKc, symObjAddr: 0x10B4, symBinAddr: 0x1000035B4, symSize: 0x24 }
  - { offsetInCU: 0x5269, offset: 0x5269, size: 0x8, addend: 0x0, symName: __ZNSt3__116__input_c_stringB7v160006IcNS_11char_traitsIcEEEERNS_13basic_istreamIT_T0_EES7_PS4_m, symObjAddr: 0x10EC, symBinAddr: 0x1000035EC, symSize: 0x2C8 }
  - { offsetInCU: 0x7D2D, offset: 0x7D2D, size: 0x8, addend: 0x0, symName: _main, symObjAddr: 0x0, symBinAddr: 0x100002500, symSize: 0x214 }
  - { offsetInCU: 0x7D65, offset: 0x7D65, size: 0x8, addend: 0x0, symName: __Z8mystery1PcPKc, symObjAddr: 0x2D0, symBinAddr: 0x1000027D0, symSize: 0xEC }
  - { offsetInCU: 0x7DB7, offset: 0x7DB7, size: 0x8, addend: 0x0, symName: __ZNSt3__113basic_ostreamIcNS_11char_traitsIcEEElsB7v160006EPFRS3_S4_E, symObjAddr: 0x3BC, symBinAddr: 0x1000028BC, symSize: 0x2C }
  - { offsetInCU: 0x7DE9, offset: 0x7DE9, size: 0x8, addend: 0x0, symName: __Z8mystery2PcPKc, symObjAddr: 0x440, symBinAddr: 0x100002940, symSize: 0x10C }
  - { offsetInCU: 0x7E3F, offset: 0x7E3F, size: 0x8, addend: 0x0, symName: __ZNSt3__111char_traitsIcE6lengthEPKc, symObjAddr: 0x740, symBinAddr: 0x100002C40, symSize: 0x48 }
  - { offsetInCU: 0x7E7F, offset: 0x7E7F, size: 0x8, addend: 0x0, symName: __ZNKSt3__113basic_ostreamIcNS_11char_traitsIcEEE6sentrycvbB7v160006Ev, symObjAddr: 0x788, symBinAddr: 0x100002C88, symSize: 0x1C }
  - { offsetInCU: 0x7EA3, offset: 0x7EA3, size: 0x8, addend: 0x0, symName: __ZNSt3__119ostreambuf_iteratorIcNS_11char_traitsIcEEEC1B7v160006ERNS_13basic_ostreamIcS2_EE, symObjAddr: 0x9EC, symBinAddr: 0x100002EEC, symSize: 0x34 }
  - { offsetInCU: 0x7ED9, offset: 0x7ED9, size: 0x8, addend: 0x0, symName: __ZNKSt3__18ios_base5flagsB7v160006Ev, symObjAddr: 0xA20, symBinAddr: 0x100002F20, symSize: 0x18 }
  - { offsetInCU: 0x7F00, offset: 0x7F00, size: 0x8, addend: 0x0, symName: __ZNKSt3__19basic_iosIcNS_11char_traitsIcEEE4fillB7v160006Ev, symObjAddr: 0xA38, symBinAddr: 0x100002F38, symSize: 0x64 }
  - { offsetInCU: 0x7F25, offset: 0x7F25, size: 0x8, addend: 0x0, symName: __ZNKSt3__119ostreambuf_iteratorIcNS_11char_traitsIcEEE6failedB7v160006Ev, symObjAddr: 0xA9C, symBinAddr: 0x100002F9C, symSize: 0x24 }
  - { offsetInCU: 0x7F49, offset: 0x7F49, size: 0x8, addend: 0x0, symName: __ZNSt3__19basic_iosIcNS_11char_traitsIcEEE8setstateB7v160006Ej, symObjAddr: 0xAC0, symBinAddr: 0x100002FC0, symSize: 0x2C }
  - { offsetInCU: 0x7F7C, offset: 0x7F7C, size: 0x8, addend: 0x0, symName: __ZNKSt3__18ios_base5widthB7v160006Ev, symObjAddr: 0xAF8, symBinAddr: 0x100002FF8, symSize: 0x18 }
  - { offsetInCU: 0x7FA2, offset: 0x7FA2, size: 0x8, addend: 0x0, symName: __ZNSt3__115basic_streambufIcNS_11char_traitsIcEEE5sputnB7v160006EPKcl, symObjAddr: 0xB10, symBinAddr: 0x100003010, symSize: 0x3C }
  - { offsetInCU: 0x7FE2, offset: 0x7FE2, size: 0x8, addend: 0x0, symName: __ZNSt3__112basic_stringIcNS_11char_traitsIcEENS_9allocatorIcEEEC1B7v160006Emc, symObjAddr: 0xB4C, symBinAddr: 0x10000304C, symSize: 0x3C }
  - { offsetInCU: 0x8028, offset: 0x8028, size: 0x8, addend: 0x0, symName: __ZNKSt3__112basic_stringIcNS_11char_traitsIcEENS_9allocatorIcEEE4dataB7v160006Ev, symObjAddr: 0xB88, symBinAddr: 0x100003088, symSize: 0x28 }
  - { offsetInCU: 0x804C, offset: 0x804C, size: 0x8, addend: 0x0, symName: __ZNSt3__18ios_base5widthB7v160006El, symObjAddr: 0xBB0, symBinAddr: 0x1000030B0, symSize: 0x2C }
  - { offsetInCU: 0x8090, offset: 0x8090, size: 0x8, addend: 0x0, symName: __ZNSt3__112basic_stringIcNS_11char_traitsIcEENS_9allocatorIcEEEC2B7v160006Emc, symObjAddr: 0xBDC, symBinAddr: 0x1000030DC, symSize: 0x54 }
  - { offsetInCU: 0x80DB, offset: 0x80DB, size: 0x8, addend: 0x0, symName: __ZNSt3__117__compressed_pairINS_12basic_stringIcNS_11char_traitsIcEENS_9allocatorIcEEE5__repES5_EC1B7v160006INS_18__default_init_tagESA_EEOT_OT0_, symObjAddr: 0xC30, symBinAddr: 0x100003130, symSize: 0x3C }
  - { offsetInCU: 0x8131, offset: 0x8131, size: 0x8, addend: 0x0, symName: __ZNSt3__117__compressed_pairINS_12basic_stringIcNS_11char_traitsIcEENS_9allocatorIcEEE5__repES5_EC2B7v160006INS_18__default_init_tagESA_EEOT_OT0_, symObjAddr: 0xC7C, symBinAddr: 0x10000317C, symSize: 0x3C }
  - { offsetInCU: 0x8188, offset: 0x8188, size: 0x8, addend: 0x0, symName: __ZNSt3__122__compressed_pair_elemINS_12basic_stringIcNS_11char_traitsIcEENS_9allocatorIcEEE5__repELi0ELb0EEC2B7v160006ENS_18__default_init_tagE, symObjAddr: 0xCB8, symBinAddr: 0x1000031B8, symSize: 0x14 }
  - { offsetInCU: 0x81BB, offset: 0x81BB, size: 0x8, addend: 0x0, symName: __ZNSt3__122__compressed_pair_elemINS_9allocatorIcEELi1ELb1EEC2B7v160006ENS_18__default_init_tagE, symObjAddr: 0xCCC, symBinAddr: 0x1000031CC, symSize: 0x2C }
  - { offsetInCU: 0x81EE, offset: 0x81EE, size: 0x8, addend: 0x0, symName: __ZNSt3__19allocatorIcEC2B7v160006Ev, symObjAddr: 0xCF8, symBinAddr: 0x1000031F8, symSize: 0x2C }
  - { offsetInCU: 0x8217, offset: 0x8217, size: 0x8, addend: 0x0, symName: __ZNSt3__116__non_trivial_ifILb1ENS_9allocatorIcEEEC2B7v160006Ev, symObjAddr: 0xD24, symBinAddr: 0x100003224, symSize: 0x14 }
  - { offsetInCU: 0x823F, offset: 0x823F, size: 0x8, addend: 0x0, symName: __ZNKSt3__112basic_stringIcNS_11char_traitsIcEENS_9allocatorIcEEE13__get_pointerB7v160006Ev, symObjAddr: 0xD4C, symBinAddr: 0x10000324C, symSize: 0x54 }
  - { offsetInCU: 0x8263, offset: 0x8263, size: 0x8, addend: 0x0, symName: __ZNKSt3__112basic_stringIcNS_11char_traitsIcEENS_9allocatorIcEEE9__is_longB7v160006Ev, symObjAddr: 0xDA0, symBinAddr: 0x1000032A0, symSize: 0x74 }
  - { offsetInCU: 0x8287, offset: 0x8287, size: 0x8, addend: 0x0, symName: __ZNKSt3__112basic_stringIcNS_11char_traitsIcEENS_9allocatorIcEEE18__get_long_pointerB7v160006Ev, symObjAddr: 0xE14, symBinAddr: 0x100003314, symSize: 0x28 }
  - { offsetInCU: 0x82AB, offset: 0x82AB, size: 0x8, addend: 0x0, symName: __ZNKSt3__112basic_stringIcNS_11char_traitsIcEENS_9allocatorIcEEE19__get_short_pointerB7v160006Ev, symObjAddr: 0xE3C, symBinAddr: 0x10000333C, symSize: 0x28 }
  - { offsetInCU: 0x82CF, offset: 0x82CF, size: 0x8, addend: 0x0, symName: __ZNKSt3__117__compressed_pairINS_12basic_stringIcNS_11char_traitsIcEENS_9allocatorIcEEE5__repES5_E5firstB7v160006Ev, symObjAddr: 0xE70, symBinAddr: 0x100003370, symSize: 0x24 }
  - { offsetInCU: 0x82F3, offset: 0x82F3, size: 0x8, addend: 0x0, symName: __ZNKSt3__122__compressed_pair_elemINS_12basic_stringIcNS_11char_traitsIcEENS_9allocatorIcEEE5__repELi0ELb0EE5__getB7v160006Ev, symObjAddr: 0xE94, symBinAddr: 0x100003394, symSize: 0x14 }
  - { offsetInCU: 0x8318, offset: 0x8318, size: 0x8, addend: 0x0, symName: __ZNSt3__114pointer_traitsIPKcE10pointer_toB7v160006ERS1_, symObjAddr: 0xEA8, symBinAddr: 0x1000033A8, symSize: 0x14 }
  - { offsetInCU: 0x833A, offset: 0x833A, size: 0x8, addend: 0x0, symName: __ZNSt3__119ostreambuf_iteratorIcNS_11char_traitsIcEEEC2B7v160006ERNS_13basic_ostreamIcS2_EE, symObjAddr: 0xEBC, symBinAddr: 0x1000033BC, symSize: 0x68 }
  - { offsetInCU: 0x8371, offset: 0x8371, size: 0x8, addend: 0x0, symName: __ZNKSt3__19basic_iosIcNS_11char_traitsIcEEE5rdbufB7v160006Ev, symObjAddr: 0xF24, symBinAddr: 0x100003424, symSize: 0x24 }
  - { offsetInCU: 0x8396, offset: 0x8396, size: 0x8, addend: 0x0, symName: __ZNKSt3__18ios_base5rdbufB7v160006Ev, symObjAddr: 0xF48, symBinAddr: 0x100003448, symSize: 0x18 }
  - { offsetInCU: 0x83BB, offset: 0x83BB, size: 0x8, addend: 0x0, symName: __ZNSt3__111char_traitsIcE11eq_int_typeEii, symObjAddr: 0xF60, symBinAddr: 0x100003460, symSize: 0x28 }
  - { offsetInCU: 0x83EC, offset: 0x83EC, size: 0x8, addend: 0x0, symName: __ZNSt3__111char_traitsIcE3eofEv, symObjAddr: 0xF88, symBinAddr: 0x100003488, symSize: 0x8 }
  - { offsetInCU: 0x8400, offset: 0x8400, size: 0x8, addend: 0x0, symName: __ZNKSt3__19basic_iosIcNS_11char_traitsIcEEE5widenB7v160006Ec, symObjAddr: 0xF90, symBinAddr: 0x100003490, symSize: 0x8C }
  - { offsetInCU: 0x8461, offset: 0x8461, size: 0x8, addend: 0x0, symName: __ZNKSt3__15ctypeIcE5widenB7v160006Ec, symObjAddr: 0x1048, symBinAddr: 0x100003548, symSize: 0x38 }
  - { offsetInCU: 0x8495, offset: 0x8495, size: 0x8, addend: 0x0, symName: __ZNSt3__18ios_base8setstateB7v160006Ej, symObjAddr: 0x1080, symBinAddr: 0x100003580, symSize: 0x34 }
  - { offsetInCU: 0x84CA, offset: 0x84CA, size: 0x8, addend: 0x0, symName: __ZNSt3__114numeric_limitsIlE3maxB7v160006Ev, symObjAddr: 0x10D8, symBinAddr: 0x1000035D8, symSize: 0x14 }
  - { offsetInCU: 0x84DE, offset: 0x84DE, size: 0x8, addend: 0x0, symName: __ZNSt3__123__libcpp_numeric_limitsIlLb1EE3maxB7v160006Ev, symObjAddr: 0x13B4, symBinAddr: 0x1000038B4, symSize: 0x8 }
  - { offsetInCU: 0x8583, offset: 0x8583, size: 0x8, addend: 0x0, symName: __ZNKSt3__113basic_istreamIcNS_11char_traitsIcEEE6sentrycvbB7v160006Ev, symObjAddr: 0x13BC, symBinAddr: 0x1000038BC, symSize: 0x1C }
  - { offsetInCU: 0x85A7, offset: 0x85A7, size: 0x8, addend: 0x0, symName: __ZNSt3__115basic_streambufIcNS_11char_traitsIcEEE5sgetcB7v160006Ev, symObjAddr: 0x13D8, symBinAddr: 0x1000038D8, symSize: 0x70 }
  - { offsetInCU: 0x85CC, offset: 0x85CC, size: 0x8, addend: 0x0, symName: __ZNSt3__111char_traitsIcE12to_char_typeEi, symObjAddr: 0x1448, symBinAddr: 0x100003948, symSize: 0x18 }
  - { offsetInCU: 0x85EE, offset: 0x85EE, size: 0x8, addend: 0x0, symName: __ZNKSt3__15ctypeIcE2isB7v160006Ejc, symObjAddr: 0x1460, symBinAddr: 0x100003960, symSize: 0x7C }
  - { offsetInCU: 0x8630, offset: 0x8630, size: 0x8, addend: 0x0, symName: __ZNSt3__115basic_streambufIcNS_11char_traitsIcEEE6sbumpcB7v160006Ev, symObjAddr: 0x14DC, symBinAddr: 0x1000039DC, symSize: 0x78 }
  - { offsetInCU: 0x8654, offset: 0x8654, size: 0x8, addend: 0x0, symName: __ZNSt3__18ios_base18__setstate_nothrowB7v160006Ej, symObjAddr: 0x1554, symBinAddr: 0x100003A54, symSize: 0x64 }
  - { offsetInCU: 0x8687, offset: 0x8687, size: 0x8, addend: 0x0, symName: __ZNKSt3__19basic_iosIcNS_11char_traitsIcEEE10exceptionsB7v160006Ev, symObjAddr: 0x15B8, symBinAddr: 0x100003AB8, symSize: 0x24 }
  - { offsetInCU: 0x86AC, offset: 0x86AC, size: 0x8, addend: 0x0, symName: __ZNSt3__111char_traitsIcE11to_int_typeEc, symObjAddr: 0x15DC, symBinAddr: 0x100003ADC, symSize: 0x14 }
  - { offsetInCU: 0x86CE, offset: 0x86CE, size: 0x8, addend: 0x0, symName: __Z7isasciii, symObjAddr: 0x15F0, symBinAddr: 0x100003AF0, symSize: 0x24 }
  - { offsetInCU: 0x86FA, offset: 0x86FA, size: 0x8, addend: 0x0, symName: __ZNKSt3__18ios_base10exceptionsB7v160006Ev, symObjAddr: 0x1614, symBinAddr: 0x100003B14, symSize: 0x18 }
...
