---
triple:          'arm64-apple-darwin'
binary-path:     '/Users/spoofch/Documents/Lab_C++/Lab2/1_4c'
relocations:
  - { offsetInCU: 0x2E45, offset: 0x2E45, size: 0x8, addend: 0x0, symName: __ZNSt3__124__put_character_sequenceB7v160006IcNS_11char_traitsIcEEEERNS_13basic_ostreamIT_T0_EES7_PKS4_m, symObjAddr: 0xA94, symBinAddr: 0x1000021E8, symSize: 0x1F4 }
  - { offsetInCU: 0x4C7B, offset: 0x4C7B, size: 0x8, addend: 0x0, symName: __ZNSt3__1lsB7v160006INS_11char_traitsIcEEEERNS_13basic_ostreamIcT_EES6_PKc, symObjAddr: 0x558, symBinAddr: 0x100001CAC, symSize: 0x48 }
  - { offsetInCU: 0x4CC1, offset: 0x4CC1, size: 0x8, addend: 0x0, symName: __ZNSt3__17getlineB7v160006IcNS_11char_traitsIcEENS_9allocatorIcEEEERNS_13basic_istreamIT_T0_EES9_RNS_12basic_stringIS6_S7_T1_EE, symObjAddr: 0x5CC, symBinAddr: 0x100001D20, symSize: 0x5C }
  - { offsetInCU: 0x4D19, offset: 0x4D19, size: 0x8, addend: 0x0, symName: __ZNSt3__1rsB7v160006IcNS_11char_traitsIcEENS_9allocatorIcEEEERNS_13basic_istreamIT_T0_EES9_RNS_12basic_stringIS6_S7_T1_EE, symObjAddr: 0x628, symBinAddr: 0x100001D7C, symSize: 0x310 }
  - { offsetInCU: 0x4DE6, offset: 0x4DE6, size: 0x8, addend: 0x0, symName: __ZNSt3__13maxB7v160006ImEERKT_S3_S3_, symObjAddr: 0x938, symBinAddr: 0x10000208C, symSize: 0x2C }
  - { offsetInCU: 0x4E29, offset: 0x4E29, size: 0x8, addend: 0x0, symName: __ZNSt3__14endlB7v160006IcNS_11char_traitsIcEEEERNS_13basic_ostreamIT_T0_EES7_, symObjAddr: 0x9E4, symBinAddr: 0x100002138, symSize: 0x58 }
  - { offsetInCU: 0x4E69, offset: 0x4E69, size: 0x8, addend: 0x0, symName: __ZNSt3__1lsB7v160006IcNS_11char_traitsIcEENS_9allocatorIcEEEERNS_13basic_ostreamIT_T0_EES9_RKNS_12basic_stringIS6_S7_T1_EE, symObjAddr: 0xA3C, symBinAddr: 0x100002190, symSize: 0x4C }
  - { offsetInCU: 0x4EC1, offset: 0x4EC1, size: 0x8, addend: 0x0, symName: __ZNSt3__116__pad_and_outputB7v160006IcNS_11char_traitsIcEEEENS_19ostreambuf_iteratorIT_T0_EES6_PKS4_S8_S8_RNS_8ios_baseES4_, symObjAddr: 0xCEC, symBinAddr: 0x100002440, symSize: 0x248 }
  - { offsetInCU: 0x4F90, offset: 0x4F90, size: 0x8, addend: 0x0, symName: __ZNSt3__119__debug_db_insert_cB7v160006INS_12basic_stringIcNS_11char_traitsIcEENS_9allocatorIcEEEEEEvPT_, symObjAddr: 0x11A8, symBinAddr: 0x1000028FC, symSize: 0x10 }
  - { offsetInCU: 0x4FC1, offset: 0x4FC1, size: 0x8, addend: 0x0, symName: __ZNSt3__112__to_addressB7v160006IKcEEPT_S3_, symObjAddr: 0x1274, symBinAddr: 0x1000029C8, symSize: 0x14 }
  - { offsetInCU: 0x4FF6, offset: 0x4FF6, size: 0x8, addend: 0x0, symName: __ZNSt3__130__libcpp_is_constant_evaluatedB7v160006Ev, symObjAddr: 0x13A0, symBinAddr: 0x100002AF4, symSize: 0xC }
  - { offsetInCU: 0x5046, offset: 0x5046, size: 0x8, addend: 0x0, symName: __ZNSt3__19use_facetB7v160006INS_5ctypeIcEEEERKT_RKNS_6localeE, symObjAddr: 0x1558, symBinAddr: 0x100002CAC, symSize: 0x2C }
  - { offsetInCU: 0x5426, offset: 0x5426, size: 0x8, addend: 0x0, symName: __ZNSt3__118__constexpr_strlenB7v160006EPKc, symObjAddr: 0x15F0, symBinAddr: 0x100002D44, symSize: 0x24 }
  - { offsetInCU: 0x5452, offset: 0x5452, size: 0x8, addend: 0x0, symName: __ZNSt3__117__libcpp_allocateB7v160006Emm, symObjAddr: 0x1A18, symBinAddr: 0x10000316C, symSize: 0x28 }
  - { offsetInCU: 0x548F, offset: 0x548F, size: 0x8, addend: 0x0, symName: __ZNSt3__121__libcpp_operator_newB7v160006IJmEEEPvDpT_, symObjAddr: 0x1A54, symBinAddr: 0x1000031A8, symSize: 0x24 }
  - { offsetInCU: 0x54C8, offset: 0x54C8, size: 0x8, addend: 0x0, symName: __ZNSt3__17getlineB7v160006IcNS_11char_traitsIcEENS_9allocatorIcEEEERNS_13basic_istreamIT_T0_EES9_RNS_12basic_stringIS6_S7_T1_EES6_, symObjAddr: 0x1AB0, symBinAddr: 0x100003204, symSize: 0x238 }
  - { offsetInCU: 0x5B10, offset: 0x5B10, size: 0x8, addend: 0x0, symName: __ZNSt3__125__debug_db_invalidate_allB7v160006INS_12basic_stringIcNS_11char_traitsIcEENS_9allocatorIcEEEEEEvPT_, symObjAddr: 0x1F8C, symBinAddr: 0x1000036E0, symSize: 0x10 }
  - { offsetInCU: 0x5F77, offset: 0x5F77, size: 0x8, addend: 0x0, symName: __ZNSt3__13maxB7v160006ImNS_6__lessImmEEEERKT_S5_S5_T0_, symObjAddr: 0x22C8, symBinAddr: 0x100003A1C, symSize: 0x54 }
  - { offsetInCU: 0x600D, offset: 0x600D, size: 0x8, addend: 0x0, symName: __ZSt28__throw_bad_array_new_lengthB7v160006v, symObjAddr: 0x19E4, symBinAddr: 0x100003138, symSize: 0x34 }
  - { offsetInCU: 0x8494, offset: 0x8494, size: 0x8, addend: 0x0, symName: _main, symObjAddr: 0x0, symBinAddr: 0x100001754, symSize: 0x558 }
  - { offsetInCU: 0x853C, offset: 0x853C, size: 0x8, addend: 0x0, symName: __ZNSt3__112basic_stringIcNS_11char_traitsIcEENS_9allocatorIcEEEC1B7v160006Ev, symObjAddr: 0x5A0, symBinAddr: 0x100001CF4, symSize: 0x2C }
  - { offsetInCU: 0x8565, offset: 0x8565, size: 0x8, addend: 0x0, symName: __ZNKSt3__112basic_stringIcNS_11char_traitsIcEENS_9allocatorIcEEE4sizeB7v160006Ev, symObjAddr: 0x964, symBinAddr: 0x1000020B8, symSize: 0x54 }
  - { offsetInCU: 0x858A, offset: 0x858A, size: 0x8, addend: 0x0, symName: __ZNSt3__113basic_ostreamIcNS_11char_traitsIcEEElsB7v160006EPFRS3_S4_E, symObjAddr: 0x9B8, symBinAddr: 0x10000210C, symSize: 0x2C }
  - { offsetInCU: 0x85BD, offset: 0x85BD, size: 0x8, addend: 0x0, symName: __ZNSt3__111char_traitsIcE6lengthEPKc, symObjAddr: 0xC88, symBinAddr: 0x1000023DC, symSize: 0x48 }
  - { offsetInCU: 0x85FE, offset: 0x85FE, size: 0x8, addend: 0x0, symName: __ZNKSt3__113basic_ostreamIcNS_11char_traitsIcEEE6sentrycvbB7v160006Ev, symObjAddr: 0xCD0, symBinAddr: 0x100002424, symSize: 0x1C }
  - { offsetInCU: 0x8622, offset: 0x8622, size: 0x8, addend: 0x0, symName: __ZNSt3__119ostreambuf_iteratorIcNS_11char_traitsIcEEEC1B7v160006ERNS_13basic_ostreamIcS2_EE, symObjAddr: 0xF34, symBinAddr: 0x100002688, symSize: 0x34 }
  - { offsetInCU: 0x8659, offset: 0x8659, size: 0x8, addend: 0x0, symName: __ZNKSt3__18ios_base5flagsB7v160006Ev, symObjAddr: 0xF68, symBinAddr: 0x1000026BC, symSize: 0x18 }
  - { offsetInCU: 0x8680, offset: 0x8680, size: 0x8, addend: 0x0, symName: __ZNKSt3__19basic_iosIcNS_11char_traitsIcEEE4fillB7v160006Ev, symObjAddr: 0xF80, symBinAddr: 0x1000026D4, symSize: 0x64 }
  - { offsetInCU: 0x86A7, offset: 0x86A7, size: 0x8, addend: 0x0, symName: __ZNKSt3__119ostreambuf_iteratorIcNS_11char_traitsIcEEE6failedB7v160006Ev, symObjAddr: 0xFE4, symBinAddr: 0x100002738, symSize: 0x24 }
  - { offsetInCU: 0x86CC, offset: 0x86CC, size: 0x8, addend: 0x0, symName: __ZNSt3__19basic_iosIcNS_11char_traitsIcEEE8setstateB7v160006Ej, symObjAddr: 0x1008, symBinAddr: 0x10000275C, symSize: 0x2C }
  - { offsetInCU: 0x8700, offset: 0x8700, size: 0x8, addend: 0x0, symName: __ZNKSt3__18ios_base5widthB7v160006Ev, symObjAddr: 0x1034, symBinAddr: 0x100002788, symSize: 0x18 }
  - { offsetInCU: 0x8727, offset: 0x8727, size: 0x8, addend: 0x0, symName: __ZNSt3__115basic_streambufIcNS_11char_traitsIcEEE5sputnB7v160006EPKcl, symObjAddr: 0x104C, symBinAddr: 0x1000027A0, symSize: 0x3C }
  - { offsetInCU: 0x8767, offset: 0x8767, size: 0x8, addend: 0x0, symName: __ZNSt3__112basic_stringIcNS_11char_traitsIcEENS_9allocatorIcEEEC1B7v160006Emc, symObjAddr: 0x1088, symBinAddr: 0x1000027DC, symSize: 0x3C }
  - { offsetInCU: 0x87AE, offset: 0x87AE, size: 0x8, addend: 0x0, symName: __ZNKSt3__112basic_stringIcNS_11char_traitsIcEENS_9allocatorIcEEE4dataB7v160006Ev, symObjAddr: 0x10C4, symBinAddr: 0x100002818, symSize: 0x28 }
  - { offsetInCU: 0x87D3, offset: 0x87D3, size: 0x8, addend: 0x0, symName: __ZNSt3__18ios_base5widthB7v160006El, symObjAddr: 0x10EC, symBinAddr: 0x100002840, symSize: 0x2C }
  - { offsetInCU: 0x8817, offset: 0x8817, size: 0x8, addend: 0x0, symName: __ZNSt3__112basic_stringIcNS_11char_traitsIcEENS_9allocatorIcEEEC2B7v160006Emc, symObjAddr: 0x1118, symBinAddr: 0x10000286C, symSize: 0x54 }
  - { offsetInCU: 0x8862, offset: 0x8862, size: 0x8, addend: 0x0, symName: __ZNSt3__117__compressed_pairINS_12basic_stringIcNS_11char_traitsIcEENS_9allocatorIcEEE5__repES5_EC1B7v160006INS_18__default_init_tagESA_EEOT_OT0_, symObjAddr: 0x116C, symBinAddr: 0x1000028C0, symSize: 0x3C }
  - { offsetInCU: 0x88B8, offset: 0x88B8, size: 0x8, addend: 0x0, symName: __ZNSt3__117__compressed_pairINS_12basic_stringIcNS_11char_traitsIcEENS_9allocatorIcEEE5__repES5_EC2B7v160006INS_18__default_init_tagESA_EEOT_OT0_, symObjAddr: 0x11B8, symBinAddr: 0x10000290C, symSize: 0x3C }
  - { offsetInCU: 0x890F, offset: 0x890F, size: 0x8, addend: 0x0, symName: __ZNSt3__122__compressed_pair_elemINS_12basic_stringIcNS_11char_traitsIcEENS_9allocatorIcEEE5__repELi0ELb0EEC2B7v160006ENS_18__default_init_tagE, symObjAddr: 0x11F4, symBinAddr: 0x100002948, symSize: 0x14 }
  - { offsetInCU: 0x8942, offset: 0x8942, size: 0x8, addend: 0x0, symName: __ZNSt3__122__compressed_pair_elemINS_9allocatorIcEELi1ELb1EEC2B7v160006ENS_18__default_init_tagE, symObjAddr: 0x1208, symBinAddr: 0x10000295C, symSize: 0x2C }
  - { offsetInCU: 0x8975, offset: 0x8975, size: 0x8, addend: 0x0, symName: __ZNSt3__19allocatorIcEC2B7v160006Ev, symObjAddr: 0x1234, symBinAddr: 0x100002988, symSize: 0x2C }
  - { offsetInCU: 0x899E, offset: 0x899E, size: 0x8, addend: 0x0, symName: __ZNSt3__116__non_trivial_ifILb1ENS_9allocatorIcEEEC2B7v160006Ev, symObjAddr: 0x1260, symBinAddr: 0x1000029B4, symSize: 0x14 }
  - { offsetInCU: 0x89C7, offset: 0x89C7, size: 0x8, addend: 0x0, symName: __ZNKSt3__112basic_stringIcNS_11char_traitsIcEENS_9allocatorIcEEE13__get_pointerB7v160006Ev, symObjAddr: 0x1288, symBinAddr: 0x1000029DC, symSize: 0x54 }
  - { offsetInCU: 0x89EC, offset: 0x89EC, size: 0x8, addend: 0x0, symName: __ZNKSt3__112basic_stringIcNS_11char_traitsIcEENS_9allocatorIcEEE9__is_longB7v160006Ev, symObjAddr: 0x12DC, symBinAddr: 0x100002A30, symSize: 0x74 }
  - { offsetInCU: 0x8A11, offset: 0x8A11, size: 0x8, addend: 0x0, symName: __ZNKSt3__112basic_stringIcNS_11char_traitsIcEENS_9allocatorIcEEE18__get_long_pointerB7v160006Ev, symObjAddr: 0x1350, symBinAddr: 0x100002AA4, symSize: 0x28 }
  - { offsetInCU: 0x8A36, offset: 0x8A36, size: 0x8, addend: 0x0, symName: __ZNKSt3__112basic_stringIcNS_11char_traitsIcEENS_9allocatorIcEEE19__get_short_pointerB7v160006Ev, symObjAddr: 0x1378, symBinAddr: 0x100002ACC, symSize: 0x28 }
  - { offsetInCU: 0x8A5B, offset: 0x8A5B, size: 0x8, addend: 0x0, symName: __ZNKSt3__117__compressed_pairINS_12basic_stringIcNS_11char_traitsIcEENS_9allocatorIcEEE5__repES5_E5firstB7v160006Ev, symObjAddr: 0x13AC, symBinAddr: 0x100002B00, symSize: 0x24 }
  - { offsetInCU: 0x8A80, offset: 0x8A80, size: 0x8, addend: 0x0, symName: __ZNKSt3__122__compressed_pair_elemINS_12basic_stringIcNS_11char_traitsIcEENS_9allocatorIcEEE5__repELi0ELb0EE5__getB7v160006Ev, symObjAddr: 0x13D0, symBinAddr: 0x100002B24, symSize: 0x14 }
  - { offsetInCU: 0x8AA5, offset: 0x8AA5, size: 0x8, addend: 0x0, symName: __ZNSt3__114pointer_traitsIPKcE10pointer_toB7v160006ERS1_, symObjAddr: 0x13E4, symBinAddr: 0x100002B38, symSize: 0x14 }
  - { offsetInCU: 0x8AC7, offset: 0x8AC7, size: 0x8, addend: 0x0, symName: __ZNSt3__119ostreambuf_iteratorIcNS_11char_traitsIcEEEC2B7v160006ERNS_13basic_ostreamIcS2_EE, symObjAddr: 0x13F8, symBinAddr: 0x100002B4C, symSize: 0x68 }
  - { offsetInCU: 0x8AFE, offset: 0x8AFE, size: 0x8, addend: 0x0, symName: __ZNKSt3__19basic_iosIcNS_11char_traitsIcEEE5rdbufB7v160006Ev, symObjAddr: 0x1460, symBinAddr: 0x100002BB4, symSize: 0x24 }
  - { offsetInCU: 0x8B25, offset: 0x8B25, size: 0x8, addend: 0x0, symName: __ZNKSt3__18ios_base5rdbufB7v160006Ev, symObjAddr: 0x1484, symBinAddr: 0x100002BD8, symSize: 0x18 }
  - { offsetInCU: 0x8B4A, offset: 0x8B4A, size: 0x8, addend: 0x0, symName: __ZNSt3__111char_traitsIcE11eq_int_typeEii, symObjAddr: 0x149C, symBinAddr: 0x100002BF0, symSize: 0x28 }
  - { offsetInCU: 0x8B7B, offset: 0x8B7B, size: 0x8, addend: 0x0, symName: __ZNSt3__111char_traitsIcE3eofEv, symObjAddr: 0x14C4, symBinAddr: 0x100002C18, symSize: 0x8 }
  - { offsetInCU: 0x8B8F, offset: 0x8B8F, size: 0x8, addend: 0x0, symName: __ZNKSt3__19basic_iosIcNS_11char_traitsIcEEE5widenB7v160006Ec, symObjAddr: 0x14CC, symBinAddr: 0x100002C20, symSize: 0x8C }
  - { offsetInCU: 0x8BF2, offset: 0x8BF2, size: 0x8, addend: 0x0, symName: __ZNKSt3__15ctypeIcE5widenB7v160006Ec, symObjAddr: 0x1584, symBinAddr: 0x100002CD8, symSize: 0x38 }
  - { offsetInCU: 0x8C26, offset: 0x8C26, size: 0x8, addend: 0x0, symName: __ZNSt3__18ios_base8setstateB7v160006Ej, symObjAddr: 0x15BC, symBinAddr: 0x100002D10, symSize: 0x34 }
  - { offsetInCU: 0x8C5B, offset: 0x8C5B, size: 0x8, addend: 0x0, symName: __ZNSt3__112basic_stringIcNS_11char_traitsIcEENS_9allocatorIcEEEC2B7v160006Ev, symObjAddr: 0x1614, symBinAddr: 0x100002D68, symSize: 0x44 }
  - { offsetInCU: 0x8C84, offset: 0x8C84, size: 0x8, addend: 0x0, symName: __ZNSt3__112basic_stringIcNS_11char_traitsIcEENS_9allocatorIcEEE14__default_initB7v160006Ev, symObjAddr: 0x1658, symBinAddr: 0x100002DAC, symSize: 0xB0 }
  - { offsetInCU: 0x8CD5, offset: 0x8CD5, size: 0x8, addend: 0x0, symName: __ZNSt3__117__compressed_pairINS_12basic_stringIcNS_11char_traitsIcEENS_9allocatorIcEEE5__repES5_E5firstB7v160006Ev, symObjAddr: 0x1708, symBinAddr: 0x100002E5C, symSize: 0x24 }
  - { offsetInCU: 0x8CFA, offset: 0x8CFA, size: 0x8, addend: 0x0, symName: __ZNSt3__112basic_stringIcNS_11char_traitsIcEENS_9allocatorIcEEE11__recommendB7v160006Em, symObjAddr: 0x172C, symBinAddr: 0x100002E80, symSize: 0x9C }
  - { offsetInCU: 0x8D2D, offset: 0x8D2D, size: 0x8, addend: 0x0, symName: __ZNSt3__116allocator_traitsINS_9allocatorIcEEE8allocateB7v160006ERS2_m, symObjAddr: 0x17C8, symBinAddr: 0x100002F1C, symSize: 0x2C }
  - { offsetInCU: 0x8D60, offset: 0x8D60, size: 0x8, addend: 0x0, symName: __ZNSt3__112basic_stringIcNS_11char_traitsIcEENS_9allocatorIcEEE7__allocB7v160006Ev, symObjAddr: 0x17F4, symBinAddr: 0x100002F48, symSize: 0x24 }
  - { offsetInCU: 0x8D85, offset: 0x8D85, size: 0x8, addend: 0x0, symName: __ZNSt3__112basic_stringIcNS_11char_traitsIcEENS_9allocatorIcEEE16__begin_lifetimeB7v160006EPcm, symObjAddr: 0x1818, symBinAddr: 0x100002F6C, symSize: 0x14 }
  - { offsetInCU: 0x8DB8, offset: 0x8DB8, size: 0x8, addend: 0x0, symName: __ZNSt3__112basic_stringIcNS_11char_traitsIcEENS_9allocatorIcEEE18__set_long_pointerB7v160006EPc, symObjAddr: 0x182C, symBinAddr: 0x100002F80, symSize: 0x38 }
  - { offsetInCU: 0x8DEC, offset: 0x8DEC, size: 0x8, addend: 0x0, symName: __ZNSt3__112basic_stringIcNS_11char_traitsIcEENS_9allocatorIcEEE14__set_long_capB7v160006Em, symObjAddr: 0x1864, symBinAddr: 0x100002FB8, symSize: 0x70 }
  - { offsetInCU: 0x8E20, offset: 0x8E20, size: 0x8, addend: 0x0, symName: __ZNSt3__112basic_stringIcNS_11char_traitsIcEENS_9allocatorIcEEE15__set_long_sizeB7v160006Em, symObjAddr: 0x18D4, symBinAddr: 0x100003028, symSize: 0x38 }
  - { offsetInCU: 0x8E54, offset: 0x8E54, size: 0x8, addend: 0x0, symName: __ZNSt3__122__compressed_pair_elemINS_12basic_stringIcNS_11char_traitsIcEENS_9allocatorIcEEE5__repELi0ELb0EE5__getB7v160006Ev, symObjAddr: 0x190C, symBinAddr: 0x100003060, symSize: 0x14 }
  - { offsetInCU: 0x8E79, offset: 0x8E79, size: 0x8, addend: 0x0, symName: __ZNSt3__112basic_stringIcNS_11char_traitsIcEENS_9allocatorIcEEE10__align_itB7v160006ILm16EEEmm, symObjAddr: 0x1920, symBinAddr: 0x100003074, symSize: 0x1C }
  - { offsetInCU: 0x8EA7, offset: 0x8EA7, size: 0x8, addend: 0x0, symName: __ZNSt3__19allocatorIcE8allocateB7v160006Em, symObjAddr: 0x193C, symBinAddr: 0x100003090, symSize: 0x84 }
  - { offsetInCU: 0x8EE4, offset: 0x8EE4, size: 0x8, addend: 0x0, symName: __ZNSt3__116allocator_traitsINS_9allocatorIcEEE8max_sizeB7v160006IS2_vEEmRKS2_, symObjAddr: 0x19C0, symBinAddr: 0x100003114, symSize: 0x24 }
  - { offsetInCU: 0x8F12, offset: 0x8F12, size: 0x8, addend: 0x0, symName: __ZNKSt3__19allocatorIcE8max_sizeB7v160006Ev, symObjAddr: 0x1A40, symBinAddr: 0x100003194, symSize: 0x14 }
  - { offsetInCU: 0x8F37, offset: 0x8F37, size: 0x8, addend: 0x0, symName: __ZNSt3__117__compressed_pairINS_12basic_stringIcNS_11char_traitsIcEENS_9allocatorIcEEE5__repES5_E6secondB7v160006Ev, symObjAddr: 0x1A78, symBinAddr: 0x1000031CC, symSize: 0x24 }
  - { offsetInCU: 0x8F5C, offset: 0x8F5C, size: 0x8, addend: 0x0, symName: __ZNSt3__122__compressed_pair_elemINS_9allocatorIcEELi1ELb1EE5__getB7v160006Ev, symObjAddr: 0x1A9C, symBinAddr: 0x1000031F0, symSize: 0x14 }
  - { offsetInCU: 0x9013, offset: 0x9013, size: 0x8, addend: 0x0, symName: __ZNKSt3__113basic_istreamIcNS_11char_traitsIcEEE6sentrycvbB7v160006Ev, symObjAddr: 0x1CE8, symBinAddr: 0x10000343C, symSize: 0x1C }
  - { offsetInCU: 0x9038, offset: 0x9038, size: 0x8, addend: 0x0, symName: __ZNSt3__112basic_stringIcNS_11char_traitsIcEENS_9allocatorIcEEE5clearB7v160006Ev, symObjAddr: 0x1D04, symBinAddr: 0x100003458, symSize: 0x9C }
  - { offsetInCU: 0x905F, offset: 0x905F, size: 0x8, addend: 0x0, symName: __ZNSt3__115basic_streambufIcNS_11char_traitsIcEEE6sbumpcB7v160006Ev, symObjAddr: 0x1DA0, symBinAddr: 0x1000034F4, symSize: 0x78 }
  - { offsetInCU: 0x9084, offset: 0x9084, size: 0x8, addend: 0x0, symName: __ZNSt3__111char_traitsIcE12to_char_typeEi, symObjAddr: 0x1E18, symBinAddr: 0x10000356C, symSize: 0x18 }
  - { offsetInCU: 0x90A7, offset: 0x90A7, size: 0x8, addend: 0x0, symName: __ZNSt3__111char_traitsIcE2eqEcc, symObjAddr: 0x1E30, symBinAddr: 0x100003584, symSize: 0x28 }
  - { offsetInCU: 0x90D8, offset: 0x90D8, size: 0x8, addend: 0x0, symName: __ZNKSt3__112basic_stringIcNS_11char_traitsIcEENS_9allocatorIcEEE8max_sizeB7v160006Ev, symObjAddr: 0x1E58, symBinAddr: 0x1000035AC, symSize: 0xAC }
  - { offsetInCU: 0x9129, offset: 0x9129, size: 0x8, addend: 0x0, symName: __ZNSt3__18ios_base18__setstate_nothrowB7v160006Ej, symObjAddr: 0x1F04, symBinAddr: 0x100003658, symSize: 0x64 }
  - { offsetInCU: 0x915D, offset: 0x915D, size: 0x8, addend: 0x0, symName: __ZNKSt3__19basic_iosIcNS_11char_traitsIcEEE10exceptionsB7v160006Ev, symObjAddr: 0x1F68, symBinAddr: 0x1000036BC, symSize: 0x24 }
  - { offsetInCU: 0x9182, offset: 0x9182, size: 0x8, addend: 0x0, symName: __ZNSt3__111char_traitsIcE6assignERcRKc, symObjAddr: 0x1F9C, symBinAddr: 0x1000036F0, symSize: 0x24 }
  - { offsetInCU: 0x91B3, offset: 0x91B3, size: 0x8, addend: 0x0, symName: __ZNSt3__112basic_stringIcNS_11char_traitsIcEENS_9allocatorIcEEE18__get_long_pointerB7v160006Ev, symObjAddr: 0x1FC0, symBinAddr: 0x100003714, symSize: 0x28 }
  - { offsetInCU: 0x91D8, offset: 0x91D8, size: 0x8, addend: 0x0, symName: __ZNSt3__112basic_stringIcNS_11char_traitsIcEENS_9allocatorIcEEE19__get_short_pointerB7v160006Ev, symObjAddr: 0x1FE8, symBinAddr: 0x10000373C, symSize: 0x28 }
  - { offsetInCU: 0x91FD, offset: 0x91FD, size: 0x8, addend: 0x0, symName: __ZNSt3__112basic_stringIcNS_11char_traitsIcEENS_9allocatorIcEEE16__set_short_sizeB7v160006Em, symObjAddr: 0x2010, symBinAddr: 0x100003764, symSize: 0x78 }
  - { offsetInCU: 0x9231, offset: 0x9231, size: 0x8, addend: 0x0, symName: __ZNSt3__114pointer_traitsIPcE10pointer_toB7v160006ERc, symObjAddr: 0x2088, symBinAddr: 0x1000037DC, symSize: 0x14 }
  - { offsetInCU: 0x9254, offset: 0x9254, size: 0x8, addend: 0x0, symName: __ZNSt3__111char_traitsIcE11to_int_typeEc, symObjAddr: 0x209C, symBinAddr: 0x1000037F0, symSize: 0x14 }
  - { offsetInCU: 0x9277, offset: 0x9277, size: 0x8, addend: 0x0, symName: __ZNKSt3__112basic_stringIcNS_11char_traitsIcEENS_9allocatorIcEEE7__allocB7v160006Ev, symObjAddr: 0x20B0, symBinAddr: 0x100003804, symSize: 0x24 }
  - { offsetInCU: 0x929C, offset: 0x929C, size: 0x8, addend: 0x0, symName: __ZNSt3__114numeric_limitsImE3maxB7v160006Ev, symObjAddr: 0x20D4, symBinAddr: 0x100003828, symSize: 0x14 }
  - { offsetInCU: 0x92B0, offset: 0x92B0, size: 0x8, addend: 0x0, symName: __ZNKSt3__117__compressed_pairINS_12basic_stringIcNS_11char_traitsIcEENS_9allocatorIcEEE5__repES5_E6secondB7v160006Ev, symObjAddr: 0x20E8, symBinAddr: 0x10000383C, symSize: 0x24 }
  - { offsetInCU: 0x92D5, offset: 0x92D5, size: 0x8, addend: 0x0, symName: __ZNKSt3__122__compressed_pair_elemINS_9allocatorIcEELi1ELb1EE5__getB7v160006Ev, symObjAddr: 0x210C, symBinAddr: 0x100003860, symSize: 0x14 }
  - { offsetInCU: 0x92FA, offset: 0x92FA, size: 0x8, addend: 0x0, symName: __ZNSt3__123__libcpp_numeric_limitsImLb1EE3maxB7v160006Ev, symObjAddr: 0x2120, symBinAddr: 0x100003874, symSize: 0x8 }
  - { offsetInCU: 0x930E, offset: 0x930E, size: 0x8, addend: 0x0, symName: __ZNKSt3__18ios_base10exceptionsB7v160006Ev, symObjAddr: 0x2128, symBinAddr: 0x10000387C, symSize: 0x18 }
  - { offsetInCU: 0x9335, offset: 0x9335, size: 0x8, addend: 0x0, symName: __ZNSt3__114numeric_limitsIlE3maxB7v160006Ev, symObjAddr: 0x2140, symBinAddr: 0x100003894, symSize: 0x14 }
  - { offsetInCU: 0x9349, offset: 0x9349, size: 0x8, addend: 0x0, symName: __ZNSt3__115basic_streambufIcNS_11char_traitsIcEEE5sgetcB7v160006Ev, symObjAddr: 0x2154, symBinAddr: 0x1000038A8, symSize: 0x70 }
  - { offsetInCU: 0x936E, offset: 0x936E, size: 0x8, addend: 0x0, symName: __ZNKSt3__15ctypeIcE2isB7v160006Ejc, symObjAddr: 0x21C4, symBinAddr: 0x100003918, symSize: 0x7C }
  - { offsetInCU: 0x93B1, offset: 0x93B1, size: 0x8, addend: 0x0, symName: __ZNSt3__123__libcpp_numeric_limitsIlLb1EE3maxB7v160006Ev, symObjAddr: 0x2240, symBinAddr: 0x100003994, symSize: 0x8 }
  - { offsetInCU: 0x93C4, offset: 0x93C4, size: 0x8, addend: 0x0, symName: __Z7isasciii, symObjAddr: 0x2248, symBinAddr: 0x10000399C, symSize: 0x24 }
  - { offsetInCU: 0x93F1, offset: 0x93F1, size: 0x8, addend: 0x0, symName: __ZNKSt3__112basic_stringIcNS_11char_traitsIcEENS_9allocatorIcEEE15__get_long_sizeB7v160006Ev, symObjAddr: 0x226C, symBinAddr: 0x1000039C0, symSize: 0x28 }
  - { offsetInCU: 0x9416, offset: 0x9416, size: 0x8, addend: 0x0, symName: __ZNKSt3__112basic_stringIcNS_11char_traitsIcEENS_9allocatorIcEEE16__get_short_sizeB7v160006Ev, symObjAddr: 0x2294, symBinAddr: 0x1000039E8, symSize: 0x34 }
  - { offsetInCU: 0x944F, offset: 0x944F, size: 0x8, addend: 0x0, symName: __ZNKSt3__16__lessImmEclB7v160006ERKmS3_, symObjAddr: 0x231C, symBinAddr: 0x100003A70, symSize: 0x34 }
...
